

Microchip MPLAB XC8 Assembler V2.46 build 20240104201356 
                                                                                               Sat Apr 27 21:59:08 2024

Microchip MPLAB XC8 C Compiler v2.46 (Free license) build 20240104201356 Og1 
     1                           	processor	18F46K22
     2                           	fnconf	rparam,??,?,0
     3                           	pagewidth 120
     4                           	opt	flic
     5                           	psect	smallconst,global,reloc=2,class=SMALLCONST,delta=1,noexec
     6                           	psect	cinit,global,reloc=2,class=CODE,delta=1
     7                           	psect	bssCOMRAM,global,class=COMRAM,space=1,delta=1,lowdata,noexec
     8                           	psect	bssBANK0,global,class=BANK0,space=1,delta=1,lowdata,noexec
     9                           	psect	cstackBANK0,global,class=BANK0,space=1,delta=1,lowdata,noexec
    10                           	psect	cstackCOMRAM,global,class=COMRAM,space=1,delta=1,lowdata,noexec
    11                           	psect	text0,global,reloc=2,class=CODE,delta=1
    12                           	psect	text1,global,reloc=2,class=CODE,delta=1,group=3
    13                           	psect	text2,global,reloc=2,class=CODE,delta=1,group=3
    14                           	psect	text3,global,reloc=2,class=CODE,delta=1,group=3
    15                           	psect	text4,global,reloc=2,class=CODE,delta=1,group=3
    16                           	psect	text5,global,reloc=2,class=CODE,delta=1,group=2
    17                           	psect	text6,global,reloc=2,class=CODE,delta=1,group=2
    18                           	psect	text7,global,reloc=2,class=CODE,delta=1,group=2
    19                           	psect	text8,global,reloc=2,class=CODE,delta=1,group=2
    20                           	psect	text9,global,reloc=2,class=CODE,delta=1,group=3
    21                           	psect	text10,global,reloc=2,class=CODE,delta=1,group=2
    22                           	psect	text11,global,reloc=2,class=CODE,delta=1,group=2
    23                           	psect	text12,global,reloc=2,class=CODE,delta=1,group=3
    24                           	psect	text13,global,reloc=2,class=CODE,delta=1,group=1
    25                           	psect	text14,global,reloc=2,class=CODE,delta=1,group=1
    26                           	psect	text15,global,reloc=2,class=CODE,delta=1,group=3
    27                           	psect	text16,global,reloc=2,class=CODE,delta=1
    28                           	psect	text17,global,reloc=2,class=CODE,delta=1,group=3
    29                           	psect	text18,global,reloc=2,class=CODE,delta=1,group=2
    30                           	psect	text19,global,reloc=2,class=CODE,delta=1,group=2
    31                           	psect	text20,global,reloc=2,class=CODE,delta=1,group=2
    32                           	psect	text21,global,reloc=2,class=CODE,delta=1
    33                           	psect	intsave_regs,global,class=BIGRAM,space=1,delta=1,noexec
    34                           	psect	rparam,global,class=COMRAM,space=1,delta=1,noexec
    35                           	psect	config,global,abs,ovrld,class=CONFIG,space=4,delta=1,noexec
    36   000000                     
    37                           ; Generated 12/10/2023 GMT
    38                           ; 
    39                           ; Copyright © 2023, Microchip Technology Inc. and its subsidiaries ("Microchip")
    40                           ; All rights reserved.
    41                           ; 
    42                           ; This software is developed by Microchip Technology Inc. and its subsidiaries ("Microch
      +                          ip").
    43                           ; 
    44                           ; Redistribution and use in source and binary forms, with or without modification, are
    45                           ; permitted provided that the following conditions are met:
    46                           ; 
    47                           ;     1. Redistributions of source code must retain the above copyright notice, this lis
      +                          t of
    48                           ;        conditions and the following disclaimer.
    49                           ; 
    50                           ;     2. Redistributions in binary form must reproduce the above copyright notice, this 
      +                          list
    51                           ;        of conditions and the following disclaimer in the documentation and/or other
    52                           ;        materials provided with the distribution. Publication is not required when
    53                           ;        this file is used in an embedded application.
    54                           ; 
    55                           ;     3. Microchip's name may not be used to endorse or promote products derived from th
      +                          is
    56                           ;        software without specific prior written permission.
    57                           ; 
    58                           ; THIS SOFTWARE IS PROVIDED BY MICROCHIP "AS IS" AND ANY EXPRESS OR IMPLIED WARRANTIES,
    59                           ; INCLUDING, BUT NOT LIMITED TO, THE IMPLIED WARRANTIES OF MERCHANTABILITY AND FITNESS F
      +                          OR
    60                           ; PURPOSE ARE DISCLAIMED.  IN NO EVENT SHALL MICROCHIP BE LIABLE FOR ANY DIRECT, INDIREC
      +                          T,
    61                           ; INCIDENTAL, SPECIAL, EXEMPLARY, OR CONSEQUENTIAL DAMAGES (INCLUDING BUT NOT LIMITED TO
    62                           ; PROCUREMENT OF SUBSTITUTE GOODS OR SERVICES; LOSS OF USE, DATA OR PROFITS; OR BUSINESS
    63                           ; INTERRUPTION) HOWSOEVER CAUSED AND ON ANY THEORY OF LIABILITY, WHETHER IN CONTRACT, ST
      +                          RICT
    64                           ; LIABILITY, OR TORT (INCLUDING NEGLIGENCE OR OTHERWISE) ARISING IN ANY WAY OUT OF THE U
      +                          SE OF
    65                           ; THIS SOFTWARE, EVEN IF ADVISED OF THE POSSIBILITY OF SUCH DAMAGE.
    66                           ; 
    67                           ; 
    68                           ; Code-generator required, PIC18F46K22 Definitions
    69                           ; 
    70                           ; SFR Addresses
    71   000000                     
    72                           	psect	smallconst
    73   001000                     __psmallconst:
    74                           	callstack 0
    75   001000  00                 	db	0
    76   001001  6C3C               	dw	27708
    77   001003  3636               	dw	13878
    78   001005                     __end_of_S4:
    79                           	callstack 0
    80   001005  07CF               	dw	1999
    81   001007  B950               	dw	47440
    82   001009                     __end_of_S3:
    83                           	callstack 0
    84   001009  8884               	dw	34948
    85   00100B  3C08               	dw	15368
    86   00100D                     __end_of_S2:
    87                           	callstack 0
    88   00100D  AAAB               	dw	43691
    89   00100F  BE2A               	dw	48682
    90   001011                     __end_of_S1:
    91                           	callstack 0
    92   001011  85A3               	dw	34211
    93   001013  3288               	dw	12936
    94   001015                     __end_of_pio2_1t:
    95                           	callstack 0
    96   001015  0FDA               	dw	4058
    97   001017  3FC9               	dw	16329
    98   001019                     __end_of_pio2_1:
    99                           	callstack 0
   100   001019  F983               	dw	63875
   101   00101B  3F22               	dw	16162
   102   00101D                     __end_of_invpio2:
   103                           	callstack 0
   104   00101D  0000               	dw	0
   105   00101F  3F00               	dw	16128
   106   001021                     __end_of_half:
   107                           	callstack 0
   108   001021  9A17               	dw	39447
   109   001023  37CC               	dw	14284
   110   001025                     __end_of_C3:
   111                           	callstack 0
   112   001025  043F               	dw	1087
   113   001027  BAB6               	dw	47798
   114   001029                     __end_of_C2:
   115                           	callstack 0
   116   001029  AA9F               	dw	43679
   117   00102B  3D2A               	dw	15658
   118   00102D                     __end_of_C1:
   119                           	callstack 0
   120   00102D  0000               	dw	0
   121   00102F  BF00               	dw	48896
   122   001031                     __end_of_C0:
   123                           	callstack 0
   124   001031  0FDB               	dw	4059
   125   001033  40C9               	dw	16585
   126   001035                     __end_of_s4pio2:
   127                           	callstack 0
   128   001035  CBE4               	dw	52196
   129   001037  4096               	dw	16534
   130   001039                     __end_of_s3pio2:
   131                           	callstack 0
   132   001039  0FDB               	dw	4059
   133   00103B  4049               	dw	16457
   134   00103D                     __end_of_s2pio2:
   135                           	callstack 0
   136   00103D  0FDB               	dw	4059
   137   00103F  3FC9               	dw	16329
   138   001041                     __end_of_s1pio2:
   139                           	callstack 0
   140   000000                     _SSP2STATbits	set	3949
   141   000000                     _SSP2ADD	set	3950
   142   000000                     _TRISBbits	set	3987
   143   000000                     _TX1IF	set	31988
   144   000000                     _GODONE	set	32273
   145   000000                     _ANSELDbits	set	3899
   146   000000                     _PORTAbits	set	3968
   147   000000                     _PORTCbits	set	3970
   148   000000                     _LATBbits	set	3978
   149   000000                     _ANSELBbits	set	3897
   150   000000                     _ANSELAbits	set	3896
   151   000000                     _TRISAbits	set	3986
   152   000000                     _TRISCbits	set	3988
   153   000000                     _TRISDbits	set	3989
   154   000000                     _RCSTA1bits	set	4011
   155   000000                     _SPBRG1	set	4015
   156   000000                     _ADCON2bits	set	4032
   157   000000                     _SSP1CON1bits	set	4038
   158   000000                     _SSP1IF	set	31987
   159   000000                     _SSP1BUF	set	4041
   160   000000                     _SSP1STATbits	set	4039
   161   000000                     _ADCON0bits	set	4034
   162   000000                     _ADRESH	set	4036
   163   000000                     _TXREG1	set	4013
   164   000000                     _TXSTA1bits	set	4012
   165   000000                     _LATAbits	set	3977
   166   000000                     _SSP2IF	set	32039
   167   000000                     _SSP2CON2bits	set	3947
   168   000000                     _SSP2CON1bits	set	3948
   169   000000                     _SSP2BUF	set	3951
   170   001041                     STR_1:
   171   001041  25                 	db	37
   172   001042  64                 	db	100	;'d'
   173   001043  20                 	db	32
   174   001044  0D                 	db	13
   175   001045  00                 	db	0
   176   001046  00                 	db	0	; dummy byte at the end
   177   000000                     
   178                           ; #config settings
   179                           
   180                           	psect	cinit
   181   0034B6                     __pcinit:
   182                           	callstack 0
   183   0034B6                     start_initialization:
   184                           	callstack 0
   185   0034B6                     __initialization:
   186                           	callstack 0
   187                           
   188                           ; Clear objects allocated to BANK0 (44 bytes)
   189   0034B6  EE00  F0BE         	lfsr	0,__pbssBANK0
   190   0034BA  0E2C               	movlw	44
   191   0034BC                     clear_0:
   192   0034BC  6AEE               	clrf	postinc0,c
   193   0034BE  06E8               	decf	wreg,f,c
   194   0034C0  E1FD               	bnz	clear_0
   195                           
   196                           ; Clear objects allocated to COMRAM (1 bytes)
   197   0034C2  6A5E               	clrf	__pbssCOMRAM& (0+255),c
   198   0034C4                     end_of_initialization:
   199                           	callstack 0
   200   0034C4                     __end_of__initialization:
   201                           	callstack 0
   202   0034C4  0E00               	movlw	low (__Lmediumconst shr (0+16))
   203   0034C6  6EF8               	movwf	tblptru,c
   204   0034C8  0100               	movlb	0
   205   0034CA  EFCC  F012         	goto	_main	;jump to C main() function
   206                           
   207                           	psect	bssCOMRAM
   208   00005E                     __pbssCOMRAM:
   209                           	callstack 0
   210   00005E                     _flags:
   211                           	callstack 0
   212   00005E                     	ds	1
   213                           
   214                           	psect	bssBANK0
   215   0000BE                     __pbssBANK0:
   216                           	callstack 0
   217   0000BE                     _dbuf:
   218                           	callstack 0
   219   0000BE                     	ds	32
   220   0000DE                     fabsf@F465:
   221                           	callstack 0
   222   0000DE                     	ds	4
   223   0000E2                     ___rem_pio2f@F526:
   224                           	callstack 0
   225   0000E2                     	ds	4
   226   0000E6                     _width:
   227                           	callstack 0
   228   0000E6                     	ds	2
   229   0000E8                     _prec:
   230                           	callstack 0
   231   0000E8                     	ds	2
   232                           
   233                           	psect	cstackBANK0
   234   000060                     __pcstackBANK0:
   235                           	callstack 0
   236   000060                     ___cosdf@r:
   237                           	callstack 0
   238   000060                     ___sindf@r:
   239                           	callstack 0
   240                           
   241                           ; 4 bytes @ 0x0
   242   000060                     	ds	4
   243   000064                     ___sindf@w:
   244                           	callstack 0
   245   000064                     ___cosdf$2426:
   246                           	callstack 0
   247                           
   248                           ; 4 bytes @ 0x4
   249   000064                     	ds	4
   250   000068                     ___cosdf$2427:
   251                           	callstack 0
   252   000068                     ___sindf$2430:
   253                           	callstack 0
   254                           
   255                           ; 4 bytes @ 0x8
   256   000068                     	ds	4
   257   00006C                     ___cosdf$2428:
   258                           	callstack 0
   259   00006C                     ___sindf$2431:
   260                           	callstack 0
   261                           
   262                           ; 4 bytes @ 0xC
   263   00006C                     	ds	4
   264   000070                     ___cosdf@w:
   265                           	callstack 0
   266   000070                     ___sindf$2432:
   267                           	callstack 0
   268                           
   269                           ; 4 bytes @ 0x10
   270   000070                     	ds	4
   271   000074                     ___cosdf@z:
   272                           	callstack 0
   273   000074                     ___sindf@s:
   274                           	callstack 0
   275                           
   276                           ; 4 bytes @ 0x14
   277   000074                     	ds	4
   278   000078                     ?___flneg:
   279                           	callstack 0
   280   000078                     ___flneg@f1:
   281                           	callstack 0
   282   000078                     ___sindf@z:
   283                           	callstack 0
   284                           
   285                           ; 4 bytes @ 0x18
   286   000078                     	ds	4
   287   00007C                     ?___rem_pio2f:
   288                           	callstack 0
   289   00007C                     ___rem_pio2f@x:
   290                           	callstack 0
   291                           
   292                           ; 4 bytes @ 0x1C
   293   00007C                     	ds	4
   294   000080                     ___rem_pio2f@y:
   295                           	callstack 0
   296                           
   297                           ; 1 bytes @ 0x20
   298   000080                     	ds	1
   299   000081                     ___rem_pio2f@ty:
   300                           	callstack 0
   301                           
   302                           ; 4 bytes @ 0x21
   303   000081                     	ds	4
   304   000085                     ___rem_pio2f$2429:
   305                           	callstack 0
   306                           
   307                           ; 4 bytes @ 0x25
   308   000085                     	ds	4
   309   000089                     ___rem_pio2f@sign:
   310                           	callstack 0
   311                           
   312                           ; 1 bytes @ 0x29
   313   000089                     	ds	1
   314   00008A                     ___rem_pio2f@ux:
   315                           	callstack 0
   316                           
   317                           ; 4 bytes @ 0x2A
   318   00008A                     	ds	4
   319   00008E                     ___rem_pio2f@fn:
   320                           	callstack 0
   321                           
   322                           ; 4 bytes @ 0x2E
   323   00008E                     	ds	4
   324   000092                     ___rem_pio2f@t:
   325                           	callstack 0
   326                           
   327                           ; 4 bytes @ 0x32
   328   000092                     	ds	4
   329   000096                     ___rem_pio2f@n:
   330                           	callstack 0
   331                           
   332                           ; 4 bytes @ 0x36
   333   000096                     	ds	4
   334   00009A                     ?_sinf:
   335                           	callstack 0
   336   00009A                     sinf@x:
   337                           	callstack 0
   338                           
   339                           ; 4 bytes @ 0x3A
   340   00009A                     	ds	4
   341   00009E                     _sinf$2177:
   342                           	callstack 0
   343                           
   344                           ; 4 bytes @ 0x3E
   345   00009E                     	ds	4
   346   0000A2                     _sinf$2178:
   347                           	callstack 0
   348                           
   349                           ; 4 bytes @ 0x42
   350   0000A2                     	ds	4
   351   0000A6                     sinf@n:
   352                           	callstack 0
   353                           
   354                           ; 1 bytes @ 0x46
   355   0000A6                     	ds	1
   356   0000A7                     sinf@sign:
   357                           	callstack 0
   358                           
   359                           ; 1 bytes @ 0x47
   360   0000A7                     	ds	1
   361   0000A8                     _sinf$2425:
   362                           	callstack 0
   363                           
   364                           ; 4 bytes @ 0x48
   365   0000A8                     	ds	4
   366   0000AC                     sinf@y:
   367                           	callstack 0
   368                           
   369                           ; 4 bytes @ 0x4C
   370   0000AC                     	ds	4
   371   0000B0                     sinf@ux:
   372                           	callstack 0
   373                           
   374                           ; 4 bytes @ 0x50
   375   0000B0                     	ds	4
   376   0000B4                     _main$2423:
   377                           	callstack 0
   378                           
   379                           ; 4 bytes @ 0x54
   380   0000B4                     	ds	4
   381   0000B8                     _main$2424:
   382                           	callstack 0
   383                           
   384                           ; 4 bytes @ 0x58
   385   0000B8                     	ds	4
   386   0000BC                     main@selectMode:
   387                           	callstack 0
   388                           
   389                           ; 1 bytes @ 0x5C
   390   0000BC                     	ds	1
   391   0000BD                     main@i:
   392                           	callstack 0
   393                           
   394                           ; 1 bytes @ 0x5D
   395   0000BD                     	ds	1
   396                           
   397                           	psect	cstackCOMRAM
   398   000001                     __pcstackCOMRAM:
   399                           	callstack 0
   400   000001                     ?___awdiv:
   401                           	callstack 0
   402   000001                     ?___awmod:
   403                           	callstack 0
   404   000001                     ?_fabsf:
   405                           	callstack 0
   406   000001                     ?___xxtofl:
   407                           	callstack 0
   408   000001                     SPI_write@MSB:
   409                           	callstack 0
   410   000001                     putch@data:
   411                           	callstack 0
   412   000001                     ___awdiv@dividend:
   413                           	callstack 0
   414   000001                     ___awmod@dividend:
   415                           	callstack 0
   416   000001                     ___xxtofl@val:
   417                           	callstack 0
   418   000001                     fabsf@x:
   419                           	callstack 0
   420                           
   421                           ; 4 bytes @ 0x0
   422   000001                     	ds	1
   423   000002                     SPI_write@LSB:
   424                           	callstack 0
   425   000002                     fputc@c:
   426                           	callstack 0
   427                           
   428                           ; 2 bytes @ 0x1
   429   000002                     	ds	1
   430   000003                     SPI_write@data:
   431                           	callstack 0
   432   000003                     ___awdiv@divisor:
   433                           	callstack 0
   434   000003                     ___awmod@divisor:
   435                           	callstack 0
   436                           
   437                           ; 2 bytes @ 0x2
   438   000003                     	ds	1
   439   000004                     fputc@fp:
   440                           	callstack 0
   441                           
   442                           ; 2 bytes @ 0x3
   443   000004                     	ds	1
   444   000005                     ??___xxtofl:
   445   000005                     ___awdiv@counter:
   446                           	callstack 0
   447   000005                     ___awmod@counter:
   448                           	callstack 0
   449   000005                     fabsf@u:
   450                           	callstack 0
   451                           
   452                           ; 4 bytes @ 0x4
   453   000005                     	ds	1
   454   000006                     ??_fputc:
   455   000006                     ___awdiv@sign:
   456                           	callstack 0
   457   000006                     ___awmod@sign:
   458                           	callstack 0
   459                           
   460                           ; 1 bytes @ 0x5
   461   000006                     	ds	1
   462   000007                     ?_abs:
   463                           	callstack 0
   464   000007                     ___awdiv@quotient:
   465                           	callstack 0
   466   000007                     abs@a:
   467                           	callstack 0
   468                           
   469                           ; 2 bytes @ 0x6
   470   000007                     	ds	2
   471   000009                     ??_abs:
   472   000009                     ___xxtofl@sign:
   473                           	callstack 0
   474                           
   475                           ; 1 bytes @ 0x8
   476   000009                     	ds	1
   477   00000A                     ___xxtofl@exp:
   478                           	callstack 0
   479                           
   480                           ; 1 bytes @ 0x9
   481   00000A                     	ds	1
   482   00000B                     vfpfcnvrt@fp:
   483                           	callstack 0
   484   00000B                     ___xxtofl@arg:
   485                           	callstack 0
   486                           
   487                           ; 4 bytes @ 0xA
   488   00000B                     	ds	2
   489   00000D                     vfpfcnvrt@fmt:
   490                           	callstack 0
   491                           
   492                           ; 1 bytes @ 0xC
   493   00000D                     	ds	1
   494   00000E                     vfpfcnvrt@ap:
   495                           	callstack 0
   496                           
   497                           ; 1 bytes @ 0xD
   498   00000E                     	ds	1
   499   00000F                     ??_vfpfcnvrt:
   500   00000F                     ?___flmul:
   501                           	callstack 0
   502   00000F                     ___flmul@b:
   503                           	callstack 0
   504                           
   505                           ; 4 bytes @ 0xE
   506   00000F                     	ds	1
   507   000010                     vfpfcnvrt@done:
   508                           	callstack 0
   509                           
   510                           ; 1 bytes @ 0xF
   511   000010                     	ds	1
   512   000011                     vfpfcnvrt@cp:
   513                           	callstack 0
   514                           
   515                           ; 1 bytes @ 0x10
   516   000011                     	ds	1
   517   000012                     vfpfcnvrt@convarg:
   518                           	callstack 0
   519                           
   520                           ; 4 bytes @ 0x11
   521   000012                     	ds	1
   522   000013                     ___flmul@a:
   523                           	callstack 0
   524                           
   525                           ; 4 bytes @ 0x12
   526   000013                     	ds	3
   527   000016                     vfpfcnvrt@c:
   528                           	callstack 0
   529                           
   530                           ; 1 bytes @ 0x15
   531   000016                     	ds	1
   532   000017                     ??___flmul:
   533   000017                     ?_vfprintf:
   534                           	callstack 0
   535   000017                     vfprintf@fp:
   536                           	callstack 0
   537                           
   538                           ; 2 bytes @ 0x16
   539   000017                     	ds	2
   540   000019                     vfprintf@fmt:
   541                           	callstack 0
   542                           
   543                           ; 1 bytes @ 0x18
   544   000019                     	ds	1
   545   00001A                     vfprintf@ap:
   546                           	callstack 0
   547                           
   548                           ; 1 bytes @ 0x19
   549   00001A                     	ds	1
   550   00001B                     ___flmul@sign:
   551                           	callstack 0
   552   00001B                     vfprintf@cfmt:
   553                           	callstack 0
   554                           
   555                           ; 1 bytes @ 0x1A
   556   00001B                     	ds	1
   557   00001C                     ?_printf:
   558                           	callstack 0
   559   00001C                     printf@fmt:
   560                           	callstack 0
   561   00001C                     ___flmul@grs:
   562                           	callstack 0
   563                           
   564                           ; 4 bytes @ 0x1B
   565   00001C                     	ds	3
   566   00001F                     printf@ap:
   567                           	callstack 0
   568                           
   569                           ; 1 bytes @ 0x1E
   570   00001F                     	ds	1
   571   000020                     ___flmul@aexp:
   572                           	callstack 0
   573                           
   574                           ; 1 bytes @ 0x1F
   575   000020                     	ds	1
   576   000021                     ___flmul@bexp:
   577                           	callstack 0
   578                           
   579                           ; 1 bytes @ 0x20
   580   000021                     	ds	1
   581   000022                     ___flmul@prod:
   582                           	callstack 0
   583                           
   584                           ; 4 bytes @ 0x21
   585   000022                     	ds	4
   586   000026                     ___flmul@temp:
   587                           	callstack 0
   588                           
   589                           ; 2 bytes @ 0x25
   590   000026                     	ds	2
   591   000028                     ?___fldiv:
   592                           	callstack 0
   593   000028                     ___fldiv@b:
   594                           	callstack 0
   595                           
   596                           ; 4 bytes @ 0x27
   597   000028                     	ds	4
   598   00002C                     ___fldiv@a:
   599                           	callstack 0
   600                           
   601                           ; 4 bytes @ 0x2B
   602   00002C                     	ds	4
   603   000030                     ??___fldiv:
   604                           
   605                           ; 1 bytes @ 0x2F
   606   000030                     	ds	4
   607   000034                     ___fldiv@rem:
   608                           	callstack 0
   609                           
   610                           ; 4 bytes @ 0x33
   611   000034                     	ds	4
   612   000038                     ___fldiv@sign:
   613                           	callstack 0
   614                           
   615                           ; 1 bytes @ 0x37
   616   000038                     	ds	1
   617   000039                     ___fldiv@new_exp:
   618                           	callstack 0
   619                           
   620                           ; 2 bytes @ 0x38
   621   000039                     	ds	2
   622   00003B                     ___fldiv@grs:
   623                           	callstack 0
   624                           
   625                           ; 4 bytes @ 0x3A
   626   00003B                     	ds	4
   627   00003F                     ___fldiv@bexp:
   628                           	callstack 0
   629                           
   630                           ; 1 bytes @ 0x3E
   631   00003F                     	ds	1
   632   000040                     ___fldiv@aexp:
   633                           	callstack 0
   634                           
   635                           ; 1 bytes @ 0x3F
   636   000040                     	ds	1
   637   000041                     ?___fladd:
   638                           	callstack 0
   639   000041                     ___fladd@b:
   640                           	callstack 0
   641                           
   642                           ; 4 bytes @ 0x40
   643   000041                     	ds	4
   644   000045                     ___fladd@a:
   645                           	callstack 0
   646                           
   647                           ; 4 bytes @ 0x44
   648   000045                     	ds	4
   649   000049                     ??___fladd:
   650                           
   651                           ; 1 bytes @ 0x48
   652   000049                     	ds	4
   653   00004D                     ___fladd@signs:
   654                           	callstack 0
   655                           
   656                           ; 1 bytes @ 0x4C
   657   00004D                     	ds	1
   658   00004E                     ___fladd@aexp:
   659                           	callstack 0
   660                           
   661                           ; 1 bytes @ 0x4D
   662   00004E                     	ds	1
   663   00004F                     ___fladd@bexp:
   664                           	callstack 0
   665                           
   666                           ; 1 bytes @ 0x4E
   667   00004F                     	ds	1
   668   000050                     ___fladd@grs:
   669                           	callstack 0
   670                           
   671                           ; 1 bytes @ 0x4F
   672   000050                     	ds	1
   673   000051                     ?___flsub:
   674                           	callstack 0
   675   000051                     ?___sindf:
   676                           	callstack 0
   677   000051                     ?___cosdf:
   678                           	callstack 0
   679   000051                     ?___fltol:
   680                           	callstack 0
   681   000051                     ___fltol@f1:
   682                           	callstack 0
   683   000051                     ___flsub@b:
   684                           	callstack 0
   685   000051                     ___cosdf@x:
   686                           	callstack 0
   687   000051                     ___sindf@x:
   688                           	callstack 0
   689                           
   690                           ; 4 bytes @ 0x50
   691   000051                     	ds	4
   692   000055                     ??___fltol:
   693   000055                     ___flsub@a:
   694                           	callstack 0
   695                           
   696                           ; 4 bytes @ 0x54
   697   000055                     	ds	4
   698   000059                     ___fltol@sign1:
   699                           	callstack 0
   700                           
   701                           ; 1 bytes @ 0x58
   702   000059                     	ds	1
   703   00005A                     ___fltol@exp1:
   704                           	callstack 0
   705                           
   706                           ; 1 bytes @ 0x59
   707   00005A                     	ds	1
   708   00005B                     ??___rem_pio2f:
   709                           
   710                           ; 1 bytes @ 0x5A
   711   00005B                     	ds	2
   712   00005D                     ??_main:
   713                           
   714                           ; 1 bytes @ 0x5C
   715   00005D                     	ds	1
   716                           
   717 ;;
   718 ;;Main: autosize = 0, tempsize = 1, incstack = 0, save=0
   719 ;;
   720 ;; *************** function _main *****************
   721 ;; Defined at:
   722 ;;		line 14 in file "main.c"
   723 ;; Parameters:    Size  Location     Type
   724 ;;		None
   725 ;; Auto vars:     Size  Location     Type
   726 ;;  i               1   93[BANK0 ] unsigned char 
   727 ;;  selectMode      1   92[BANK0 ] unsigned char 
   728 ;; Return value:  Size  Location     Type
   729 ;;                  1    wreg      void 
   730 ;; Registers used:
   731 ;;		wreg, fsr1l, fsr1h, fsr2l, fsr2h, status,2, status,0, tblptrl, tblptrh, tblptru, prodl, prodh, cstack
   732 ;; Tracked objects:
   733 ;;		On entry : 0/0
   734 ;;		On exit  : 0/0
   735 ;;		Unchanged: 0/0
   736 ;; Data sizes:     COMRAM   BANK0   BANK1   BANK2   BANK3   BANK4   BANK5   BANK6   BANK7   BANK8   BANK9  BANK10  BANK1
      +1  BANK12  BANK13  BANK14  BANK15
   737 ;;      Params:         0       0       0       0       0       0       0       0       0       0       0       0       
      +0       0       0       0       0
   738 ;;      Locals:         0      10       0       0       0       0       0       0       0       0       0       0       
      +0       0       0       0       0
   739 ;;      Temps:          1       0       0       0       0       0       0       0       0       0       0       0       
      +0       0       0       0       0
   740 ;;      Totals:         1      10       0       0       0       0       0       0       0       0       0       0       
      +0       0       0       0       0
   741 ;;Total ram usage:       11 bytes
   742 ;; Hardware stack levels required when called: 5
   743 ;; This function calls:
   744 ;;		_SPI_write
   745 ;;		___fladd
   746 ;;		___fldiv
   747 ;;		___flmul
   748 ;;		___fltol
   749 ;;		___xxtofl
   750 ;;		_printf
   751 ;;		_sinf
   752 ;; This function is called by:
   753 ;;		Startup code after reset
   754 ;; This function uses a non-reentrant model
   755 ;;
   756                           
   757                           	psect	text0
   758   002598                     __ptext0:
   759                           	callstack 0
   760   002598                     _main:
   761                           	callstack 26
   762   002598                     
   763                           ;main.c: 17:     TRISCbits.RC0 = 1;
   764   002598  8094               	bsf	148,0,c	;volatile
   765                           
   766                           ;main.c: 18:     TRISAbits.RA4 = 1;
   767   00259A  8892               	bsf	146,4,c	;volatile
   768                           
   769                           ;main.c: 19:     TRISAbits.RA3 = 1;
   770   00259C  8692               	bsf	146,3,c	;volatile
   771                           
   772                           ;main.c: 20:     ANSELAbits.ANSA3 = 0;
   773   00259E  010F               	movlb	15	; () banked
   774   0025A0  9738               	bcf	56,3,b	;volatile
   775                           
   776                           ;main.c: 23:     TRISBbits.RB3 = 0;
   777   0025A2  9693               	bcf	147,3,c	;volatile
   778                           
   779                           ;main.c: 24:     TRISCbits.RC3 = 0;
   780   0025A4  9694               	bcf	148,3,c	;volatile
   781                           
   782                           ;main.c: 25:     TRISCbits.RC5 = 0;
   783   0025A6  9A94               	bcf	148,5,c	;volatile
   784   0025A8                     
   785                           ; BSR set to: 15
   786                           ;main.c: 27:     SSP1CON1bits.SSPM = 0b0010;
   787   0025A8  50C6               	movf	198,w,c	;volatile
   788   0025AA  0BF0               	andlw	-16
   789   0025AC  0902               	iorlw	2
   790   0025AE  6EC6               	movwf	198,c	;volatile
   791   0025B0                     
   792                           ; BSR set to: 15
   793                           ;main.c: 28:     SSP1CON1bits.CKP = 0;
   794   0025B0  98C6               	bcf	198,4,c	;volatile
   795   0025B2                     
   796                           ; BSR set to: 15
   797                           ;main.c: 29:     SSP1STATbits.CKE = 1;
   798   0025B2  8CC7               	bsf	199,6,c	;volatile
   799   0025B4                     
   800                           ; BSR set to: 15
   801                           ;main.c: 30:     SSP1CON1bits.SSPEN = 1;
   802   0025B4  8AC6               	bsf	198,5,c	;volatile
   803   0025B6                     
   804                           ; BSR set to: 15
   805                           ;main.c: 33:     ANSELBbits.ANSB0 = 1;
   806   0025B6  8139               	bsf	57,0,b	;volatile
   807   0025B8                     
   808                           ; BSR set to: 15
   809                           ;main.c: 35:     ADCON2bits.ADFM = 0;
   810   0025B8  9EC0               	bcf	192,7,c	;volatile
   811                           
   812                           ;main.c: 36:     ADCON2bits.ADCS = 0b110;
   813   0025BA  50C0               	movf	192,w,c	;volatile
   814   0025BC  0BF8               	andlw	-8
   815   0025BE  0906               	iorlw	6
   816   0025C0  6EC0               	movwf	192,c	;volatile
   817                           
   818                           ;main.c: 37:     ADCON2bits.ACQT = 0b110;
   819   0025C2  50C0               	movf	192,w,c	;volatile
   820   0025C4  0BC7               	andlw	-57
   821   0025C6  0930               	iorlw	48
   822   0025C8  6EC0               	movwf	192,c	;volatile
   823   0025CA                     
   824                           ; BSR set to: 15
   825                           ;main.c: 38:     ADCON0bits.ADON = 1;
   826   0025CA  80C2               	bsf	194,0,c	;volatile
   827                           
   828                           ;main.c: 41:     SPBRG1 = 51;
   829   0025CC  0E33               	movlw	51
   830   0025CE  6EAF               	movwf	175,c	;volatile
   831   0025D0                     
   832                           ; BSR set to: 15
   833                           ;main.c: 42:     RCSTA1bits.SPEN = 1;
   834   0025D0  8EAB               	bsf	171,7,c	;volatile
   835   0025D2                     
   836                           ; BSR set to: 15
   837                           ;main.c: 43:     TXSTA1bits.SYNC = 0;
   838   0025D2  98AC               	bcf	172,4,c	;volatile
   839   0025D4                     
   840                           ; BSR set to: 15
   841                           ;main.c: 44:     TXSTA1bits.TXEN = 1;
   842   0025D4  8AAC               	bsf	172,5,c	;volatile
   843   0025D6                     
   844                           ; BSR set to: 15
   845                           ;main.c: 45:     RCSTA1bits.CREN = 1;
   846   0025D6  88AB               	bsf	171,4,c	;volatile
   847   0025D8                     
   848                           ; BSR set to: 15
   849                           ;main.c: 48:     LATBbits.LB3 = 1;
   850   0025D8  868A               	bsf	138,3,c	;volatile
   851                           
   852                           ;main.c: 50:     ADCON0bits.CHS = 12;
   853   0025DA  50C2               	movf	194,w,c	;volatile
   854   0025DC  0B83               	andlw	-125
   855   0025DE  0930               	iorlw	48
   856   0025E0  6EC2               	movwf	194,c	;volatile
   857                           
   858                           ;main.c: 52:     uint8_t selectMode = 1;
   859   0025E2  0E01               	movlw	1
   860   0025E4  0100               	movlb	0	; () banked
   861   0025E6  6FBC               	movwf	main@selectMode& (0+255),b
   862   0025E8                     
   863                           ; BSR set to: 0
   864                           ;main.c: 55:         for(uint8_t i = 0; 1; i++){
   865   0025E8  0E00               	movlw	0
   866   0025EA  6FBD               	movwf	main@i& (0+255),b
   867   0025EC  EFDB  F013         	goto	l2990
   868   0025F0                     l2972:
   869                           
   870                           ; BSR set to: 0
   871                           ;main.c: 58:                 if(i<255/2){
   872   0025F0  0E7F               	movlw	127
   873   0025F2  61BD               	cpfslt	main@i& (0+255),b
   874   0025F4  EFFE  F012         	goto	u3141
   875   0025F8  EF00  F013         	goto	u3140
   876   0025FC                     u3141:
   877   0025FC  EF27  F013         	goto	l2976
   878   002600                     u3140:
   879   002600                     
   880                           ; BSR set to: 0
   881                           ;main.c: 59:                     SPI_write(1.9*i);
   882   002600  0E33               	movlw	51
   883   002602  6E13               	movwf	___flmul@a^0,c
   884   002604  0E33               	movlw	51
   885   002606  6E14               	movwf	(___flmul@a+1)^0,c
   886   002608  0EF3               	movlw	243
   887   00260A  6E15               	movwf	(___flmul@a+2)^0,c
   888   00260C  0E3F               	movlw	63
   889   00260E  6E16               	movwf	(___flmul@a+3)^0,c
   890   002610  51BD               	movf	main@i& (0+255),w,b
   891   002612  6E01               	movwf	___xxtofl@val^0,c
   892   002614  6A02               	clrf	(___xxtofl@val+1)^0,c
   893   002616  6A03               	clrf	(___xxtofl@val+2)^0,c
   894   002618  6A04               	clrf	(___xxtofl@val+3)^0,c
   895   00261A  0E01               	movlw	1
   896   00261C  EC1E  F017         	call	___xxtofl
   897   002620  C001  F00F         	movff	?___xxtofl,___flmul@b
   898   002624  C002  F010         	movff	?___xxtofl+1,___flmul@b+1
   899   002628  C003  F011         	movff	?___xxtofl+2,___flmul@b+2
   900   00262C  C004  F012         	movff	?___xxtofl+3,___flmul@b+3
   901   002630  EC09  F00D         	call	___flmul	;wreg free
   902   002634  C00F  F051         	movff	?___flmul,___fltol@f1
   903   002638  C010  F052         	movff	?___flmul+1,___fltol@f1+1
   904   00263C  C011  F053         	movff	?___flmul+2,___fltol@f1+2
   905   002640  C012  F054         	movff	?___flmul+3,___fltol@f1+3
   906   002644  ECF8  F017         	call	___fltol	;wreg free
   907   002648  5051               	movf	?___fltol^0,w,c
   908   00264A  ECDE  F019         	call	_SPI_write
   909   00264E                     l2976:
   910                           
   911                           ;main.c: 61:                 if(i>=255/2){
   912   00264E  0E7E               	movlw	126
   913   002650  0100               	movlb	0	; () banked
   914   002652  65BD               	cpfsgt	main@i& (0+255),b
   915   002654  EF2E  F013         	goto	u3151
   916   002658  EF30  F013         	goto	u3150
   917   00265C                     u3151:
   918   00265C  EFEA  F013         	goto	l62
   919   002660                     u3150:
   920   002660                     
   921                           ; BSR set to: 0
   922                           ;main.c: 62:                     SPI_write(1.9*(255-i));
   923   002660  0E33               	movlw	51
   924   002662  6E13               	movwf	___flmul@a^0,c
   925   002664  0E33               	movlw	51
   926   002666  6E14               	movwf	(___flmul@a+1)^0,c
   927   002668  0EF3               	movlw	243
   928   00266A  6E15               	movwf	(___flmul@a+2)^0,c
   929   00266C  0E3F               	movlw	63
   930   00266E  6E16               	movwf	(___flmul@a+3)^0,c
   931   002670  51BD               	movf	main@i& (0+255),w,b
   932   002672  0AFF               	xorlw	255
   933   002674  6E5D               	movwf	??_main^0,c
   934   002676  505D               	movf	??_main^0,w,c
   935   002678  6E01               	movwf	___xxtofl@val^0,c
   936   00267A  6A02               	clrf	(___xxtofl@val+1)^0,c
   937   00267C  6A03               	clrf	(___xxtofl@val+2)^0,c
   938   00267E  6A04               	clrf	(___xxtofl@val+3)^0,c
   939   002680  0E01               	movlw	1
   940   002682  EC1E  F017         	call	___xxtofl
   941   002686  C001  F00F         	movff	?___xxtofl,___flmul@b
   942   00268A  C002  F010         	movff	?___xxtofl+1,___flmul@b+1
   943   00268E  C003  F011         	movff	?___xxtofl+2,___flmul@b+2
   944   002692  C004  F012         	movff	?___xxtofl+3,___flmul@b+3
   945   002696  EC09  F00D         	call	___flmul	;wreg free
   946   00269A  C00F  F051         	movff	?___flmul,___fltol@f1
   947   00269E  C010  F052         	movff	?___flmul+1,___fltol@f1+1
   948   0026A2  C011  F053         	movff	?___flmul+2,___fltol@f1+2
   949   0026A6  C012  F054         	movff	?___flmul+3,___fltol@f1+3
   950   0026AA  ECF8  F017         	call	___fltol	;wreg free
   951   0026AE  5051               	movf	?___fltol^0,w,c
   952   0026B0  ECDE  F019         	call	_SPI_write
   953   0026B4  EFEA  F013         	goto	l62
   954   0026B8                     l2980:
   955                           
   956                           ; BSR set to: 0
   957                           ;main.c: 66:                 SPI_write((255/2*sinf(2*3.14*i/255)+255/2));
   958   0026B8  0E00               	movlw	0
   959   0026BA  6E2C               	movwf	___fldiv@a^0,c
   960   0026BC  0E00               	movlw	0
   961   0026BE  6E2D               	movwf	(___fldiv@a+1)^0,c
   962   0026C0  0E7F               	movlw	127
   963   0026C2  6E2E               	movwf	(___fldiv@a+2)^0,c
   964   0026C4  0E43               	movlw	67
   965   0026C6  6E2F               	movwf	(___fldiv@a+3)^0,c
   966   0026C8  0EC3               	movlw	195
   967   0026CA  6E13               	movwf	___flmul@a^0,c
   968   0026CC  0EF5               	movlw	245
   969   0026CE  6E14               	movwf	(___flmul@a+1)^0,c
   970   0026D0  0EC8               	movlw	200
   971   0026D2  6E15               	movwf	(___flmul@a+2)^0,c
   972   0026D4  0E40               	movlw	64
   973   0026D6  6E16               	movwf	(___flmul@a+3)^0,c
   974   0026D8  51BD               	movf	main@i& (0+255),w,b
   975   0026DA  6E01               	movwf	___xxtofl@val^0,c
   976   0026DC  6A02               	clrf	(___xxtofl@val+1)^0,c
   977   0026DE  6A03               	clrf	(___xxtofl@val+2)^0,c
   978   0026E0  6A04               	clrf	(___xxtofl@val+3)^0,c
   979   0026E2  0E01               	movlw	1
   980   0026E4  EC1E  F017         	call	___xxtofl
   981   0026E8  C001  F00F         	movff	?___xxtofl,___flmul@b
   982   0026EC  C002  F010         	movff	?___xxtofl+1,___flmul@b+1
   983   0026F0  C003  F011         	movff	?___xxtofl+2,___flmul@b+2
   984   0026F4  C004  F012         	movff	?___xxtofl+3,___flmul@b+3
   985   0026F8  EC09  F00D         	call	___flmul	;wreg free
   986   0026FC  C00F  F028         	movff	?___flmul,___fldiv@b
   987   002700  C010  F029         	movff	?___flmul+1,___fldiv@b+1
   988   002704  C011  F02A         	movff	?___flmul+2,___fldiv@b+2
   989   002708  C012  F02B         	movff	?___flmul+3,___fldiv@b+3
   990   00270C  ECFF  F010         	call	___fldiv	;wreg free
   991   002710  C028  F0B4         	movff	?___fldiv,_main$2423
   992   002714  C029  F0B5         	movff	?___fldiv+1,_main$2423+1
   993   002718  C02A  F0B6         	movff	?___fldiv+2,_main$2423+2
   994   00271C  C02B  F0B7         	movff	?___fldiv+3,_main$2423+3
   995   002720                     
   996                           ;main.c: 66:                 SPI_write((255/2*sinf(2*3.14*i/255)+255/2));
   997   002720  C0B4  F09A         	movff	_main$2423,sinf@x
   998   002724  C0B5  F09B         	movff	_main$2423+1,sinf@x+1
   999   002728  C0B6  F09C         	movff	_main$2423+2,sinf@x+2
  1000   00272C  C0B7  F09D         	movff	_main$2423+3,sinf@x+3
  1001   002730  EC24  F008         	call	_sinf	;wreg free
  1002   002734  C09A  F0B8         	movff	?_sinf,_main$2424
  1003   002738  C09B  F0B9         	movff	?_sinf+1,_main$2424+1
  1004   00273C  C09C  F0BA         	movff	?_sinf+2,_main$2424+2
  1005   002740  C09D  F0BB         	movff	?_sinf+3,_main$2424+3
  1006   002744                     
  1007                           ;main.c: 66:                 SPI_write((255/2*sinf(2*3.14*i/255)+255/2));
  1008   002744  0E00               	movlw	0
  1009   002746  6E45               	movwf	___fladd@a^0,c
  1010   002748  0E00               	movlw	0
  1011   00274A  6E46               	movwf	(___fladd@a+1)^0,c
  1012   00274C  0EFE               	movlw	254
  1013   00274E  6E47               	movwf	(___fladd@a+2)^0,c
  1014   002750  0E42               	movlw	66
  1015   002752  6E48               	movwf	(___fladd@a+3)^0,c
  1016   002754  0E00               	movlw	0
  1017   002756  6E13               	movwf	___flmul@a^0,c
  1018   002758  0E00               	movlw	0
  1019   00275A  6E14               	movwf	(___flmul@a+1)^0,c
  1020   00275C  0EFE               	movlw	254
  1021   00275E  6E15               	movwf	(___flmul@a+2)^0,c
  1022   002760  0E42               	movlw	66
  1023   002762  6E16               	movwf	(___flmul@a+3)^0,c
  1024   002764  C0B8  F00F         	movff	_main$2424,___flmul@b
  1025   002768  C0B9  F010         	movff	_main$2424+1,___flmul@b+1
  1026   00276C  C0BA  F011         	movff	_main$2424+2,___flmul@b+2
  1027   002770  C0BB  F012         	movff	_main$2424+3,___flmul@b+3
  1028   002774  EC09  F00D         	call	___flmul	;wreg free
  1029   002778  C00F  F041         	movff	?___flmul,___fladd@b
  1030   00277C  C010  F042         	movff	?___flmul+1,___fladd@b+1
  1031   002780  C011  F043         	movff	?___flmul+2,___fladd@b+2
  1032   002784  C012  F044         	movff	?___flmul+3,___fladd@b+3
  1033   002788  ECA9  F00A         	call	___fladd	;wreg free
  1034   00278C  C041  F051         	movff	?___fladd,___fltol@f1
  1035   002790  C042  F052         	movff	?___fladd+1,___fltol@f1+1
  1036   002794  C043  F053         	movff	?___fladd+2,___fltol@f1+2
  1037   002798  C044  F054         	movff	?___fladd+3,___fltol@f1+3
  1038   00279C  ECF8  F017         	call	___fltol	;wreg free
  1039   0027A0  5051               	movf	?___fltol^0,w,c
  1040   0027A2  ECDE  F019         	call	_SPI_write
  1041                           
  1042                           ;main.c: 67:                 break;
  1043   0027A6  EFEA  F013         	goto	l62
  1044   0027AA                     l2986:
  1045                           
  1046                           ; BSR set to: 0
  1047                           ;main.c: 69:                 SPI_write(255 - i);
  1048   0027AA  51BD               	movf	main@i& (0+255),w,b
  1049   0027AC  0AFF               	xorlw	255
  1050   0027AE  ECDE  F019         	call	_SPI_write
  1051                           
  1052                           ;main.c: 70:                 break;
  1053   0027B2  EFEA  F013         	goto	l62
  1054   0027B6                     l2990:
  1055                           
  1056                           ; BSR set to: 0
  1057   0027B6  51BC               	movf	main@selectMode& (0+255),w,b
  1058                           
  1059                           ; Switch size 1, requested type "simple"
  1060                           ; Number of cases is 3, Range of values is 1 to 3
  1061                           ; switch strategies available:
  1062                           ; Name         Instructions Cycles
  1063                           ; simple_byte           10     6 (average)
  1064                           ;	Chosen strategy is simple_byte
  1065   0027B8  0A01               	xorlw	1	; case 1
  1066   0027BA  B4D8               	btfsc	status,2,c
  1067   0027BC  EFF8  F012         	goto	l2972
  1068   0027C0  0A03               	xorlw	3	; case 2
  1069   0027C2  B4D8               	btfsc	status,2,c
  1070   0027C4  EF5C  F013         	goto	l2980
  1071   0027C8  0A01               	xorlw	1	; case 3
  1072   0027CA  B4D8               	btfsc	status,2,c
  1073   0027CC  EFD5  F013         	goto	l2986
  1074   0027D0  EFEA  F013         	goto	l62
  1075   0027D4                     l62:
  1076                           
  1077                           ;main.c: 72:         GODONE = 1;
  1078   0027D4  82C2               	bsf	4034,1,c	;volatile
  1079   0027D6                     l65:
  1080   0027D6  B2C2               	btfsc	4034,1,c	;volatile
  1081   0027D8  EFF0  F013         	goto	u3161
  1082   0027DC  EFF2  F013         	goto	u3160
  1083   0027E0                     u3161:
  1084   0027E0  EFEB  F013         	goto	l65
  1085   0027E4                     u3160:
  1086   0027E4                     
  1087                           ;main.c: 75:         printf("%d \r", ADRESH);
  1088   0027E4  0E41               	movlw	low STR_1
  1089   0027E6  6E1C               	movwf	printf@fmt^0,c
  1090   0027E8  CFC4 F01D          	movff	4036,?_printf+1	;volatile
  1091   0027EC  6A1E               	clrf	(?_printf+2)^0,c
  1092   0027EE  EC4E  F01A         	call	_printf	;wreg free
  1093   0027F2                     
  1094                           ;main.c: 76:         if(PORTCbits.RC0){
  1095   0027F2  A082               	btfss	130,0,c	;volatile
  1096   0027F4  EFFE  F013         	goto	u3171
  1097   0027F8  EF00  F014         	goto	u3170
  1098   0027FC                     u3171:
  1099   0027FC  EF03  F014         	goto	l2998
  1100   002800                     u3170:
  1101   002800                     
  1102                           ;main.c: 77:             selectMode = 1;
  1103   002800  0E01               	movlw	1
  1104   002802  0100               	movlb	0	; () banked
  1105   002804  6FBC               	movwf	main@selectMode& (0+255),b
  1106   002806                     l2998:
  1107                           
  1108                           ;main.c: 79:         if(PORTAbits.RA4){
  1109   002806  A880               	btfss	128,4,c	;volatile
  1110   002808  EF08  F014         	goto	u3181
  1111   00280C  EF0A  F014         	goto	u3180
  1112   002810                     u3181:
  1113   002810  EF0D  F014         	goto	l3002
  1114   002814                     u3180:
  1115   002814                     
  1116                           ;main.c: 80:             selectMode = 2;
  1117   002814  0E02               	movlw	2
  1118   002816  0100               	movlb	0	; () banked
  1119   002818  6FBC               	movwf	main@selectMode& (0+255),b
  1120   00281A                     l3002:
  1121                           
  1122                           ;main.c: 82:         if(PORTAbits.RA3){
  1123   00281A  A680               	btfss	128,3,c	;volatile
  1124   00281C  EF12  F014         	goto	u3191
  1125   002820  EF14  F014         	goto	u3190
  1126   002824                     u3191:
  1127   002824  EF17  F014         	goto	l3006
  1128   002828                     u3190:
  1129   002828                     
  1130                           ;main.c: 83:             selectMode = 3;
  1131   002828  0E03               	movlw	3
  1132   00282A  0100               	movlb	0	; () banked
  1133   00282C  6FBC               	movwf	main@selectMode& (0+255),b
  1134   00282E                     l3006:
  1135                           
  1136                           ;main.c: 86:         _delay((unsigned long)((10)*(32E6/4000.0)));
  1137   00282E  0E68               	movlw	104
  1138   002830  6E5D               	movwf	??_main^0,c
  1139   002832  0EE4               	movlw	228
  1140   002834                     u3207:
  1141   002834  2EE8               	decfsz	wreg,f,c
  1142   002836  D7FE               	bra	u3207
  1143   002838  2E5D               	decfsz	??_main^0,f,c
  1144   00283A  D7FC               	bra	u3207
  1145   00283C  D000               	nop2	
  1146   00283E                     
  1147                           ;main.c: 87:         }
  1148   00283E  0100               	movlb	0	; () banked
  1149   002840  2BBD               	incf	main@i& (0+255),f,b
  1150   002842  EFDB  F013         	goto	l2990
  1151   002846  EF00  F000         	goto	start
  1152   00284A                     __end_of_main:
  1153                           	callstack 0
  1154                           
  1155 ;; *************** function _sinf *****************
  1156 ;; Defined at:
  1157 ;;		line 27 in file "C:\Program Files\Microchip\xc8\v2.46\pic\sources\c99\common\sinf.c"
  1158 ;; Parameters:    Size  Location     Type
  1159 ;;  x               4   58[BANK0 ] float 
  1160 ;; Auto vars:     Size  Location     Type
  1161 ;;  ux              4   80[BANK0 ] struct .
  1162 ;;  y               4   76[BANK0 ] struct .
  1163 ;;  sign            1   71[BANK0 ] _Bool 
  1164 ;;  n               1   70[BANK0 ] unsigned char 
  1165 ;; Return value:  Size  Location     Type
  1166 ;;                  4   58[BANK0 ] float 
  1167 ;; Registers used:
  1168 ;;		wreg, fsr2l, fsr2h, status,2, status,0, prodl, prodh, cstack
  1169 ;; Tracked objects:
  1170 ;;		On entry : 0/0
  1171 ;;		On exit  : 0/0
  1172 ;;		Unchanged: 0/0
  1173 ;; Data sizes:     COMRAM   BANK0   BANK1   BANK2   BANK3   BANK4   BANK5   BANK6   BANK7   BANK8   BANK9  BANK10  BANK1
      +1  BANK12  BANK13  BANK14  BANK15
  1174 ;;      Params:         0       4       0       0       0       0       0       0       0       0       0       0       
      +0       0       0       0       0
  1175 ;;      Locals:         0      22       0       0       0       0       0       0       0       0       0       0       
      +0       0       0       0       0
  1176 ;;      Temps:          0       0       0       0       0       0       0       0       0       0       0       0       
      +0       0       0       0       0
  1177 ;;      Totals:         0      26       0       0       0       0       0       0       0       0       0       0       
      +0       0       0       0       0
  1178 ;;Total ram usage:       26 bytes
  1179 ;; Hardware stack levels used: 1
  1180 ;; Hardware stack levels required when called: 3
  1181 ;; This function calls:
  1182 ;;		___cosdf
  1183 ;;		___fladd
  1184 ;;		___flneg
  1185 ;;		___rem_pio2f
  1186 ;;		___sindf
  1187 ;; This function is called by:
  1188 ;;		_main
  1189 ;; This function uses a non-reentrant model
  1190 ;;
  1191                           
  1192                           	psect	text1
  1193   001048                     __ptext1:
  1194                           	callstack 0
  1195   001048                     _sinf:
  1196                           	callstack 27
  1197   001048  C09A  F0B0         	movff	sinf@x,sinf@ux
  1198   00104C  C09B  F0B1         	movff	sinf@x+1,sinf@ux+1
  1199   001050  C09C  F0B2         	movff	sinf@x+2,sinf@ux+2
  1200   001054  C09D  F0B3         	movff	sinf@x+3,sinf@ux+3
  1201   001058  0100               	movlb	0	; () banked
  1202   00105A  BFB3               	btfsc	(sinf@ux+3)& (0+255),7,b
  1203   00105C  EF32  F008         	goto	u2781
  1204   001060  EF35  F008         	goto	u2780
  1205   001064                     u2781:
  1206   001064  0E01               	movlw	1
  1207   001066  EF36  F008         	goto	u2790
  1208   00106A                     u2780:
  1209   00106A  0E00               	movlw	0
  1210   00106C                     u2790:
  1211   00106C  6FA7               	movwf	sinf@sign& (0+255),b
  1212   00106E                     
  1213                           ; BSR set to: 0
  1214   00106E  9FB3               	bcf	(sinf@ux+3)& (0+255),7,b
  1215   001070                     
  1216                           ; BSR set to: 0
  1217   001070  0EDB               	movlw	219
  1218   001072  5DB0               	subwf	sinf@ux& (0+255),w,b
  1219   001074  0E0F               	movlw	15
  1220   001076  59B1               	subwfb	(sinf@ux+1)& (0+255),w,b
  1221   001078  0E49               	movlw	73
  1222   00107A  59B2               	subwfb	(sinf@ux+2)& (0+255),w,b
  1223   00107C  0E3F               	movlw	63
  1224   00107E  59B3               	subwfb	(sinf@ux+3)& (0+255),w,b
  1225   001080  B0D8               	btfsc	status,0,c
  1226   001082  EF45  F008         	goto	u2801
  1227   001086  EF47  F008         	goto	u2800
  1228   00108A                     u2801:
  1229   00108A  EF70  F008         	goto	l2714
  1230   00108E                     u2800:
  1231   00108E                     
  1232                           ; BSR set to: 0
  1233   00108E  0E80               	movlw	128
  1234   001090  5DB2               	subwf	(sinf@ux+2)& (0+255),w,b
  1235   001092  0E39               	movlw	57
  1236   001094  59B3               	subwfb	(sinf@ux+3)& (0+255),w,b
  1237   001096  B0D8               	btfsc	status,0,c
  1238   001098  EF50  F008         	goto	u2811
  1239   00109C  EF52  F008         	goto	u2810
  1240   0010A0                     u2811:
  1241   0010A0  EF5C  F008         	goto	l2710
  1242   0010A4                     u2810:
  1243   0010A4                     
  1244                           ; BSR set to: 0
  1245   0010A4  C09A  F09A         	movff	sinf@x,?_sinf
  1246   0010A8  C09B  F09B         	movff	sinf@x+1,?_sinf+1
  1247   0010AC  C09C  F09C         	movff	sinf@x+2,?_sinf+2
  1248   0010B0  C09D  F09D         	movff	sinf@x+3,?_sinf+3
  1249   0010B4  EFA8  F00A         	goto	l928
  1250   0010B8                     l2710:
  1251                           
  1252                           ; BSR set to: 0
  1253   0010B8  C09A  F051         	movff	sinf@x,___sindf@x
  1254   0010BC  C09B  F052         	movff	sinf@x+1,___sindf@x+1
  1255   0010C0  C09C  F053         	movff	sinf@x+2,___sindf@x+2
  1256   0010C4  C09D  F054         	movff	sinf@x+3,___sindf@x+3
  1257   0010C8  EC25  F014         	call	___sindf	;wreg free
  1258   0010CC  C051  F09A         	movff	?___sindf,?_sinf
  1259   0010D0  C052  F09B         	movff	?___sindf+1,?_sinf+1
  1260   0010D4  C053  F09C         	movff	?___sindf+2,?_sinf+2
  1261   0010D8  C054  F09D         	movff	?___sindf+3,?_sinf+3
  1262   0010DC  EFA8  F00A         	goto	l928
  1263   0010E0                     l2714:
  1264                           
  1265                           ; BSR set to: 0
  1266   0010E0  0ED2               	movlw	210
  1267   0010E2  5DB0               	subwf	sinf@ux& (0+255),w,b
  1268   0010E4  0E53               	movlw	83
  1269   0010E6  59B1               	subwfb	(sinf@ux+1)& (0+255),w,b
  1270   0010E8  0E7B               	movlw	123
  1271   0010EA  59B2               	subwfb	(sinf@ux+2)& (0+255),w,b
  1272   0010EC  0E40               	movlw	64
  1273   0010EE  59B3               	subwfb	(sinf@ux+3)& (0+255),w,b
  1274   0010F0  B0D8               	btfsc	status,0,c
  1275   0010F2  EF7D  F008         	goto	u2821
  1276   0010F6  EF7F  F008         	goto	u2820
  1277   0010FA                     u2821:
  1278   0010FA  EF62  F009         	goto	l2744
  1279   0010FE                     u2820:
  1280   0010FE                     
  1281                           ; BSR set to: 0
  1282   0010FE  0EE4               	movlw	228
  1283   001100  5DB0               	subwf	sinf@ux& (0+255),w,b
  1284   001102  0ECB               	movlw	203
  1285   001104  59B1               	subwfb	(sinf@ux+1)& (0+255),w,b
  1286   001106  0E16               	movlw	22
  1287   001108  59B2               	subwfb	(sinf@ux+2)& (0+255),w,b
  1288   00110A  0E40               	movlw	64
  1289   00110C  59B3               	subwfb	(sinf@ux+3)& (0+255),w,b
  1290   00110E  B0D8               	btfsc	status,0,c
  1291   001110  EF8C  F008         	goto	u2831
  1292   001114  EF8E  F008         	goto	u2830
  1293   001118                     u2831:
  1294   001118  EFFC  F008         	goto	l2734
  1295   00111C                     u2830:
  1296   00111C                     
  1297                           ; BSR set to: 0
  1298   00111C  51A7               	movf	sinf@sign& (0+255),w,b
  1299   00111E  B4D8               	btfsc	status,2,c
  1300   001120  EF94  F008         	goto	u2841
  1301   001124  EF96  F008         	goto	u2840
  1302   001128                     u2841:
  1303   001128  EFCE  F008         	goto	l2728
  1304   00112C                     u2840:
  1305   00112C                     
  1306                           ; BSR set to: 0
  1307   00112C  0EDB               	movlw	219
  1308   00112E  6E45               	movwf	___fladd@a^0,c
  1309   001130  0E0F               	movlw	15
  1310   001132  6E46               	movwf	(___fladd@a+1)^0,c
  1311   001134  0EC9               	movlw	201
  1312   001136  6E47               	movwf	(___fladd@a+2)^0,c
  1313   001138  0E3F               	movlw	63
  1314   00113A  6E48               	movwf	(___fladd@a+3)^0,c
  1315   00113C  C09A  F041         	movff	sinf@x,___fladd@b
  1316   001140  C09B  F042         	movff	sinf@x+1,___fladd@b+1
  1317   001144  C09C  F043         	movff	sinf@x+2,___fladd@b+2
  1318   001148  C09D  F044         	movff	sinf@x+3,___fladd@b+3
  1319   00114C  ECA9  F00A         	call	___fladd	;wreg free
  1320   001150  C041  F0A8         	movff	?___fladd,_sinf$2425
  1321   001154  C042  F0A9         	movff	?___fladd+1,_sinf$2425+1
  1322   001158  C043  F0AA         	movff	?___fladd+2,_sinf$2425+2
  1323   00115C  C044  F0AB         	movff	?___fladd+3,_sinf$2425+3
  1324   001160                     l2722:
  1325   001160  C0A8  F051         	movff	_sinf$2425,___cosdf@x
  1326   001164  C0A9  F052         	movff	_sinf$2425+1,___cosdf@x+1
  1327   001168  C0AA  F053         	movff	_sinf$2425+2,___cosdf@x+2
  1328   00116C  C0AB  F054         	movff	_sinf$2425+3,___cosdf@x+3
  1329   001170  EC3E  F015         	call	___cosdf	;wreg free
  1330   001174  C051  F078         	movff	?___cosdf,___flneg@f1
  1331   001178  C052  F079         	movff	?___cosdf+1,___flneg@f1+1
  1332   00117C  C053  F07A         	movff	?___cosdf+2,___flneg@f1+2
  1333   001180  C054  F07B         	movff	?___cosdf+3,___flneg@f1+3
  1334   001184  ECFD  F019         	call	___flneg	;wreg free
  1335   001188  C078  F09A         	movff	?___flneg,?_sinf
  1336   00118C  C079  F09B         	movff	?___flneg+1,?_sinf+1
  1337   001190  C07A  F09C         	movff	?___flneg+2,?_sinf+2
  1338   001194  C07B  F09D         	movff	?___flneg+3,?_sinf+3
  1339   001198  EFA8  F00A         	goto	l928
  1340   00119C                     l2728:
  1341                           
  1342                           ; BSR set to: 0
  1343   00119C  C09A  F041         	movff	sinf@x,___fladd@b
  1344   0011A0  C09B  F042         	movff	sinf@x+1,___fladd@b+1
  1345   0011A4  C09C  F043         	movff	sinf@x+2,___fladd@b+2
  1346   0011A8  C09D  F044         	movff	sinf@x+3,___fladd@b+3
  1347   0011AC  0EDB               	movlw	219
  1348   0011AE  6E45               	movwf	___fladd@a^0,c
  1349   0011B0  0E0F               	movlw	15
  1350   0011B2  6E46               	movwf	(___fladd@a+1)^0,c
  1351   0011B4  0EC9               	movlw	201
  1352   0011B6  6E47               	movwf	(___fladd@a+2)^0,c
  1353   0011B8  0EBF               	movlw	191
  1354   0011BA  6E48               	movwf	(___fladd@a+3)^0,c
  1355   0011BC  ECA9  F00A         	call	___fladd	;wreg free
  1356   0011C0  C041  F0A8         	movff	?___fladd,_sinf$2425
  1357   0011C4  C042  F0A9         	movff	?___fladd+1,_sinf$2425+1
  1358   0011C8  C043  F0AA         	movff	?___fladd+2,_sinf$2425+2
  1359   0011CC  C044  F0AB         	movff	?___fladd+3,_sinf$2425+3
  1360   0011D0                     l2730:
  1361   0011D0  C0A8  F051         	movff	_sinf$2425,___cosdf@x
  1362   0011D4  C0A9  F052         	movff	_sinf$2425+1,___cosdf@x+1
  1363   0011D8  C0AA  F053         	movff	_sinf$2425+2,___cosdf@x+2
  1364   0011DC  C0AB  F054         	movff	_sinf$2425+3,___cosdf@x+3
  1365   0011E0  EC3E  F015         	call	___cosdf	;wreg free
  1366   0011E4  C051  F09A         	movff	?___cosdf,?_sinf
  1367   0011E8  C052  F09B         	movff	?___cosdf+1,?_sinf+1
  1368   0011EC  C053  F09C         	movff	?___cosdf+2,?_sinf+2
  1369   0011F0  C054  F09D         	movff	?___cosdf+3,?_sinf+3
  1370   0011F4  EFA8  F00A         	goto	l928
  1371   0011F8                     l2734:
  1372                           
  1373                           ; BSR set to: 0
  1374   0011F8  51A7               	movf	sinf@sign& (0+255),w,b
  1375   0011FA  A4D8               	btfss	status,2,c
  1376   0011FC  EF02  F009         	goto	u2851
  1377   001200  EF04  F009         	goto	u2850
  1378   001204                     u2851:
  1379   001204  EF2A  F009         	goto	l2738
  1380   001208                     u2850:
  1381   001208                     
  1382                           ; BSR set to: 0
  1383   001208  0EDB               	movlw	219
  1384   00120A  6E45               	movwf	___fladd@a^0,c
  1385   00120C  0E0F               	movlw	15
  1386   00120E  6E46               	movwf	(___fladd@a+1)^0,c
  1387   001210  0E49               	movlw	73
  1388   001212  6E47               	movwf	(___fladd@a+2)^0,c
  1389   001214  0EC0               	movlw	192
  1390   001216  6E48               	movwf	(___fladd@a+3)^0,c
  1391   001218  C09A  F041         	movff	sinf@x,___fladd@b
  1392   00121C  C09B  F042         	movff	sinf@x+1,___fladd@b+1
  1393   001220  C09C  F043         	movff	sinf@x+2,___fladd@b+2
  1394   001224  C09D  F044         	movff	sinf@x+3,___fladd@b+3
  1395   001228  ECA9  F00A         	call	___fladd	;wreg free
  1396   00122C  C041  F078         	movff	?___fladd,___flneg@f1
  1397   001230  C042  F079         	movff	?___fladd+1,___flneg@f1+1
  1398   001234  C043  F07A         	movff	?___fladd+2,___flneg@f1+2
  1399   001238  C044  F07B         	movff	?___fladd+3,___flneg@f1+3
  1400   00123C  ECFD  F019         	call	___flneg	;wreg free
  1401   001240  C078  F09E         	movff	?___flneg,_sinf$2177
  1402   001244  C079  F09F         	movff	?___flneg+1,_sinf$2177+1
  1403   001248  C07A  F0A0         	movff	?___flneg+2,_sinf$2177+2
  1404   00124C  C07B  F0A1         	movff	?___flneg+3,_sinf$2177+3
  1405   001250  EF4E  F009         	goto	l2740
  1406   001254                     l2738:
  1407                           
  1408                           ; BSR set to: 0
  1409   001254  0EDB               	movlw	219
  1410   001256  6E45               	movwf	___fladd@a^0,c
  1411   001258  0E0F               	movlw	15
  1412   00125A  6E46               	movwf	(___fladd@a+1)^0,c
  1413   00125C  0E49               	movlw	73
  1414   00125E  6E47               	movwf	(___fladd@a+2)^0,c
  1415   001260  0E40               	movlw	64
  1416   001262  6E48               	movwf	(___fladd@a+3)^0,c
  1417   001264  C09A  F041         	movff	sinf@x,___fladd@b
  1418   001268  C09B  F042         	movff	sinf@x+1,___fladd@b+1
  1419   00126C  C09C  F043         	movff	sinf@x+2,___fladd@b+2
  1420   001270  C09D  F044         	movff	sinf@x+3,___fladd@b+3
  1421   001274  ECA9  F00A         	call	___fladd	;wreg free
  1422   001278  C041  F078         	movff	?___fladd,___flneg@f1
  1423   00127C  C042  F079         	movff	?___fladd+1,___flneg@f1+1
  1424   001280  C043  F07A         	movff	?___fladd+2,___flneg@f1+2
  1425   001284  C044  F07B         	movff	?___fladd+3,___flneg@f1+3
  1426   001288  ECFD  F019         	call	___flneg	;wreg free
  1427   00128C  C078  F09E         	movff	?___flneg,_sinf$2177
  1428   001290  C079  F09F         	movff	?___flneg+1,_sinf$2177+1
  1429   001294  C07A  F0A0         	movff	?___flneg+2,_sinf$2177+2
  1430   001298  C07B  F0A1         	movff	?___flneg+3,_sinf$2177+3
  1431   00129C                     l2740:
  1432   00129C  C09E  F051         	movff	_sinf$2177,___sindf@x
  1433   0012A0  C09F  F052         	movff	_sinf$2177+1,___sindf@x+1
  1434   0012A4  C0A0  F053         	movff	_sinf$2177+2,___sindf@x+2
  1435   0012A8  C0A1  F054         	movff	_sinf$2177+3,___sindf@x+3
  1436   0012AC  EC25  F014         	call	___sindf	;wreg free
  1437   0012B0  C051  F09A         	movff	?___sindf,?_sinf
  1438   0012B4  C052  F09B         	movff	?___sindf+1,?_sinf+1
  1439   0012B8  C053  F09C         	movff	?___sindf+2,?_sinf+2
  1440   0012BC  C054  F09D         	movff	?___sindf+3,?_sinf+3
  1441   0012C0  EFA8  F00A         	goto	l928
  1442   0012C4                     l2744:
  1443                           
  1444                           ; BSR set to: 0
  1445   0012C4  0ED6               	movlw	214
  1446   0012C6  5DB0               	subwf	sinf@ux& (0+255),w,b
  1447   0012C8  0E31               	movlw	49
  1448   0012CA  59B1               	subwfb	(sinf@ux+1)& (0+255),w,b
  1449   0012CC  0EE2               	movlw	226
  1450   0012CE  59B2               	subwfb	(sinf@ux+2)& (0+255),w,b
  1451   0012D0  0E40               	movlw	64
  1452   0012D2  59B3               	subwfb	(sinf@ux+3)& (0+255),w,b
  1453   0012D4  B0D8               	btfsc	status,0,c
  1454   0012D6  EF6F  F009         	goto	u2861
  1455   0012DA  EF71  F009         	goto	u2860
  1456   0012DE                     u2861:
  1457   0012DE  EF12  F00A         	goto	l2774
  1458   0012E2                     u2860:
  1459   0012E2                     
  1460                           ; BSR set to: 0
  1461   0012E2  0EE0               	movlw	224
  1462   0012E4  5DB0               	subwf	sinf@ux& (0+255),w,b
  1463   0012E6  0EED               	movlw	237
  1464   0012E8  59B1               	subwfb	(sinf@ux+1)& (0+255),w,b
  1465   0012EA  0EAF               	movlw	175
  1466   0012EC  59B2               	subwfb	(sinf@ux+2)& (0+255),w,b
  1467   0012EE  0E40               	movlw	64
  1468   0012F0  59B3               	subwfb	(sinf@ux+3)& (0+255),w,b
  1469   0012F2  B0D8               	btfsc	status,0,c
  1470   0012F4  EF7E  F009         	goto	u2871
  1471   0012F8  EF80  F009         	goto	u2870
  1472   0012FC                     u2871:
  1473   0012FC  EFC0  F009         	goto	l2764
  1474   001300                     u2870:
  1475   001300                     
  1476                           ; BSR set to: 0
  1477   001300  51A7               	movf	sinf@sign& (0+255),w,b
  1478   001302  B4D8               	btfsc	status,2,c
  1479   001304  EF86  F009         	goto	u2881
  1480   001308  EF88  F009         	goto	u2880
  1481   00130C                     u2881:
  1482   00130C  EFA4  F009         	goto	l2758
  1483   001310                     u2880:
  1484   001310                     
  1485                           ; BSR set to: 0
  1486   001310  C09A  F041         	movff	sinf@x,___fladd@b
  1487   001314  C09B  F042         	movff	sinf@x+1,___fladd@b+1
  1488   001318  C09C  F043         	movff	sinf@x+2,___fladd@b+2
  1489   00131C  C09D  F044         	movff	sinf@x+3,___fladd@b+3
  1490   001320  0EE4               	movlw	228
  1491   001322  6E45               	movwf	___fladd@a^0,c
  1492   001324  0ECB               	movlw	203
  1493   001326  6E46               	movwf	(___fladd@a+1)^0,c
  1494   001328  0E96               	movlw	150
  1495   00132A  6E47               	movwf	(___fladd@a+2)^0,c
  1496   00132C  0E40               	movlw	64
  1497   00132E  6E48               	movwf	(___fladd@a+3)^0,c
  1498   001330  ECA9  F00A         	call	___fladd	;wreg free
  1499   001334  C041  F0A8         	movff	?___fladd,_sinf$2425
  1500   001338  C042  F0A9         	movff	?___fladd+1,_sinf$2425+1
  1501   00133C  C043  F0AA         	movff	?___fladd+2,_sinf$2425+2
  1502   001340  C044  F0AB         	movff	?___fladd+3,_sinf$2425+3
  1503   001344  EFE8  F008         	goto	l2730
  1504   001348                     l2758:
  1505                           
  1506                           ; BSR set to: 0
  1507   001348  0EE4               	movlw	228
  1508   00134A  6E45               	movwf	___fladd@a^0,c
  1509   00134C  0ECB               	movlw	203
  1510   00134E  6E46               	movwf	(___fladd@a+1)^0,c
  1511   001350  0E96               	movlw	150
  1512   001352  6E47               	movwf	(___fladd@a+2)^0,c
  1513   001354  0EC0               	movlw	192
  1514   001356  6E48               	movwf	(___fladd@a+3)^0,c
  1515   001358  C09A  F041         	movff	sinf@x,___fladd@b
  1516   00135C  C09B  F042         	movff	sinf@x+1,___fladd@b+1
  1517   001360  C09C  F043         	movff	sinf@x+2,___fladd@b+2
  1518   001364  C09D  F044         	movff	sinf@x+3,___fladd@b+3
  1519   001368  ECA9  F00A         	call	___fladd	;wreg free
  1520   00136C  C041  F0A8         	movff	?___fladd,_sinf$2425
  1521   001370  C042  F0A9         	movff	?___fladd+1,_sinf$2425+1
  1522   001374  C043  F0AA         	movff	?___fladd+2,_sinf$2425+2
  1523   001378  C044  F0AB         	movff	?___fladd+3,_sinf$2425+3
  1524   00137C  EFB0  F008         	goto	l2722
  1525   001380                     l2764:
  1526                           
  1527                           ; BSR set to: 0
  1528   001380  51A7               	movf	sinf@sign& (0+255),w,b
  1529   001382  A4D8               	btfss	status,2,c
  1530   001384  EFC6  F009         	goto	u2891
  1531   001388  EFC8  F009         	goto	u2890
  1532   00138C                     u2891:
  1533   00138C  EFE4  F009         	goto	l2768
  1534   001390                     u2890:
  1535   001390                     
  1536                           ; BSR set to: 0
  1537   001390  C09A  F041         	movff	sinf@x,___fladd@b
  1538   001394  C09B  F042         	movff	sinf@x+1,___fladd@b+1
  1539   001398  C09C  F043         	movff	sinf@x+2,___fladd@b+2
  1540   00139C  C09D  F044         	movff	sinf@x+3,___fladd@b+3
  1541   0013A0  0EDB               	movlw	219
  1542   0013A2  6E45               	movwf	___fladd@a^0,c
  1543   0013A4  0E0F               	movlw	15
  1544   0013A6  6E46               	movwf	(___fladd@a+1)^0,c
  1545   0013A8  0EC9               	movlw	201
  1546   0013AA  6E47               	movwf	(___fladd@a+2)^0,c
  1547   0013AC  0EC0               	movlw	192
  1548   0013AE  6E48               	movwf	(___fladd@a+3)^0,c
  1549   0013B0  ECA9  F00A         	call	___fladd	;wreg free
  1550   0013B4  C041  F0A2         	movff	?___fladd,_sinf$2178
  1551   0013B8  C042  F0A3         	movff	?___fladd+1,_sinf$2178+1
  1552   0013BC  C043  F0A4         	movff	?___fladd+2,_sinf$2178+2
  1553   0013C0  C044  F0A5         	movff	?___fladd+3,_sinf$2178+3
  1554   0013C4  EFFE  F009         	goto	l2770
  1555   0013C8                     l2768:
  1556                           
  1557                           ; BSR set to: 0
  1558   0013C8  C09A  F041         	movff	sinf@x,___fladd@b
  1559   0013CC  C09B  F042         	movff	sinf@x+1,___fladd@b+1
  1560   0013D0  C09C  F043         	movff	sinf@x+2,___fladd@b+2
  1561   0013D4  C09D  F044         	movff	sinf@x+3,___fladd@b+3
  1562   0013D8  0EDB               	movlw	219
  1563   0013DA  6E45               	movwf	___fladd@a^0,c
  1564   0013DC  0E0F               	movlw	15
  1565   0013DE  6E46               	movwf	(___fladd@a+1)^0,c
  1566   0013E0  0EC9               	movlw	201
  1567   0013E2  6E47               	movwf	(___fladd@a+2)^0,c
  1568   0013E4  0E40               	movlw	64
  1569   0013E6  6E48               	movwf	(___fladd@a+3)^0,c
  1570   0013E8  ECA9  F00A         	call	___fladd	;wreg free
  1571   0013EC  C041  F0A2         	movff	?___fladd,_sinf$2178
  1572   0013F0  C042  F0A3         	movff	?___fladd+1,_sinf$2178+1
  1573   0013F4  C043  F0A4         	movff	?___fladd+2,_sinf$2178+2
  1574   0013F8  C044  F0A5         	movff	?___fladd+3,_sinf$2178+3
  1575   0013FC                     l2770:
  1576   0013FC  C0A2  F051         	movff	_sinf$2178,___sindf@x
  1577   001400  C0A3  F052         	movff	_sinf$2178+1,___sindf@x+1
  1578   001404  C0A4  F053         	movff	_sinf$2178+2,___sindf@x+2
  1579   001408  C0A5  F054         	movff	_sinf$2178+3,___sindf@x+3
  1580   00140C  EC25  F014         	call	___sindf	;wreg free
  1581   001410  C051  F09A         	movff	?___sindf,?_sinf
  1582   001414  C052  F09B         	movff	?___sindf+1,?_sinf+1
  1583   001418  C053  F09C         	movff	?___sindf+2,?_sinf+2
  1584   00141C  C054  F09D         	movff	?___sindf+3,?_sinf+3
  1585   001420  EFA8  F00A         	goto	l928
  1586   001424                     l2774:
  1587                           
  1588                           ; BSR set to: 0
  1589   001424  0E80               	movlw	128
  1590   001426  5DB2               	subwf	(sinf@ux+2)& (0+255),w,b
  1591   001428  0E7F               	movlw	127
  1592   00142A  59B3               	subwfb	(sinf@ux+3)& (0+255),w,b
  1593   00142C  A0D8               	btfss	status,0,c
  1594   00142E  EF1B  F00A         	goto	u2901
  1595   001432  EF1D  F00A         	goto	u2900
  1596   001436                     u2901:
  1597   001436  EF2F  F00A         	goto	l2782
  1598   00143A                     u2900:
  1599   00143A                     
  1600                           ; BSR set to: 0
  1601   00143A  0EFF               	movlw	255
  1602   00143C  13B0               	iorwf	sinf@ux& (0+255),f,b
  1603   00143E  0EFF               	movlw	255
  1604   001440  13B1               	iorwf	(sinf@ux+1)& (0+255),f,b
  1605   001442  0EFF               	movlw	255
  1606   001444  13B2               	iorwf	(sinf@ux+2)& (0+255),f,b
  1607   001446  0E00               	movlw	0
  1608   001448  13B3               	iorwf	(sinf@ux+3)& (0+255),f,b
  1609   00144A                     
  1610                           ; BSR set to: 0
  1611   00144A  C0B0  F09A         	movff	sinf@ux,?_sinf
  1612   00144E  C0B1  F09B         	movff	sinf@ux+1,?_sinf+1
  1613   001452  C0B2  F09C         	movff	sinf@ux+2,?_sinf+2
  1614   001456  C0B3  F09D         	movff	sinf@ux+3,?_sinf+3
  1615   00145A  EFA8  F00A         	goto	l928
  1616   00145E                     l2782:
  1617                           
  1618                           ; BSR set to: 0
  1619   00145E  C09A  F07C         	movff	sinf@x,___rem_pio2f@x
  1620   001462  C09B  F07D         	movff	sinf@x+1,___rem_pio2f@x+1
  1621   001466  C09C  F07E         	movff	sinf@x+2,___rem_pio2f@x+2
  1622   00146A  C09D  F07F         	movff	sinf@x+3,___rem_pio2f@x+3
  1623   00146E  0EAC               	movlw	low sinf@y
  1624   001470  6F80               	movwf	___rem_pio2f@y& (0+255),b
  1625   001472  EC1E  F00F         	call	___rem_pio2f	;wreg free
  1626   001476  0100               	movlb	0	; () banked
  1627   001478  517C               	movf	?___rem_pio2f& (0+255),w,b
  1628   00147A  0B03               	andlw	3
  1629   00147C  6FA6               	movwf	sinf@n& (0+255),b
  1630   00147E  EF99  F00A         	goto	l2800
  1631   001482                     l2784:
  1632                           
  1633                           ; BSR set to: 0
  1634   001482  C0AC  F078         	movff	sinf@y,___flneg@f1
  1635   001486  C0AD  F079         	movff	sinf@y+1,___flneg@f1+1
  1636   00148A  C0AE  F07A         	movff	sinf@y+2,___flneg@f1+2
  1637   00148E  C0AF  F07B         	movff	sinf@y+3,___flneg@f1+3
  1638   001492  ECFD  F019         	call	___flneg	;wreg free
  1639   001496  C078  F0AC         	movff	?___flneg,sinf@y
  1640   00149A  C079  F0AD         	movff	?___flneg+1,sinf@y+1
  1641   00149E  C07A  F0AE         	movff	?___flneg+2,sinf@y+2
  1642   0014A2  C07B  F0AF         	movff	?___flneg+3,sinf@y+3
  1643   0014A6                     l2786:
  1644   0014A6  C0AC  F051         	movff	sinf@y,___sindf@x
  1645   0014AA  C0AD  F052         	movff	sinf@y+1,___sindf@x+1
  1646   0014AE  C0AE  F053         	movff	sinf@y+2,___sindf@x+2
  1647   0014B2  C0AF  F054         	movff	sinf@y+3,___sindf@x+3
  1648   0014B6  EC25  F014         	call	___sindf	;wreg free
  1649   0014BA  C051  F09A         	movff	?___sindf,?_sinf
  1650   0014BE  C052  F09B         	movff	?___sindf+1,?_sinf+1
  1651   0014C2  C053  F09C         	movff	?___sindf+2,?_sinf+2
  1652   0014C6  C054  F09D         	movff	?___sindf+3,?_sinf+3
  1653   0014CA  EFA8  F00A         	goto	l928
  1654   0014CE                     l2790:
  1655                           
  1656                           ; BSR set to: 0
  1657   0014CE  C0AC  F051         	movff	sinf@y,___cosdf@x
  1658   0014D2  C0AD  F052         	movff	sinf@y+1,___cosdf@x+1
  1659   0014D6  C0AE  F053         	movff	sinf@y+2,___cosdf@x+2
  1660   0014DA  C0AF  F054         	movff	sinf@y+3,___cosdf@x+3
  1661   0014DE  EC3E  F015         	call	___cosdf	;wreg free
  1662   0014E2  C051  F09A         	movff	?___cosdf,?_sinf
  1663   0014E6  C052  F09B         	movff	?___cosdf+1,?_sinf+1
  1664   0014EA  C053  F09C         	movff	?___cosdf+2,?_sinf+2
  1665   0014EE  C054  F09D         	movff	?___cosdf+3,?_sinf+3
  1666   0014F2  EFA8  F00A         	goto	l928
  1667   0014F6                     l2794:
  1668                           
  1669                           ; BSR set to: 0
  1670   0014F6  C0AC  F051         	movff	sinf@y,___cosdf@x
  1671   0014FA  C0AD  F052         	movff	sinf@y+1,___cosdf@x+1
  1672   0014FE  C0AE  F053         	movff	sinf@y+2,___cosdf@x+2
  1673   001502  C0AF  F054         	movff	sinf@y+3,___cosdf@x+3
  1674   001506  EC3E  F015         	call	___cosdf	;wreg free
  1675   00150A  C051  F078         	movff	?___cosdf,___flneg@f1
  1676   00150E  C052  F079         	movff	?___cosdf+1,___flneg@f1+1
  1677   001512  C053  F07A         	movff	?___cosdf+2,___flneg@f1+2
  1678   001516  C054  F07B         	movff	?___cosdf+3,___flneg@f1+3
  1679   00151A  ECFD  F019         	call	___flneg	;wreg free
  1680   00151E  C078  F09A         	movff	?___flneg,?_sinf
  1681   001522  C079  F09B         	movff	?___flneg+1,?_sinf+1
  1682   001526  C07A  F09C         	movff	?___flneg+2,?_sinf+2
  1683   00152A  C07B  F09D         	movff	?___flneg+3,?_sinf+3
  1684   00152E  EFA8  F00A         	goto	l928
  1685   001532                     l2800:
  1686                           
  1687                           ; BSR set to: 0
  1688   001532  51A6               	movf	sinf@n& (0+255),w,b
  1689                           
  1690                           ; Switch size 1, requested type "simple"
  1691                           ; Number of cases is 3, Range of values is 0 to 2
  1692                           ; switch strategies available:
  1693                           ; Name         Instructions Cycles
  1694                           ; simple_byte           10     6 (average)
  1695                           ;	Chosen strategy is simple_byte
  1696   001534  0A00               	xorlw	0	; case 0
  1697   001536  B4D8               	btfsc	status,2,c
  1698   001538  EF53  F00A         	goto	l2786
  1699   00153C  0A01               	xorlw	1	; case 1
  1700   00153E  B4D8               	btfsc	status,2,c
  1701   001540  EF67  F00A         	goto	l2790
  1702   001544  0A03               	xorlw	3	; case 2
  1703   001546  B4D8               	btfsc	status,2,c
  1704   001548  EF41  F00A         	goto	l2784
  1705   00154C  EF7B  F00A         	goto	l2794
  1706   001550                     l928:
  1707   001550  0012               	return		;funcret
  1708   001552                     __end_of_sinf:
  1709                           	callstack 0
  1710                           
  1711 ;; *************** function ___sindf *****************
  1712 ;; Defined at:
  1713 ;;		line 26 in file "C:\Program Files\Microchip\xc8\v2.46\pic\sources\c99\common\__sindf.c"
  1714 ;; Parameters:    Size  Location     Type
  1715 ;;  x               4   80[COMRAM] float 
  1716 ;; Auto vars:     Size  Location     Type
  1717 ;;  z               4   24[BANK0 ] float 
  1718 ;;  s               4   20[BANK0 ] float 
  1719 ;;  w               4    4[BANK0 ] float 
  1720 ;;  r               4    0[BANK0 ] float 
  1721 ;; Return value:  Size  Location     Type
  1722 ;;                  4   80[COMRAM] float 
  1723 ;; Registers used:
  1724 ;;		wreg, status,2, status,0, prodl, prodh, cstack
  1725 ;; Tracked objects:
  1726 ;;		On entry : 0/0
  1727 ;;		On exit  : 0/0
  1728 ;;		Unchanged: 0/0
  1729 ;; Data sizes:     COMRAM   BANK0   BANK1   BANK2   BANK3   BANK4   BANK5   BANK6   BANK7   BANK8   BANK9  BANK10  BANK1
      +1  BANK12  BANK13  BANK14  BANK15
  1730 ;;      Params:         4       0       0       0       0       0       0       0       0       0       0       0       
      +0       0       0       0       0
  1731 ;;      Locals:         0      28       0       0       0       0       0       0       0       0       0       0       
      +0       0       0       0       0
  1732 ;;      Temps:          0       0       0       0       0       0       0       0       0       0       0       0       
      +0       0       0       0       0
  1733 ;;      Totals:         4      28       0       0       0       0       0       0       0       0       0       0       
      +0       0       0       0       0
  1734 ;;Total ram usage:       32 bytes
  1735 ;; Hardware stack levels used: 1
  1736 ;; Hardware stack levels required when called: 1
  1737 ;; This function calls:
  1738 ;;		___fladd
  1739 ;;		___flmul
  1740 ;; This function is called by:
  1741 ;;		_sinf
  1742 ;; This function uses a non-reentrant model
  1743 ;;
  1744                           
  1745                           	psect	text2
  1746   00284A                     __ptext2:
  1747                           	callstack 0
  1748   00284A                     ___sindf:
  1749                           	callstack 28
  1750   00284A  C051  F00F         	movff	___sindf@x,___flmul@b
  1751   00284E  C052  F010         	movff	___sindf@x+1,___flmul@b+1
  1752   002852  C053  F011         	movff	___sindf@x+2,___flmul@b+2
  1753   002856  C054  F012         	movff	___sindf@x+3,___flmul@b+3
  1754   00285A  C051  F013         	movff	___sindf@x,___flmul@a
  1755   00285E  C052  F014         	movff	___sindf@x+1,___flmul@a+1
  1756   002862  C053  F015         	movff	___sindf@x+2,___flmul@a+2
  1757   002866  C054  F016         	movff	___sindf@x+3,___flmul@a+3
  1758   00286A  EC09  F00D         	call	___flmul	;wreg free
  1759   00286E  C00F  F078         	movff	?___flmul,___sindf@z
  1760   002872  C010  F079         	movff	?___flmul+1,___sindf@z+1
  1761   002876  C011  F07A         	movff	?___flmul+2,___sindf@z+2
  1762   00287A  C012  F07B         	movff	?___flmul+3,___sindf@z+3
  1763   00287E  C078  F00F         	movff	___sindf@z,___flmul@b
  1764   002882  C079  F010         	movff	___sindf@z+1,___flmul@b+1
  1765   002886  C07A  F011         	movff	___sindf@z+2,___flmul@b+2
  1766   00288A  C07B  F012         	movff	___sindf@z+3,___flmul@b+3
  1767   00288E  C078  F013         	movff	___sindf@z,___flmul@a
  1768   002892  C079  F014         	movff	___sindf@z+1,___flmul@a+1
  1769   002896  C07A  F015         	movff	___sindf@z+2,___flmul@a+2
  1770   00289A  C07B  F016         	movff	___sindf@z+3,___flmul@a+3
  1771   00289E  EC09  F00D         	call	___flmul	;wreg free
  1772   0028A2  C00F  F064         	movff	?___flmul,___sindf@w
  1773   0028A6  C010  F065         	movff	?___flmul+1,___sindf@w+1
  1774   0028AA  C011  F066         	movff	?___flmul+2,___sindf@w+2
  1775   0028AE  C012  F067         	movff	?___flmul+3,___sindf@w+3
  1776   0028B2  0E3C               	movlw	60
  1777   0028B4  6E13               	movwf	___flmul@a^0,c
  1778   0028B6  0E6C               	movlw	108
  1779   0028B8  6E14               	movwf	(___flmul@a+1)^0,c
  1780   0028BA  0E36               	movlw	54
  1781   0028BC  6E15               	movwf	(___flmul@a+2)^0,c
  1782   0028BE  0E36               	movlw	54
  1783   0028C0  6E16               	movwf	(___flmul@a+3)^0,c
  1784   0028C2  C078  F00F         	movff	___sindf@z,___flmul@b
  1785   0028C6  C079  F010         	movff	___sindf@z+1,___flmul@b+1
  1786   0028CA  C07A  F011         	movff	___sindf@z+2,___flmul@b+2
  1787   0028CE  C07B  F012         	movff	___sindf@z+3,___flmul@b+3
  1788   0028D2  EC09  F00D         	call	___flmul	;wreg free
  1789   0028D6  C00F  F041         	movff	?___flmul,___fladd@b
  1790   0028DA  C010  F042         	movff	?___flmul+1,___fladd@b+1
  1791   0028DE  C011  F043         	movff	?___flmul+2,___fladd@b+2
  1792   0028E2  C012  F044         	movff	?___flmul+3,___fladd@b+3
  1793   0028E6  0ECF               	movlw	207
  1794   0028E8  6E45               	movwf	___fladd@a^0,c
  1795   0028EA  0E07               	movlw	7
  1796   0028EC  6E46               	movwf	(___fladd@a+1)^0,c
  1797   0028EE  0E50               	movlw	80
  1798   0028F0  6E47               	movwf	(___fladd@a+2)^0,c
  1799   0028F2  0EB9               	movlw	185
  1800   0028F4  6E48               	movwf	(___fladd@a+3)^0,c
  1801   0028F6  ECA9  F00A         	call	___fladd	;wreg free
  1802   0028FA  C041  F060         	movff	?___fladd,___sindf@r
  1803   0028FE  C042  F061         	movff	?___fladd+1,___sindf@r+1
  1804   002902  C043  F062         	movff	?___fladd+2,___sindf@r+2
  1805   002906  C044  F063         	movff	?___fladd+3,___sindf@r+3
  1806   00290A  C078  F00F         	movff	___sindf@z,___flmul@b
  1807   00290E  C079  F010         	movff	___sindf@z+1,___flmul@b+1
  1808   002912  C07A  F011         	movff	___sindf@z+2,___flmul@b+2
  1809   002916  C07B  F012         	movff	___sindf@z+3,___flmul@b+3
  1810   00291A  C051  F013         	movff	___sindf@x,___flmul@a
  1811   00291E  C052  F014         	movff	___sindf@x+1,___flmul@a+1
  1812   002922  C053  F015         	movff	___sindf@x+2,___flmul@a+2
  1813   002926  C054  F016         	movff	___sindf@x+3,___flmul@a+3
  1814   00292A  EC09  F00D         	call	___flmul	;wreg free
  1815   00292E  C00F  F074         	movff	?___flmul,___sindf@s
  1816   002932  C010  F075         	movff	?___flmul+1,___sindf@s+1
  1817   002936  C011  F076         	movff	?___flmul+2,___sindf@s+2
  1818   00293A  C012  F077         	movff	?___flmul+3,___sindf@s+3
  1819   00293E  0EAB               	movlw	171
  1820   002940  6E45               	movwf	___fladd@a^0,c
  1821   002942  0EAA               	movlw	170
  1822   002944  6E46               	movwf	(___fladd@a+1)^0,c
  1823   002946  0E2A               	movlw	42
  1824   002948  6E47               	movwf	(___fladd@a+2)^0,c
  1825   00294A  0EBE               	movlw	190
  1826   00294C  6E48               	movwf	(___fladd@a+3)^0,c
  1827   00294E  0E84               	movlw	132
  1828   002950  6E13               	movwf	___flmul@a^0,c
  1829   002952  0E88               	movlw	136
  1830   002954  6E14               	movwf	(___flmul@a+1)^0,c
  1831   002956  0E08               	movlw	8
  1832   002958  6E15               	movwf	(___flmul@a+2)^0,c
  1833   00295A  0E3C               	movlw	60
  1834   00295C  6E16               	movwf	(___flmul@a+3)^0,c
  1835   00295E  C078  F00F         	movff	___sindf@z,___flmul@b
  1836   002962  C079  F010         	movff	___sindf@z+1,___flmul@b+1
  1837   002966  C07A  F011         	movff	___sindf@z+2,___flmul@b+2
  1838   00296A  C07B  F012         	movff	___sindf@z+3,___flmul@b+3
  1839   00296E  EC09  F00D         	call	___flmul	;wreg free
  1840   002972  C00F  F041         	movff	?___flmul,___fladd@b
  1841   002976  C010  F042         	movff	?___flmul+1,___fladd@b+1
  1842   00297A  C011  F043         	movff	?___flmul+2,___fladd@b+2
  1843   00297E  C012  F044         	movff	?___flmul+3,___fladd@b+3
  1844   002982  ECA9  F00A         	call	___fladd	;wreg free
  1845   002986  C041  F068         	movff	?___fladd,___sindf$2430
  1846   00298A  C042  F069         	movff	?___fladd+1,___sindf$2430+1
  1847   00298E  C043  F06A         	movff	?___fladd+2,___sindf$2430+2
  1848   002992  C044  F06B         	movff	?___fladd+3,___sindf$2430+3
  1849   002996  C064  F013         	movff	___sindf@w,___flmul@a
  1850   00299A  C065  F014         	movff	___sindf@w+1,___flmul@a+1
  1851   00299E  C066  F015         	movff	___sindf@w+2,___flmul@a+2
  1852   0029A2  C067  F016         	movff	___sindf@w+3,___flmul@a+3
  1853   0029A6  C074  F00F         	movff	___sindf@s,___flmul@b
  1854   0029AA  C075  F010         	movff	___sindf@s+1,___flmul@b+1
  1855   0029AE  C076  F011         	movff	___sindf@s+2,___flmul@b+2
  1856   0029B2  C077  F012         	movff	___sindf@s+3,___flmul@b+3
  1857   0029B6  EC09  F00D         	call	___flmul	;wreg free
  1858   0029BA  C00F  F06C         	movff	?___flmul,___sindf$2431
  1859   0029BE  C010  F06D         	movff	?___flmul+1,___sindf$2431+1
  1860   0029C2  C011  F06E         	movff	?___flmul+2,___sindf$2431+2
  1861   0029C6  C012  F06F         	movff	?___flmul+3,___sindf$2431+3
  1862   0029CA  C051  F045         	movff	___sindf@x,___fladd@a
  1863   0029CE  C052  F046         	movff	___sindf@x+1,___fladd@a+1
  1864   0029D2  C053  F047         	movff	___sindf@x+2,___fladd@a+2
  1865   0029D6  C054  F048         	movff	___sindf@x+3,___fladd@a+3
  1866   0029DA  C074  F013         	movff	___sindf@s,___flmul@a
  1867   0029DE  C075  F014         	movff	___sindf@s+1,___flmul@a+1
  1868   0029E2  C076  F015         	movff	___sindf@s+2,___flmul@a+2
  1869   0029E6  C077  F016         	movff	___sindf@s+3,___flmul@a+3
  1870   0029EA  C068  F00F         	movff	___sindf$2430,___flmul@b
  1871   0029EE  C069  F010         	movff	___sindf$2430+1,___flmul@b+1
  1872   0029F2  C06A  F011         	movff	___sindf$2430+2,___flmul@b+2
  1873   0029F6  C06B  F012         	movff	___sindf$2430+3,___flmul@b+3
  1874   0029FA  EC09  F00D         	call	___flmul	;wreg free
  1875   0029FE  C00F  F041         	movff	?___flmul,___fladd@b
  1876   002A02  C010  F042         	movff	?___flmul+1,___fladd@b+1
  1877   002A06  C011  F043         	movff	?___flmul+2,___fladd@b+2
  1878   002A0A  C012  F044         	movff	?___flmul+3,___fladd@b+3
  1879   002A0E  ECA9  F00A         	call	___fladd	;wreg free
  1880   002A12  C041  F070         	movff	?___fladd,___sindf$2432
  1881   002A16  C042  F071         	movff	?___fladd+1,___sindf$2432+1
  1882   002A1A  C043  F072         	movff	?___fladd+2,___sindf$2432+2
  1883   002A1E  C044  F073         	movff	?___fladd+3,___sindf$2432+3
  1884   002A22  C070  F041         	movff	___sindf$2432,___fladd@b
  1885   002A26  C071  F042         	movff	___sindf$2432+1,___fladd@b+1
  1886   002A2A  C072  F043         	movff	___sindf$2432+2,___fladd@b+2
  1887   002A2E  C073  F044         	movff	___sindf$2432+3,___fladd@b+3
  1888   002A32  C060  F013         	movff	___sindf@r,___flmul@a
  1889   002A36  C061  F014         	movff	___sindf@r+1,___flmul@a+1
  1890   002A3A  C062  F015         	movff	___sindf@r+2,___flmul@a+2
  1891   002A3E  C063  F016         	movff	___sindf@r+3,___flmul@a+3
  1892   002A42  C06C  F00F         	movff	___sindf$2431,___flmul@b
  1893   002A46  C06D  F010         	movff	___sindf$2431+1,___flmul@b+1
  1894   002A4A  C06E  F011         	movff	___sindf$2431+2,___flmul@b+2
  1895   002A4E  C06F  F012         	movff	___sindf$2431+3,___flmul@b+3
  1896   002A52  EC09  F00D         	call	___flmul	;wreg free
  1897   002A56  C00F  F045         	movff	?___flmul,___fladd@a
  1898   002A5A  C010  F046         	movff	?___flmul+1,___fladd@a+1
  1899   002A5E  C011  F047         	movff	?___flmul+2,___fladd@a+2
  1900   002A62  C012  F048         	movff	?___flmul+3,___fladd@a+3
  1901   002A66  ECA9  F00A         	call	___fladd	;wreg free
  1902   002A6A  C041  F051         	movff	?___fladd,?___sindf
  1903   002A6E  C042  F052         	movff	?___fladd+1,?___sindf+1
  1904   002A72  C043  F053         	movff	?___fladd+2,?___sindf+2
  1905   002A76  C044  F054         	movff	?___fladd+3,?___sindf+3
  1906   002A7A  0012               	return		;funcret
  1907   002A7C                     __end_of___sindf:
  1908                           	callstack 0
  1909                           
  1910 ;; *************** function ___rem_pio2f *****************
  1911 ;; Defined at:
  1912 ;;		line 44 in file "C:\Program Files\Microchip\xc8\v2.46\pic\sources\c99\common\__rem_pio2f.c"
  1913 ;; Parameters:    Size  Location     Type
  1914 ;;  x               4   28[BANK0 ] float 
  1915 ;;  y               1   32[BANK0 ] PTR 
  1916 ;;		 -> sinf@y(4), 
  1917 ;; Auto vars:     Size  Location     Type
  1918 ;;  n               4   54[BANK0 ] long 
  1919 ;;  t               4   50[BANK0 ] float 
  1920 ;;  fn              4   46[BANK0 ] float 
  1921 ;;  ux              4   42[BANK0 ] struct .
  1922 ;;  ty              4   33[BANK0 ] [1]
  1923 ;;  sign            1   41[BANK0 ] _Bool 
  1924 ;; Return value:  Size  Location     Type
  1925 ;;                  2   28[BANK0 ] int 
  1926 ;; Registers used:
  1927 ;;		wreg, fsr2l, fsr2h, status,2, status,0, prodl, prodh, cstack
  1928 ;; Tracked objects:
  1929 ;;		On entry : 0/0
  1930 ;;		On exit  : 0/0
  1931 ;;		Unchanged: 0/0
  1932 ;; Data sizes:     COMRAM   BANK0   BANK1   BANK2   BANK3   BANK4   BANK5   BANK6   BANK7   BANK8   BANK9  BANK10  BANK1
      +1  BANK12  BANK13  BANK14  BANK15
  1933 ;;      Params:         0       5       0       0       0       0       0       0       0       0       0       0       
      +0       0       0       0       0
  1934 ;;      Locals:         0      25       0       0       0       0       0       0       0       0       0       0       
      +0       0       0       0       0
  1935 ;;      Temps:          2       0       0       0       0       0       0       0       0       0       0       0       
      +0       0       0       0       0
  1936 ;;      Totals:         2      30       0       0       0       0       0       0       0       0       0       0       
      +0       0       0       0       0
  1937 ;;Total ram usage:       32 bytes
  1938 ;; Hardware stack levels used: 1
  1939 ;; Hardware stack levels required when called: 2
  1940 ;; This function calls:
  1941 ;;		___fladd
  1942 ;;		___flmul
  1943 ;;		___flneg
  1944 ;;		___flsub
  1945 ;;		___fltol
  1946 ;;		___xxtofl
  1947 ;;		_fabsf
  1948 ;; This function is called by:
  1949 ;;		_sinf
  1950 ;; This function uses a non-reentrant model
  1951 ;;
  1952                           
  1953                           	psect	text3
  1954   001E3C                     __ptext3:
  1955                           	callstack 0
  1956   001E3C                     ___rem_pio2f:
  1957                           	callstack 27
  1958   001E3C  C0E2  F08A         	movff	___rem_pio2f@F526,___rem_pio2f@ux
  1959   001E40  C0E3  F08B         	movff	___rem_pio2f@F526+1,___rem_pio2f@ux+1
  1960   001E44  C0E4  F08C         	movff	___rem_pio2f@F526+2,___rem_pio2f@ux+2
  1961   001E48  C0E5  F08D         	movff	___rem_pio2f@F526+3,___rem_pio2f@ux+3
  1962   001E4C  C07C  F08A         	movff	___rem_pio2f@x,___rem_pio2f@ux
  1963   001E50  C07D  F08B         	movff	___rem_pio2f@x+1,___rem_pio2f@ux+1
  1964   001E54  C07E  F08C         	movff	___rem_pio2f@x+2,___rem_pio2f@ux+2
  1965   001E58  C07F  F08D         	movff	___rem_pio2f@x+3,___rem_pio2f@ux+3
  1966   001E5C  0100               	movlb	0	; () banked
  1967   001E5E  BF8D               	btfsc	(___rem_pio2f@ux+3)& (0+255),7,b
  1968   001E60  EF34  F00F         	goto	u2711
  1969   001E64  EF37  F00F         	goto	u2710
  1970   001E68                     u2711:
  1971   001E68  0E01               	movlw	1
  1972   001E6A  EF38  F00F         	goto	u2720
  1973   001E6E                     u2710:
  1974   001E6E  0E00               	movlw	0
  1975   001E70                     u2720:
  1976   001E70  6F89               	movwf	___rem_pio2f@sign& (0+255),b
  1977   001E72                     
  1978                           ; BSR set to: 0
  1979   001E72  9F8D               	bcf	(___rem_pio2f@ux+3)& (0+255),7,b
  1980   001E74                     
  1981                           ; BSR set to: 0
  1982   001E74  0EDB               	movlw	219
  1983   001E76  5D8A               	subwf	___rem_pio2f@ux& (0+255),w,b
  1984   001E78  0E0F               	movlw	15
  1985   001E7A  598B               	subwfb	(___rem_pio2f@ux+1)& (0+255),w,b
  1986   001E7C  0EC9               	movlw	201
  1987   001E7E  598C               	subwfb	(___rem_pio2f@ux+2)& (0+255),w,b
  1988   001E80  0E4D               	movlw	77
  1989   001E82  598D               	subwfb	(___rem_pio2f@ux+3)& (0+255),w,b
  1990   001E84  B0D8               	btfsc	status,0,c
  1991   001E86  EF47  F00F         	goto	u2731
  1992   001E8A  EF49  F00F         	goto	u2730
  1993   001E8E                     u2731:
  1994   001E8E  EF35  F010         	goto	l2672
  1995   001E92                     u2730:
  1996   001E92                     
  1997                           ; BSR set to: 0
  1998   001E92  C07C  F001         	movff	___rem_pio2f@x,fabsf@x
  1999   001E96  C07D  F002         	movff	___rem_pio2f@x+1,fabsf@x+1
  2000   001E9A  C07E  F003         	movff	___rem_pio2f@x+2,fabsf@x+2
  2001   001E9E  C07F  F004         	movff	___rem_pio2f@x+3,fabsf@x+3
  2002   001EA2  EC1A  F01A         	call	_fabsf	;wreg free
  2003   001EA6  C001  F092         	movff	?_fabsf,___rem_pio2f@t
  2004   001EAA  C002  F093         	movff	?_fabsf+1,___rem_pio2f@t+1
  2005   001EAE  C003  F094         	movff	?_fabsf+2,___rem_pio2f@t+2
  2006   001EB2  C004  F095         	movff	?_fabsf+3,___rem_pio2f@t+3
  2007   001EB6  0E00               	movlw	0
  2008   001EB8  6E45               	movwf	___fladd@a^0,c
  2009   001EBA  0E00               	movlw	0
  2010   001EBC  6E46               	movwf	(___fladd@a+1)^0,c
  2011   001EBE  0E00               	movlw	0
  2012   001EC0  6E47               	movwf	(___fladd@a+2)^0,c
  2013   001EC2  0E3F               	movlw	63
  2014   001EC4  6E48               	movwf	(___fladd@a+3)^0,c
  2015   001EC6  0E83               	movlw	131
  2016   001EC8  6E13               	movwf	___flmul@a^0,c
  2017   001ECA  0EF9               	movlw	249
  2018   001ECC  6E14               	movwf	(___flmul@a+1)^0,c
  2019   001ECE  0E22               	movlw	34
  2020   001ED0  6E15               	movwf	(___flmul@a+2)^0,c
  2021   001ED2  0E3F               	movlw	63
  2022   001ED4  6E16               	movwf	(___flmul@a+3)^0,c
  2023   001ED6  C092  F00F         	movff	___rem_pio2f@t,___flmul@b
  2024   001EDA  C093  F010         	movff	___rem_pio2f@t+1,___flmul@b+1
  2025   001EDE  C094  F011         	movff	___rem_pio2f@t+2,___flmul@b+2
  2026   001EE2  C095  F012         	movff	___rem_pio2f@t+3,___flmul@b+3
  2027   001EE6  EC09  F00D         	call	___flmul	;wreg free
  2028   001EEA  C00F  F041         	movff	?___flmul,___fladd@b
  2029   001EEE  C010  F042         	movff	?___flmul+1,___fladd@b+1
  2030   001EF2  C011  F043         	movff	?___flmul+2,___fladd@b+2
  2031   001EF6  C012  F044         	movff	?___flmul+3,___fladd@b+3
  2032   001EFA  ECA9  F00A         	call	___fladd	;wreg free
  2033   001EFE  C041  F051         	movff	?___fladd,___fltol@f1
  2034   001F02  C042  F052         	movff	?___fladd+1,___fltol@f1+1
  2035   001F06  C043  F053         	movff	?___fladd+2,___fltol@f1+2
  2036   001F0A  C044  F054         	movff	?___fladd+3,___fltol@f1+3
  2037   001F0E  ECF8  F017         	call	___fltol	;wreg free
  2038   001F12  C051  F096         	movff	?___fltol,___rem_pio2f@n
  2039   001F16  C052  F097         	movff	?___fltol+1,___rem_pio2f@n+1
  2040   001F1A  C053  F098         	movff	?___fltol+2,___rem_pio2f@n+2
  2041   001F1E  C054  F099         	movff	?___fltol+3,___rem_pio2f@n+3
  2042   001F22  C096  F001         	movff	___rem_pio2f@n,___xxtofl@val
  2043   001F26  C097  F002         	movff	___rem_pio2f@n+1,___xxtofl@val+1
  2044   001F2A  C098  F003         	movff	___rem_pio2f@n+2,___xxtofl@val+2
  2045   001F2E  C099  F004         	movff	___rem_pio2f@n+3,___xxtofl@val+3
  2046   001F32  0E01               	movlw	1
  2047   001F34  EC1E  F017         	call	___xxtofl
  2048   001F38  C001  F08E         	movff	?___xxtofl,___rem_pio2f@fn
  2049   001F3C  C002  F08F         	movff	?___xxtofl+1,___rem_pio2f@fn+1
  2050   001F40  C003  F090         	movff	?___xxtofl+2,___rem_pio2f@fn+2
  2051   001F44  C004  F091         	movff	?___xxtofl+3,___rem_pio2f@fn+3
  2052   001F48  0EDA               	movlw	218
  2053   001F4A  6E13               	movwf	___flmul@a^0,c
  2054   001F4C  0E0F               	movlw	15
  2055   001F4E  6E14               	movwf	(___flmul@a+1)^0,c
  2056   001F50  0EC9               	movlw	201
  2057   001F52  6E15               	movwf	(___flmul@a+2)^0,c
  2058   001F54  0E3F               	movlw	63
  2059   001F56  6E16               	movwf	(___flmul@a+3)^0,c
  2060   001F58  C08E  F00F         	movff	___rem_pio2f@fn,___flmul@b
  2061   001F5C  C08F  F010         	movff	___rem_pio2f@fn+1,___flmul@b+1
  2062   001F60  C090  F011         	movff	___rem_pio2f@fn+2,___flmul@b+2
  2063   001F64  C091  F012         	movff	___rem_pio2f@fn+3,___flmul@b+3
  2064   001F68  EC09  F00D         	call	___flmul	;wreg free
  2065   001F6C  C00F  F055         	movff	?___flmul,___flsub@a
  2066   001F70  C010  F056         	movff	?___flmul+1,___flsub@a+1
  2067   001F74  C011  F057         	movff	?___flmul+2,___flsub@a+2
  2068   001F78  C012  F058         	movff	?___flmul+3,___flsub@a+3
  2069   001F7C  C092  F051         	movff	___rem_pio2f@t,___flsub@b
  2070   001F80  C093  F052         	movff	___rem_pio2f@t+1,___flsub@b+1
  2071   001F84  C094  F053         	movff	___rem_pio2f@t+2,___flsub@b+2
  2072   001F88  C095  F054         	movff	___rem_pio2f@t+3,___flsub@b+3
  2073   001F8C  EC9A  F019         	call	___flsub	;wreg free
  2074   001F90  C051  F085         	movff	?___flsub,___rem_pio2f$2429
  2075   001F94  C052  F086         	movff	?___flsub+1,___rem_pio2f$2429+1
  2076   001F98  C053  F087         	movff	?___flsub+2,___rem_pio2f$2429+2
  2077   001F9C  C054  F088         	movff	?___flsub+3,___rem_pio2f$2429+3
  2078   001FA0  C085  F051         	movff	___rem_pio2f$2429,___flsub@b
  2079   001FA4  C086  F052         	movff	___rem_pio2f$2429+1,___flsub@b+1
  2080   001FA8  C087  F053         	movff	___rem_pio2f$2429+2,___flsub@b+2
  2081   001FAC  C088  F054         	movff	___rem_pio2f$2429+3,___flsub@b+3
  2082   001FB0  0EA3               	movlw	163
  2083   001FB2  6E13               	movwf	___flmul@a^0,c
  2084   001FB4  0E85               	movlw	133
  2085   001FB6  6E14               	movwf	(___flmul@a+1)^0,c
  2086   001FB8  0E88               	movlw	136
  2087   001FBA  6E15               	movwf	(___flmul@a+2)^0,c
  2088   001FBC  0E32               	movlw	50
  2089   001FBE  6E16               	movwf	(___flmul@a+3)^0,c
  2090   001FC0  C08E  F00F         	movff	___rem_pio2f@fn,___flmul@b
  2091   001FC4  C08F  F010         	movff	___rem_pio2f@fn+1,___flmul@b+1
  2092   001FC8  C090  F011         	movff	___rem_pio2f@fn+2,___flmul@b+2
  2093   001FCC  C091  F012         	movff	___rem_pio2f@fn+3,___flmul@b+3
  2094   001FD0  EC09  F00D         	call	___flmul	;wreg free
  2095   001FD4  C00F  F055         	movff	?___flmul,___flsub@a
  2096   001FD8  C010  F056         	movff	?___flmul+1,___flsub@a+1
  2097   001FDC  C011  F057         	movff	?___flmul+2,___flsub@a+2
  2098   001FE0  C012  F058         	movff	?___flmul+3,___flsub@a+3
  2099   001FE4  EC9A  F019         	call	___flsub	;wreg free
  2100   001FE8  0100               	movlb	0	; () banked
  2101   001FEA  5180               	movf	___rem_pio2f@y& (0+255),w,b
  2102   001FEC  6ED9               	movwf	fsr2l,c
  2103   001FEE  6ADA               	clrf	fsr2h,c
  2104   001FF0  C051  FFDE         	movff	?___flsub,postinc2
  2105   001FF4  C052  FFDE         	movff	?___flsub+1,postinc2
  2106   001FF8  C053  FFDE         	movff	?___flsub+2,postinc2
  2107   001FFC  C054  FFDE         	movff	?___flsub+3,postinc2
  2108   002000                     
  2109                           ; BSR set to: 0
  2110   002000  5189               	movf	___rem_pio2f@sign& (0+255),w,b
  2111   002002  B4D8               	btfsc	status,2,c
  2112   002004  EF06  F010         	goto	u2741
  2113   002008  EF08  F010         	goto	u2740
  2114   00200C                     u2741:
  2115   00200C  EF2F  F010         	goto	l978
  2116   002010                     u2740:
  2117   002010                     l2666:
  2118                           
  2119                           ; BSR set to: 0
  2120   002010  5180               	movf	___rem_pio2f@y& (0+255),w,b
  2121   002012  6ED9               	movwf	fsr2l,c
  2122   002014  6ADA               	clrf	fsr2h,c
  2123   002016  CFDE F078          	movff	postinc2,___flneg@f1
  2124   00201A  CFDE F079          	movff	postinc2,___flneg@f1+1
  2125   00201E  CFDE F07A          	movff	postinc2,___flneg@f1+2
  2126   002022  CFDE F07B          	movff	postinc2,___flneg@f1+3
  2127   002026  ECFD  F019         	call	___flneg	;wreg free
  2128   00202A  0100               	movlb	0	; () banked
  2129   00202C  5180               	movf	___rem_pio2f@y& (0+255),w,b
  2130   00202E  6ED9               	movwf	fsr2l,c
  2131   002030  6ADA               	clrf	fsr2h,c
  2132   002032  C078  FFDE         	movff	?___flneg,postinc2
  2133   002036  C079  FFDE         	movff	?___flneg+1,postinc2
  2134   00203A  C07A  FFDE         	movff	?___flneg+2,postinc2
  2135   00203E  C07B  FFDE         	movff	?___flneg+3,postinc2
  2136   002042                     
  2137                           ; BSR set to: 0
  2138   002042  C096  F05B         	movff	___rem_pio2f@n,??___rem_pio2f
  2139   002046  C097  F05C         	movff	___rem_pio2f@n+1,??___rem_pio2f+1
  2140   00204A  1E5B               	comf	??___rem_pio2f^0,f,c
  2141   00204C  1E5C               	comf	(??___rem_pio2f+1)^0,f,c
  2142   00204E  4A5B               	infsnz	??___rem_pio2f^0,f,c
  2143   002050  2A5C               	incf	(??___rem_pio2f+1)^0,f,c
  2144   002052  C05B  F07C         	movff	??___rem_pio2f,?___rem_pio2f
  2145   002056  C05C  F07D         	movff	??___rem_pio2f+1,?___rem_pio2f+1
  2146   00205A  EFFE  F010         	goto	l979
  2147   00205E                     l978:
  2148                           
  2149                           ; BSR set to: 0
  2150   00205E  C096  F07C         	movff	___rem_pio2f@n,?___rem_pio2f
  2151   002062  C097  F07D         	movff	___rem_pio2f@n+1,?___rem_pio2f+1
  2152   002066  EFFE  F010         	goto	l979
  2153   00206A                     l2672:
  2154                           
  2155                           ; BSR set to: 0
  2156   00206A  C07C  F001         	movff	___rem_pio2f@x,fabsf@x
  2157   00206E  C07D  F002         	movff	___rem_pio2f@x+1,fabsf@x+1
  2158   002072  C07E  F003         	movff	___rem_pio2f@x+2,fabsf@x+2
  2159   002076  C07F  F004         	movff	___rem_pio2f@x+3,fabsf@x+3
  2160   00207A  EC1A  F01A         	call	_fabsf	;wreg free
  2161   00207E  C001  F092         	movff	?_fabsf,___rem_pio2f@t
  2162   002082  C002  F093         	movff	?_fabsf+1,___rem_pio2f@t+1
  2163   002086  C003  F094         	movff	?_fabsf+2,___rem_pio2f@t+2
  2164   00208A  C004  F095         	movff	?_fabsf+3,___rem_pio2f@t+3
  2165   00208E  0E00               	movlw	0
  2166   002090  6E45               	movwf	___fladd@a^0,c
  2167   002092  0E00               	movlw	0
  2168   002094  6E46               	movwf	(___fladd@a+1)^0,c
  2169   002096  0E00               	movlw	0
  2170   002098  6E47               	movwf	(___fladd@a+2)^0,c
  2171   00209A  0E3F               	movlw	63
  2172   00209C  6E48               	movwf	(___fladd@a+3)^0,c
  2173   00209E  0E83               	movlw	131
  2174   0020A0  6E13               	movwf	___flmul@a^0,c
  2175   0020A2  0EF9               	movlw	249
  2176   0020A4  6E14               	movwf	(___flmul@a+1)^0,c
  2177   0020A6  0E22               	movlw	34
  2178   0020A8  6E15               	movwf	(___flmul@a+2)^0,c
  2179   0020AA  0E3F               	movlw	63
  2180   0020AC  6E16               	movwf	(___flmul@a+3)^0,c
  2181   0020AE  C092  F00F         	movff	___rem_pio2f@t,___flmul@b
  2182   0020B2  C093  F010         	movff	___rem_pio2f@t+1,___flmul@b+1
  2183   0020B6  C094  F011         	movff	___rem_pio2f@t+2,___flmul@b+2
  2184   0020BA  C095  F012         	movff	___rem_pio2f@t+3,___flmul@b+3
  2185   0020BE  EC09  F00D         	call	___flmul	;wreg free
  2186   0020C2  C00F  F041         	movff	?___flmul,___fladd@b
  2187   0020C6  C010  F042         	movff	?___flmul+1,___fladd@b+1
  2188   0020CA  C011  F043         	movff	?___flmul+2,___fladd@b+2
  2189   0020CE  C012  F044         	movff	?___flmul+3,___fladd@b+3
  2190   0020D2  ECA9  F00A         	call	___fladd	;wreg free
  2191   0020D6  C041  F051         	movff	?___fladd,___fltol@f1
  2192   0020DA  C042  F052         	movff	?___fladd+1,___fltol@f1+1
  2193   0020DE  C043  F053         	movff	?___fladd+2,___fltol@f1+2
  2194   0020E2  C044  F054         	movff	?___fladd+3,___fltol@f1+3
  2195   0020E6  ECF8  F017         	call	___fltol	;wreg free
  2196   0020EA  C051  F096         	movff	?___fltol,___rem_pio2f@n
  2197   0020EE  C052  F097         	movff	?___fltol+1,___rem_pio2f@n+1
  2198   0020F2  C053  F098         	movff	?___fltol+2,___rem_pio2f@n+2
  2199   0020F6  C054  F099         	movff	?___fltol+3,___rem_pio2f@n+3
  2200   0020FA  C096  F001         	movff	___rem_pio2f@n,___xxtofl@val
  2201   0020FE  C097  F002         	movff	___rem_pio2f@n+1,___xxtofl@val+1
  2202   002102  C098  F003         	movff	___rem_pio2f@n+2,___xxtofl@val+2
  2203   002106  C099  F004         	movff	___rem_pio2f@n+3,___xxtofl@val+3
  2204   00210A  0E01               	movlw	1
  2205   00210C  EC1E  F017         	call	___xxtofl
  2206   002110  C001  F08E         	movff	?___xxtofl,___rem_pio2f@fn
  2207   002114  C002  F08F         	movff	?___xxtofl+1,___rem_pio2f@fn+1
  2208   002118  C003  F090         	movff	?___xxtofl+2,___rem_pio2f@fn+2
  2209   00211C  C004  F091         	movff	?___xxtofl+3,___rem_pio2f@fn+3
  2210   002120  0EDA               	movlw	218
  2211   002122  6E13               	movwf	___flmul@a^0,c
  2212   002124  0E0F               	movlw	15
  2213   002126  6E14               	movwf	(___flmul@a+1)^0,c
  2214   002128  0EC9               	movlw	201
  2215   00212A  6E15               	movwf	(___flmul@a+2)^0,c
  2216   00212C  0E3F               	movlw	63
  2217   00212E  6E16               	movwf	(___flmul@a+3)^0,c
  2218   002130  C08E  F00F         	movff	___rem_pio2f@fn,___flmul@b
  2219   002134  C08F  F010         	movff	___rem_pio2f@fn+1,___flmul@b+1
  2220   002138  C090  F011         	movff	___rem_pio2f@fn+2,___flmul@b+2
  2221   00213C  C091  F012         	movff	___rem_pio2f@fn+3,___flmul@b+3
  2222   002140  EC09  F00D         	call	___flmul	;wreg free
  2223   002144  C00F  F055         	movff	?___flmul,___flsub@a
  2224   002148  C010  F056         	movff	?___flmul+1,___flsub@a+1
  2225   00214C  C011  F057         	movff	?___flmul+2,___flsub@a+2
  2226   002150  C012  F058         	movff	?___flmul+3,___flsub@a+3
  2227   002154  C092  F051         	movff	___rem_pio2f@t,___flsub@b
  2228   002158  C093  F052         	movff	___rem_pio2f@t+1,___flsub@b+1
  2229   00215C  C094  F053         	movff	___rem_pio2f@t+2,___flsub@b+2
  2230   002160  C095  F054         	movff	___rem_pio2f@t+3,___flsub@b+3
  2231   002164  EC9A  F019         	call	___flsub	;wreg free
  2232   002168  C051  F085         	movff	?___flsub,___rem_pio2f$2429
  2233   00216C  C052  F086         	movff	?___flsub+1,___rem_pio2f$2429+1
  2234   002170  C053  F087         	movff	?___flsub+2,___rem_pio2f$2429+2
  2235   002174  C054  F088         	movff	?___flsub+3,___rem_pio2f$2429+3
  2236   002178  C085  F051         	movff	___rem_pio2f$2429,___flsub@b
  2237   00217C  C086  F052         	movff	___rem_pio2f$2429+1,___flsub@b+1
  2238   002180  C087  F053         	movff	___rem_pio2f$2429+2,___flsub@b+2
  2239   002184  C088  F054         	movff	___rem_pio2f$2429+3,___flsub@b+3
  2240   002188  0EA3               	movlw	163
  2241   00218A  6E13               	movwf	___flmul@a^0,c
  2242   00218C  0E85               	movlw	133
  2243   00218E  6E14               	movwf	(___flmul@a+1)^0,c
  2244   002190  0E88               	movlw	136
  2245   002192  6E15               	movwf	(___flmul@a+2)^0,c
  2246   002194  0E32               	movlw	50
  2247   002196  6E16               	movwf	(___flmul@a+3)^0,c
  2248   002198  C08E  F00F         	movff	___rem_pio2f@fn,___flmul@b
  2249   00219C  C08F  F010         	movff	___rem_pio2f@fn+1,___flmul@b+1
  2250   0021A0  C090  F011         	movff	___rem_pio2f@fn+2,___flmul@b+2
  2251   0021A4  C091  F012         	movff	___rem_pio2f@fn+3,___flmul@b+3
  2252   0021A8  EC09  F00D         	call	___flmul	;wreg free
  2253   0021AC  C00F  F055         	movff	?___flmul,___flsub@a
  2254   0021B0  C010  F056         	movff	?___flmul+1,___flsub@a+1
  2255   0021B4  C011  F057         	movff	?___flmul+2,___flsub@a+2
  2256   0021B8  C012  F058         	movff	?___flmul+3,___flsub@a+3
  2257   0021BC  EC9A  F019         	call	___flsub	;wreg free
  2258   0021C0  C051  F081         	movff	?___flsub,___rem_pio2f@ty
  2259   0021C4  C052  F082         	movff	?___flsub+1,___rem_pio2f@ty+1
  2260   0021C8  C053  F083         	movff	?___flsub+2,___rem_pio2f@ty+2
  2261   0021CC  C054  F084         	movff	?___flsub+3,___rem_pio2f@ty+3
  2262   0021D0  0100               	movlb	0	; () banked
  2263   0021D2  5180               	movf	___rem_pio2f@y& (0+255),w,b
  2264   0021D4  6ED9               	movwf	fsr2l,c
  2265   0021D6  6ADA               	clrf	fsr2h,c
  2266   0021D8  C081  FFDE         	movff	___rem_pio2f@ty,postinc2
  2267   0021DC  C082  FFDE         	movff	___rem_pio2f@ty+1,postinc2
  2268   0021E0  C083  FFDE         	movff	___rem_pio2f@ty+2,postinc2
  2269   0021E4  C084  FFDE         	movff	___rem_pio2f@ty+3,postinc2
  2270   0021E8                     
  2271                           ; BSR set to: 0
  2272   0021E8  5189               	movf	___rem_pio2f@sign& (0+255),w,b
  2273   0021EA  B4D8               	btfsc	status,2,c
  2274   0021EC  EFFA  F010         	goto	u2751
  2275   0021F0  EFFC  F010         	goto	u2750
  2276   0021F4                     u2751:
  2277   0021F4  EF2F  F010         	goto	l978
  2278   0021F8                     u2750:
  2279   0021F8  EF08  F010         	goto	l2666
  2280   0021FC                     l979:
  2281                           
  2282                           ; BSR set to: 0
  2283   0021FC  0012               	return		;funcret
  2284   0021FE                     __end_of___rem_pio2f:
  2285                           	callstack 0
  2286                           
  2287 ;; *************** function _fabsf *****************
  2288 ;; Defined at:
  2289 ;;		line 4 in file "C:\Program Files\Microchip\xc8\v2.46\pic\sources\c99\common\fabsf.c"
  2290 ;; Parameters:    Size  Location     Type
  2291 ;;  x               4    0[COMRAM] float 
  2292 ;; Auto vars:     Size  Location     Type
  2293 ;;  u               4    4[COMRAM] struct .
  2294 ;; Return value:  Size  Location     Type
  2295 ;;                  4    0[COMRAM] float 
  2296 ;; Registers used:
  2297 ;;		status,2, status,0
  2298 ;; Tracked objects:
  2299 ;;		On entry : 0/0
  2300 ;;		On exit  : 0/0
  2301 ;;		Unchanged: 0/0
  2302 ;; Data sizes:     COMRAM   BANK0   BANK1   BANK2   BANK3   BANK4   BANK5   BANK6   BANK7   BANK8   BANK9  BANK10  BANK1
      +1  BANK12  BANK13  BANK14  BANK15
  2303 ;;      Params:         4       0       0       0       0       0       0       0       0       0       0       0       
      +0       0       0       0       0
  2304 ;;      Locals:         4       0       0       0       0       0       0       0       0       0       0       0       
      +0       0       0       0       0
  2305 ;;      Temps:          0       0       0       0       0       0       0       0       0       0       0       0       
      +0       0       0       0       0
  2306 ;;      Totals:         8       0       0       0       0       0       0       0       0       0       0       0       
      +0       0       0       0       0
  2307 ;;Total ram usage:        8 bytes
  2308 ;; Hardware stack levels used: 1
  2309 ;; This function calls:
  2310 ;;		Nothing
  2311 ;; This function is called by:
  2312 ;;		___rem_pio2f
  2313 ;; This function uses a non-reentrant model
  2314 ;;
  2315                           
  2316                           	psect	text4
  2317   003434                     __ptext4:
  2318                           	callstack 0
  2319   003434                     _fabsf:
  2320                           	callstack 28
  2321   003434  C0DE  F005         	movff	fabsf@F465,fabsf@u
  2322   003438  C0DF  F006         	movff	fabsf@F465+1,fabsf@u+1
  2323   00343C  C0E0  F007         	movff	fabsf@F465+2,fabsf@u+2
  2324   003440  C0E1  F008         	movff	fabsf@F465+3,fabsf@u+3
  2325   003444  C001  F005         	movff	fabsf@x,fabsf@u
  2326   003448  C002  F006         	movff	fabsf@x+1,fabsf@u+1
  2327   00344C  C003  F007         	movff	fabsf@x+2,fabsf@u+2
  2328   003450  C004  F008         	movff	fabsf@x+3,fabsf@u+3
  2329   003454  9E08               	bcf	(fabsf@u+3)^0,7,c
  2330   003456  C005  F001         	movff	fabsf@u,?_fabsf
  2331   00345A  C006  F002         	movff	fabsf@u+1,?_fabsf+1
  2332   00345E  C007  F003         	movff	fabsf@u+2,?_fabsf+2
  2333   003462  C008  F004         	movff	fabsf@u+3,?_fabsf+3
  2334   003466  0012               	return		;funcret
  2335   003468                     __end_of_fabsf:
  2336                           	callstack 0
  2337                           
  2338 ;; *************** function ___xxtofl *****************
  2339 ;; Defined at:
  2340 ;;		line 10 in file "C:\Program Files\Microchip\xc8\v2.46\pic\sources\c99\common\xxtofl.c"
  2341 ;; Parameters:    Size  Location     Type
  2342 ;;  sign            1    wreg     unsigned char 
  2343 ;;  val             4    0[COMRAM] long 
  2344 ;; Auto vars:     Size  Location     Type
  2345 ;;  sign            1    8[COMRAM] unsigned char 
  2346 ;;  arg             4   10[COMRAM] unsigned long 
  2347 ;;  exp             1    9[COMRAM] unsigned char 
  2348 ;; Return value:  Size  Location     Type
  2349 ;;                  4    0[COMRAM] unsigned char 
  2350 ;; Registers used:
  2351 ;;		wreg, status,2, status,0
  2352 ;; Tracked objects:
  2353 ;;		On entry : 0/0
  2354 ;;		On exit  : 0/0
  2355 ;;		Unchanged: 0/0
  2356 ;; Data sizes:     COMRAM   BANK0   BANK1   BANK2   BANK3   BANK4   BANK5   BANK6   BANK7   BANK8   BANK9  BANK10  BANK1
      +1  BANK12  BANK13  BANK14  BANK15
  2357 ;;      Params:         4       0       0       0       0       0       0       0       0       0       0       0       
      +0       0       0       0       0
  2358 ;;      Locals:         6       0       0       0       0       0       0       0       0       0       0       0       
      +0       0       0       0       0
  2359 ;;      Temps:          4       0       0       0       0       0       0       0       0       0       0       0       
      +0       0       0       0       0
  2360 ;;      Totals:        14       0       0       0       0       0       0       0       0       0       0       0       
      +0       0       0       0       0
  2361 ;;Total ram usage:       14 bytes
  2362 ;; Hardware stack levels used: 1
  2363 ;; This function calls:
  2364 ;;		Nothing
  2365 ;; This function is called by:
  2366 ;;		_main
  2367 ;;		___rem_pio2f
  2368 ;; This function uses a non-reentrant model
  2369 ;;
  2370                           
  2371                           	psect	text5
  2372   002E3C                     __ptext5:
  2373                           	callstack 0
  2374   002E3C                     ___xxtofl:
  2375                           	callstack 28
  2376                           
  2377                           ;incstack = 0
  2378                           ;___xxtofl@sign stored from wreg
  2379   002E3C  6E09               	movwf	___xxtofl@sign^0,c
  2380   002E3E  5009               	movf	___xxtofl@sign^0,w,c
  2381   002E40  B4D8               	btfsc	status,2,c
  2382   002E42  EF25  F017         	goto	u2501
  2383   002E46  EF27  F017         	goto	u2500
  2384   002E4A                     u2501:
  2385   002E4A  EF49  F017         	goto	l815
  2386   002E4E                     u2500:
  2387   002E4E  BE04               	btfsc	(___xxtofl@val+3)^0,7,c
  2388   002E50  EF2E  F017         	goto	u2510
  2389   002E54  EF2C  F017         	goto	u2511
  2390   002E58                     u2511:
  2391   002E58  EF49  F017         	goto	l815
  2392   002E5C                     u2510:
  2393   002E5C  C001  F005         	movff	___xxtofl@val,??___xxtofl
  2394   002E60  C002  F006         	movff	___xxtofl@val+1,??___xxtofl+1
  2395   002E64  C003  F007         	movff	___xxtofl@val+2,??___xxtofl+2
  2396   002E68  C004  F008         	movff	___xxtofl@val+3,??___xxtofl+3
  2397   002E6C  1E05               	comf	??___xxtofl^0,f,c
  2398   002E6E  1E06               	comf	(??___xxtofl+1)^0,f,c
  2399   002E70  1E07               	comf	(??___xxtofl+2)^0,f,c
  2400   002E72  1E08               	comf	(??___xxtofl+3)^0,f,c
  2401   002E74  2A05               	incf	??___xxtofl^0,f,c
  2402   002E76  0E00               	movlw	0
  2403   002E78  2206               	addwfc	(??___xxtofl+1)^0,f,c
  2404   002E7A  2207               	addwfc	(??___xxtofl+2)^0,f,c
  2405   002E7C  2208               	addwfc	(??___xxtofl+3)^0,f,c
  2406   002E7E  C005  F00B         	movff	??___xxtofl,___xxtofl@arg
  2407   002E82  C006  F00C         	movff	??___xxtofl+1,___xxtofl@arg+1
  2408   002E86  C007  F00D         	movff	??___xxtofl+2,___xxtofl@arg+2
  2409   002E8A  C008  F00E         	movff	??___xxtofl+3,___xxtofl@arg+3
  2410   002E8E  EF51  F017         	goto	l2530
  2411   002E92                     l815:
  2412   002E92  C001  F00B         	movff	___xxtofl@val,___xxtofl@arg
  2413   002E96  C002  F00C         	movff	___xxtofl@val+1,___xxtofl@arg+1
  2414   002E9A  C003  F00D         	movff	___xxtofl@val+2,___xxtofl@arg+2
  2415   002E9E  C004  F00E         	movff	___xxtofl@val+3,___xxtofl@arg+3
  2416   002EA2                     l2530:
  2417   002EA2  5001               	movf	___xxtofl@val^0,w,c
  2418   002EA4  1002               	iorwf	(___xxtofl@val+1)^0,w,c
  2419   002EA6  1003               	iorwf	(___xxtofl@val+2)^0,w,c
  2420   002EA8  1004               	iorwf	(___xxtofl@val+3)^0,w,c
  2421   002EAA  A4D8               	btfss	status,2,c
  2422   002EAC  EF5A  F017         	goto	u2521
  2423   002EB0  EF5C  F017         	goto	u2520
  2424   002EB4                     u2521:
  2425   002EB4  EF66  F017         	goto	l2536
  2426   002EB8                     u2520:
  2427   002EB8  0E00               	movlw	0
  2428   002EBA  6E01               	movwf	?___xxtofl^0,c
  2429   002EBC  0E00               	movlw	0
  2430   002EBE  6E02               	movwf	(?___xxtofl+1)^0,c
  2431   002EC0  0E00               	movlw	0
  2432   002EC2  6E03               	movwf	(?___xxtofl+2)^0,c
  2433   002EC4  0E00               	movlw	0
  2434   002EC6  6E04               	movwf	(?___xxtofl+3)^0,c
  2435   002EC8  EFF7  F017         	goto	l818
  2436   002ECC                     l2536:
  2437   002ECC  0E96               	movlw	150
  2438   002ECE  6E0A               	movwf	___xxtofl@exp^0,c
  2439   002ED0  EF70  F017         	goto	l2540
  2440   002ED4                     l2538:
  2441   002ED4  2A0A               	incf	___xxtofl@exp^0,f,c
  2442   002ED6  90D8               	bcf	status,0,c
  2443   002ED8  320E               	rrcf	(___xxtofl@arg+3)^0,f,c
  2444   002EDA  320D               	rrcf	(___xxtofl@arg+2)^0,f,c
  2445   002EDC  320C               	rrcf	(___xxtofl@arg+1)^0,f,c
  2446   002EDE  320B               	rrcf	___xxtofl@arg^0,f,c
  2447   002EE0                     l2540:
  2448   002EE0  0E00               	movlw	0
  2449   002EE2  140B               	andwf	___xxtofl@arg^0,w,c
  2450   002EE4  6E05               	movwf	??___xxtofl^0,c
  2451   002EE6  0E00               	movlw	0
  2452   002EE8  140C               	andwf	(___xxtofl@arg+1)^0,w,c
  2453   002EEA  6E06               	movwf	(??___xxtofl+1)^0,c
  2454   002EEC  0E00               	movlw	0
  2455   002EEE  140D               	andwf	(___xxtofl@arg+2)^0,w,c
  2456   002EF0  6E07               	movwf	(??___xxtofl+2)^0,c
  2457   002EF2  0EFE               	movlw	254
  2458   002EF4  140E               	andwf	(___xxtofl@arg+3)^0,w,c
  2459   002EF6  6E08               	movwf	(??___xxtofl+3)^0,c
  2460   002EF8  5005               	movf	??___xxtofl^0,w,c
  2461   002EFA  1006               	iorwf	(??___xxtofl+1)^0,w,c
  2462   002EFC  1007               	iorwf	(??___xxtofl+2)^0,w,c
  2463   002EFE  1008               	iorwf	(??___xxtofl+3)^0,w,c
  2464   002F00  A4D8               	btfss	status,2,c
  2465   002F02  EF85  F017         	goto	u2531
  2466   002F06  EF87  F017         	goto	u2530
  2467   002F0A                     u2531:
  2468   002F0A  EF6A  F017         	goto	l2538
  2469   002F0E                     u2530:
  2470   002F0E  EF95  F017         	goto	l822
  2471   002F12                     l2542:
  2472   002F12  2A0A               	incf	___xxtofl@exp^0,f,c
  2473   002F14  0E01               	movlw	1
  2474   002F16  260B               	addwf	___xxtofl@arg^0,f,c
  2475   002F18  0E00               	movlw	0
  2476   002F1A  220C               	addwfc	(___xxtofl@arg+1)^0,f,c
  2477   002F1C  220D               	addwfc	(___xxtofl@arg+2)^0,f,c
  2478   002F1E  220E               	addwfc	(___xxtofl@arg+3)^0,f,c
  2479   002F20  90D8               	bcf	status,0,c
  2480   002F22  320E               	rrcf	(___xxtofl@arg+3)^0,f,c
  2481   002F24  320D               	rrcf	(___xxtofl@arg+2)^0,f,c
  2482   002F26  320C               	rrcf	(___xxtofl@arg+1)^0,f,c
  2483   002F28  320B               	rrcf	___xxtofl@arg^0,f,c
  2484   002F2A                     l822:
  2485   002F2A  0E00               	movlw	0
  2486   002F2C  140B               	andwf	___xxtofl@arg^0,w,c
  2487   002F2E  6E05               	movwf	??___xxtofl^0,c
  2488   002F30  0E00               	movlw	0
  2489   002F32  140C               	andwf	(___xxtofl@arg+1)^0,w,c
  2490   002F34  6E06               	movwf	(??___xxtofl+1)^0,c
  2491   002F36  0E00               	movlw	0
  2492   002F38  140D               	andwf	(___xxtofl@arg+2)^0,w,c
  2493   002F3A  6E07               	movwf	(??___xxtofl+2)^0,c
  2494   002F3C  0EFF               	movlw	255
  2495   002F3E  140E               	andwf	(___xxtofl@arg+3)^0,w,c
  2496   002F40  6E08               	movwf	(??___xxtofl+3)^0,c
  2497   002F42  5005               	movf	??___xxtofl^0,w,c
  2498   002F44  1006               	iorwf	(??___xxtofl+1)^0,w,c
  2499   002F46  1007               	iorwf	(??___xxtofl+2)^0,w,c
  2500   002F48  1008               	iorwf	(??___xxtofl+3)^0,w,c
  2501   002F4A  A4D8               	btfss	status,2,c
  2502   002F4C  EFAA  F017         	goto	u2541
  2503   002F50  EFAC  F017         	goto	u2540
  2504   002F54                     u2541:
  2505   002F54  EF89  F017         	goto	l2542
  2506   002F58                     u2540:
  2507   002F58  EFB4  F017         	goto	l2550
  2508   002F5C                     l2548:
  2509   002F5C  060A               	decf	___xxtofl@exp^0,f,c
  2510   002F5E  90D8               	bcf	status,0,c
  2511   002F60  360B               	rlcf	___xxtofl@arg^0,f,c
  2512   002F62  360C               	rlcf	(___xxtofl@arg+1)^0,f,c
  2513   002F64  360D               	rlcf	(___xxtofl@arg+2)^0,f,c
  2514   002F66  360E               	rlcf	(___xxtofl@arg+3)^0,f,c
  2515   002F68                     l2550:
  2516   002F68  BE0D               	btfsc	(___xxtofl@arg+2)^0,7,c
  2517   002F6A  EFB9  F017         	goto	u2551
  2518   002F6E  EFBB  F017         	goto	u2550
  2519   002F72                     u2551:
  2520   002F72  EFC3  F017         	goto	l829
  2521   002F76                     u2550:
  2522   002F76  0E02               	movlw	2
  2523   002F78  600A               	cpfslt	___xxtofl@exp^0,c
  2524   002F7A  EFC1  F017         	goto	u2561
  2525   002F7E  EFC3  F017         	goto	u2560
  2526   002F82                     u2561:
  2527   002F82  EFAE  F017         	goto	l2548
  2528   002F86                     u2560:
  2529   002F86                     l829:
  2530   002F86  B00A               	btfsc	___xxtofl@exp^0,0,c
  2531   002F88  EFC8  F017         	goto	u2571
  2532   002F8C  EFCA  F017         	goto	u2570
  2533   002F90                     u2571:
  2534   002F90  EFCB  F017         	goto	l2556
  2535   002F94                     u2570:
  2536   002F94  9E0D               	bcf	(___xxtofl@arg+2)^0,7,c
  2537   002F96                     l2556:
  2538   002F96  90D8               	bcf	status,0,c
  2539   002F98  320A               	rrcf	___xxtofl@exp^0,f,c
  2540   002F9A  C00A  F005         	movff	___xxtofl@exp,??___xxtofl
  2541   002F9E  6A06               	clrf	(??___xxtofl+1)^0,c
  2542   002FA0  6A07               	clrf	(??___xxtofl+2)^0,c
  2543   002FA2  6A08               	clrf	(??___xxtofl+3)^0,c
  2544   002FA4  C005  F008         	movff	??___xxtofl,??___xxtofl+3
  2545   002FA8  6A07               	clrf	(??___xxtofl+2)^0,c
  2546   002FAA  6A06               	clrf	(??___xxtofl+1)^0,c
  2547   002FAC  6A05               	clrf	??___xxtofl^0,c
  2548   002FAE  5005               	movf	??___xxtofl^0,w,c
  2549   002FB0  120B               	iorwf	___xxtofl@arg^0,f,c
  2550   002FB2  5006               	movf	(??___xxtofl+1)^0,w,c
  2551   002FB4  120C               	iorwf	(___xxtofl@arg+1)^0,f,c
  2552   002FB6  5007               	movf	(??___xxtofl+2)^0,w,c
  2553   002FB8  120D               	iorwf	(___xxtofl@arg+2)^0,f,c
  2554   002FBA  5008               	movf	(??___xxtofl+3)^0,w,c
  2555   002FBC  120E               	iorwf	(___xxtofl@arg+3)^0,f,c
  2556   002FBE  5009               	movf	___xxtofl@sign^0,w,c
  2557   002FC0  B4D8               	btfsc	status,2,c
  2558   002FC2  EFE5  F017         	goto	u2581
  2559   002FC6  EFE7  F017         	goto	u2580
  2560   002FCA                     u2581:
  2561   002FCA  EFEF  F017         	goto	l2566
  2562   002FCE                     u2580:
  2563   002FCE  BE04               	btfsc	(___xxtofl@val+3)^0,7,c
  2564   002FD0  EFEE  F017         	goto	u2590
  2565   002FD4  EFEC  F017         	goto	u2591
  2566   002FD8                     u2591:
  2567   002FD8  EFEF  F017         	goto	l2566
  2568   002FDC                     u2590:
  2569   002FDC  8E0E               	bsf	(___xxtofl@arg+3)^0,7,c
  2570   002FDE                     l2566:
  2571   002FDE  C00B  F001         	movff	___xxtofl@arg,?___xxtofl
  2572   002FE2  C00C  F002         	movff	___xxtofl@arg+1,?___xxtofl+1
  2573   002FE6  C00D  F003         	movff	___xxtofl@arg+2,?___xxtofl+2
  2574   002FEA  C00E  F004         	movff	___xxtofl@arg+3,?___xxtofl+3
  2575   002FEE                     l818:
  2576   002FEE  0012               	return		;funcret
  2577   002FF0                     __end_of___xxtofl:
  2578                           	callstack 0
  2579                           
  2580 ;; *************** function ___fltol *****************
  2581 ;; Defined at:
  2582 ;;		line 43 in file "C:\Program Files\Microchip\xc8\v2.46\pic\sources\c99\common\fltol.c"
  2583 ;; Parameters:    Size  Location     Type
  2584 ;;  f1              4   80[COMRAM] unsigned char 
  2585 ;; Auto vars:     Size  Location     Type
  2586 ;;  exp1            1   89[COMRAM] unsigned char 
  2587 ;;  sign1           1   88[COMRAM] unsigned char 
  2588 ;; Return value:  Size  Location     Type
  2589 ;;                  4   80[COMRAM] long 
  2590 ;; Registers used:
  2591 ;;		wreg, status,2, status,0
  2592 ;; Tracked objects:
  2593 ;;		On entry : 0/0
  2594 ;;		On exit  : 0/0
  2595 ;;		Unchanged: 0/0
  2596 ;; Data sizes:     COMRAM   BANK0   BANK1   BANK2   BANK3   BANK4   BANK5   BANK6   BANK7   BANK8   BANK9  BANK10  BANK1
      +1  BANK12  BANK13  BANK14  BANK15
  2597 ;;      Params:         4       0       0       0       0       0       0       0       0       0       0       0       
      +0       0       0       0       0
  2598 ;;      Locals:         2       0       0       0       0       0       0       0       0       0       0       0       
      +0       0       0       0       0
  2599 ;;      Temps:          4       0       0       0       0       0       0       0       0       0       0       0       
      +0       0       0       0       0
  2600 ;;      Totals:        10       0       0       0       0       0       0       0       0       0       0       0       
      +0       0       0       0       0
  2601 ;;Total ram usage:       10 bytes
  2602 ;; Hardware stack levels used: 1
  2603 ;; This function calls:
  2604 ;;		Nothing
  2605 ;; This function is called by:
  2606 ;;		_main
  2607 ;;		___rem_pio2f
  2608 ;; This function uses a non-reentrant model
  2609 ;;
  2610                           
  2611                           	psect	text6
  2612   002FF0                     __ptext6:
  2613                           	callstack 0
  2614   002FF0                     ___fltol:
  2615                           	callstack 28
  2616   002FF0  3453               	rlcf	(___fltol@f1+2)^0,w,c
  2617   002FF2  3454               	rlcf	(___fltol@f1+3)^0,w,c
  2618   002FF4  6E5A               	movwf	___fltol@exp1^0,c
  2619   002FF6  505A               	movf	___fltol@exp1^0,w,c
  2620   002FF8  A4D8               	btfss	status,2,c
  2621   002FFA  EF01  F018         	goto	u2431
  2622   002FFE  EF03  F018         	goto	u2430
  2623   003002                     u2431:
  2624   003002  EF0D  F018         	goto	l2486
  2625   003006                     u2430:
  2626   003006                     l2482:
  2627   003006  0E00               	movlw	0
  2628   003008  6E51               	movwf	?___fltol^0,c
  2629   00300A  0E00               	movlw	0
  2630   00300C  6E52               	movwf	(?___fltol+1)^0,c
  2631   00300E  0E00               	movlw	0
  2632   003010  6E53               	movwf	(?___fltol+2)^0,c
  2633   003012  0E00               	movlw	0
  2634   003014  6E54               	movwf	(?___fltol+3)^0,c
  2635   003016  EF7A  F018         	goto	l457
  2636   00301A                     l2486:
  2637   00301A  C051  F055         	movff	___fltol@f1,??___fltol
  2638   00301E  C052  F056         	movff	___fltol@f1+1,??___fltol+1
  2639   003022  C053  F057         	movff	___fltol@f1+2,??___fltol+2
  2640   003026  C054  F058         	movff	___fltol@f1+3,??___fltol+3
  2641   00302A  0E20               	movlw	32
  2642   00302C  EF1D  F018         	goto	u2440
  2643   003030                     u2445:
  2644   003030  90D8               	bcf	status,0,c
  2645   003032  3258               	rrcf	(??___fltol+3)^0,f,c
  2646   003034  3257               	rrcf	(??___fltol+2)^0,f,c
  2647   003036  3256               	rrcf	(??___fltol+1)^0,f,c
  2648   003038  3255               	rrcf	??___fltol^0,f,c
  2649   00303A                     u2440:
  2650   00303A  2EE8               	decfsz	wreg,f,c
  2651   00303C  EF18  F018         	goto	u2445
  2652   003040  5055               	movf	??___fltol^0,w,c
  2653   003042  6E59               	movwf	___fltol@sign1^0,c
  2654   003044  8E53               	bsf	(___fltol@f1+2)^0,7,c
  2655   003046  0EFF               	movlw	255
  2656   003048  1651               	andwf	___fltol@f1^0,f,c
  2657   00304A  0EFF               	movlw	255
  2658   00304C  1652               	andwf	(___fltol@f1+1)^0,f,c
  2659   00304E  0EFF               	movlw	255
  2660   003050  1653               	andwf	(___fltol@f1+2)^0,f,c
  2661   003052  0E00               	movlw	0
  2662   003054  1654               	andwf	(___fltol@f1+3)^0,f,c
  2663   003056  0E96               	movlw	150
  2664   003058  5E5A               	subwf	___fltol@exp1^0,f,c
  2665   00305A  BE5A               	btfsc	___fltol@exp1^0,7,c
  2666   00305C  EF34  F018         	goto	u2450
  2667   003060  EF32  F018         	goto	u2451
  2668   003064                     u2451:
  2669   003064  EF4A  F018         	goto	l2506
  2670   003068                     u2450:
  2671   003068  505A               	movf	___fltol@exp1^0,w,c
  2672   00306A  0A80               	xorlw	128
  2673   00306C  0F97               	addlw	151
  2674   00306E  B0D8               	btfsc	status,0,c
  2675   003070  EF3C  F018         	goto	u2461
  2676   003074  EF3E  F018         	goto	u2460
  2677   003078                     u2461:
  2678   003078  EF40  F018         	goto	l2502
  2679   00307C                     u2460:
  2680   00307C  EF03  F018         	goto	l2482
  2681   003080                     l2502:
  2682   003080  90D8               	bcf	status,0,c
  2683   003082  3254               	rrcf	(___fltol@f1+3)^0,f,c
  2684   003084  3253               	rrcf	(___fltol@f1+2)^0,f,c
  2685   003086  3252               	rrcf	(___fltol@f1+1)^0,f,c
  2686   003088  3251               	rrcf	___fltol@f1^0,f,c
  2687   00308A  3E5A               	incfsz	___fltol@exp1^0,f,c
  2688   00308C  EF40  F018         	goto	l2502
  2689   003090  EF62  F018         	goto	l2516
  2690   003094                     l2506:
  2691   003094  0E1F               	movlw	31
  2692   003096  645A               	cpfsgt	___fltol@exp1^0,c
  2693   003098  EF50  F018         	goto	u2471
  2694   00309C  EF52  F018         	goto	u2470
  2695   0030A0                     u2471:
  2696   0030A0  EF5A  F018         	goto	l2514
  2697   0030A4                     u2470:
  2698   0030A4  EF03  F018         	goto	l2482
  2699   0030A8                     l2512:
  2700   0030A8  90D8               	bcf	status,0,c
  2701   0030AA  3651               	rlcf	___fltol@f1^0,f,c
  2702   0030AC  3652               	rlcf	(___fltol@f1+1)^0,f,c
  2703   0030AE  3653               	rlcf	(___fltol@f1+2)^0,f,c
  2704   0030B0  3654               	rlcf	(___fltol@f1+3)^0,f,c
  2705   0030B2  065A               	decf	___fltol@exp1^0,f,c
  2706   0030B4                     l2514:
  2707   0030B4  505A               	movf	___fltol@exp1^0,w,c
  2708   0030B6  A4D8               	btfss	status,2,c
  2709   0030B8  EF60  F018         	goto	u2481
  2710   0030BC  EF62  F018         	goto	u2480
  2711   0030C0                     u2481:
  2712   0030C0  EF54  F018         	goto	l2512
  2713   0030C4                     u2480:
  2714   0030C4                     l2516:
  2715   0030C4  5059               	movf	___fltol@sign1^0,w,c
  2716   0030C6  B4D8               	btfsc	status,2,c
  2717   0030C8  EF68  F018         	goto	u2491
  2718   0030CC  EF6A  F018         	goto	u2490
  2719   0030D0                     u2491:
  2720   0030D0  EF72  F018         	goto	l2520
  2721   0030D4                     u2490:
  2722   0030D4  1E54               	comf	(___fltol@f1+3)^0,f,c
  2723   0030D6  1E53               	comf	(___fltol@f1+2)^0,f,c
  2724   0030D8  1E52               	comf	(___fltol@f1+1)^0,f,c
  2725   0030DA  6C51               	negf	___fltol@f1^0,c
  2726   0030DC  0E00               	movlw	0
  2727   0030DE  2252               	addwfc	(___fltol@f1+1)^0,f,c
  2728   0030E0  2253               	addwfc	(___fltol@f1+2)^0,f,c
  2729   0030E2  2254               	addwfc	(___fltol@f1+3)^0,f,c
  2730   0030E4                     l2520:
  2731   0030E4  C051  F051         	movff	___fltol@f1,?___fltol
  2732   0030E8  C052  F052         	movff	___fltol@f1+1,?___fltol+1
  2733   0030EC  C053  F053         	movff	___fltol@f1+2,?___fltol+2
  2734   0030F0  C054  F054         	movff	___fltol@f1+3,?___fltol+3
  2735   0030F4                     l457:
  2736   0030F4  0012               	return		;funcret
  2737   0030F6                     __end_of___fltol:
  2738                           	callstack 0
  2739                           
  2740 ;; *************** function ___flsub *****************
  2741 ;; Defined at:
  2742 ;;		line 245 in file "C:\Program Files\Microchip\xc8\v2.46\pic\sources\c99\common\sprcadd.c"
  2743 ;; Parameters:    Size  Location     Type
  2744 ;;  b               4   80[COMRAM] long 
  2745 ;;  a               4   84[COMRAM] long 
  2746 ;; Auto vars:     Size  Location     Type
  2747 ;;		None
  2748 ;; Return value:  Size  Location     Type
  2749 ;;                  4   80[COMRAM] long 
  2750 ;; Registers used:
  2751 ;;		wreg, status,2, status,0, cstack
  2752 ;; Tracked objects:
  2753 ;;		On entry : 0/0
  2754 ;;		On exit  : 0/0
  2755 ;;		Unchanged: 0/0
  2756 ;; Data sizes:     COMRAM   BANK0   BANK1   BANK2   BANK3   BANK4   BANK5   BANK6   BANK7   BANK8   BANK9  BANK10  BANK1
      +1  BANK12  BANK13  BANK14  BANK15
  2757 ;;      Params:         8       0       0       0       0       0       0       0       0       0       0       0       
      +0       0       0       0       0
  2758 ;;      Locals:         0       0       0       0       0       0       0       0       0       0       0       0       
      +0       0       0       0       0
  2759 ;;      Temps:          0       0       0       0       0       0       0       0       0       0       0       0       
      +0       0       0       0       0
  2760 ;;      Totals:         8       0       0       0       0       0       0       0       0       0       0       0       
      +0       0       0       0       0
  2761 ;;Total ram usage:        8 bytes
  2762 ;; Hardware stack levels used: 1
  2763 ;; Hardware stack levels required when called: 1
  2764 ;; This function calls:
  2765 ;;		___fladd
  2766 ;; This function is called by:
  2767 ;;		___rem_pio2f
  2768 ;; This function uses a non-reentrant model
  2769 ;;
  2770                           
  2771                           	psect	text7
  2772   003334                     __ptext7:
  2773                           	callstack 0
  2774   003334                     ___flsub:
  2775                           	callstack 27
  2776   003334  0E00               	movlw	0
  2777   003336  1A55               	xorwf	___flsub@a^0,f,c
  2778   003338  0E00               	movlw	0
  2779   00333A  1A56               	xorwf	(___flsub@a+1)^0,f,c
  2780   00333C  0E00               	movlw	0
  2781   00333E  1A57               	xorwf	(___flsub@a+2)^0,f,c
  2782   003340  0E80               	movlw	128
  2783   003342  1A58               	xorwf	(___flsub@a+3)^0,f,c
  2784   003344  C051  F041         	movff	___flsub@b,___fladd@b
  2785   003348  C052  F042         	movff	___flsub@b+1,___fladd@b+1
  2786   00334C  C053  F043         	movff	___flsub@b+2,___fladd@b+2
  2787   003350  C054  F044         	movff	___flsub@b+3,___fladd@b+3
  2788   003354  C055  F045         	movff	___flsub@a,___fladd@a
  2789   003358  C056  F046         	movff	___flsub@a+1,___fladd@a+1
  2790   00335C  C057  F047         	movff	___flsub@a+2,___fladd@a+2
  2791   003360  C058  F048         	movff	___flsub@a+3,___fladd@a+3
  2792   003364  ECA9  F00A         	call	___fladd	;wreg free
  2793   003368  C041  F051         	movff	?___fladd,?___flsub
  2794   00336C  C042  F052         	movff	?___fladd+1,?___flsub+1
  2795   003370  C043  F053         	movff	?___fladd+2,?___flsub+2
  2796   003374  C044  F054         	movff	?___fladd+3,?___flsub+3
  2797   003378  0012               	return		;funcret
  2798   00337A                     __end_of___flsub:
  2799                           	callstack 0
  2800                           
  2801 ;; *************** function ___flneg *****************
  2802 ;; Defined at:
  2803 ;;		line 15 in file "C:\Program Files\Microchip\xc8\v2.46\pic\sources\c99\common\flneg.c"
  2804 ;; Parameters:    Size  Location     Type
  2805 ;;  f1              4   24[BANK0 ] long 
  2806 ;; Auto vars:     Size  Location     Type
  2807 ;;		None
  2808 ;; Return value:  Size  Location     Type
  2809 ;;                  4   24[BANK0 ] long 
  2810 ;; Registers used:
  2811 ;;		wreg, status,2, status,0
  2812 ;; Tracked objects:
  2813 ;;		On entry : 0/0
  2814 ;;		On exit  : 0/0
  2815 ;;		Unchanged: 0/0
  2816 ;; Data sizes:     COMRAM   BANK0   BANK1   BANK2   BANK3   BANK4   BANK5   BANK6   BANK7   BANK8   BANK9  BANK10  BANK1
      +1  BANK12  BANK13  BANK14  BANK15
  2817 ;;      Params:         0       4       0       0       0       0       0       0       0       0       0       0       
      +0       0       0       0       0
  2818 ;;      Locals:         0       0       0       0       0       0       0       0       0       0       0       0       
      +0       0       0       0       0
  2819 ;;      Temps:          0       0       0       0       0       0       0       0       0       0       0       0       
      +0       0       0       0       0
  2820 ;;      Totals:         0       4       0       0       0       0       0       0       0       0       0       0       
      +0       0       0       0       0
  2821 ;;Total ram usage:        4 bytes
  2822 ;; Hardware stack levels used: 1
  2823 ;; This function calls:
  2824 ;;		Nothing
  2825 ;; This function is called by:
  2826 ;;		_sinf
  2827 ;;		___rem_pio2f
  2828 ;; This function uses a non-reentrant model
  2829 ;;
  2830                           
  2831                           	psect	text8
  2832   0033FA                     __ptext8:
  2833                           	callstack 0
  2834   0033FA                     ___flneg:
  2835                           	callstack 28
  2836   0033FA  0100               	movlb	0	; () banked
  2837   0033FC  5178               	movf	___flneg@f1& (0+255),w,b
  2838   0033FE  1179               	iorwf	(___flneg@f1+1)& (0+255),w,b
  2839   003400  117A               	iorwf	(___flneg@f1+2)& (0+255),w,b
  2840   003402  117B               	iorwf	(___flneg@f1+3)& (0+255),w,b
  2841   003404  B4D8               	btfsc	status,2,c
  2842   003406  EF07  F01A         	goto	u2421
  2843   00340A  EF09  F01A         	goto	u2420
  2844   00340E                     u2421:
  2845   00340E  EF11  F01A         	goto	l2476
  2846   003412                     u2420:
  2847   003412                     
  2848                           ; BSR set to: 0
  2849   003412  0E00               	movlw	0
  2850   003414  1B78               	xorwf	___flneg@f1& (0+255),f,b
  2851   003416  0E00               	movlw	0
  2852   003418  1B79               	xorwf	(___flneg@f1+1)& (0+255),f,b
  2853   00341A  0E00               	movlw	0
  2854   00341C  1B7A               	xorwf	(___flneg@f1+2)& (0+255),f,b
  2855   00341E  0E80               	movlw	128
  2856   003420  1B7B               	xorwf	(___flneg@f1+3)& (0+255),f,b
  2857   003422                     l2476:
  2858                           
  2859                           ; BSR set to: 0
  2860   003422  C078  F078         	movff	___flneg@f1,?___flneg
  2861   003426  C079  F079         	movff	___flneg@f1+1,?___flneg+1
  2862   00342A  C07A  F07A         	movff	___flneg@f1+2,?___flneg+2
  2863   00342E  C07B  F07B         	movff	___flneg@f1+3,?___flneg+3
  2864   003432                     
  2865                           ; BSR set to: 0
  2866   003432  0012               	return		;funcret
  2867   003434                     __end_of___flneg:
  2868                           	callstack 0
  2869                           
  2870 ;; *************** function ___cosdf *****************
  2871 ;; Defined at:
  2872 ;;		line 26 in file "C:\Program Files\Microchip\xc8\v2.46\pic\sources\c99\common\__cosdf.c"
  2873 ;; Parameters:    Size  Location     Type
  2874 ;;  x               4   80[COMRAM] long 
  2875 ;; Auto vars:     Size  Location     Type
  2876 ;;  z               4   20[BANK0 ] long 
  2877 ;;  w               4   16[BANK0 ] long 
  2878 ;;  r               4    0[BANK0 ] long 
  2879 ;; Return value:  Size  Location     Type
  2880 ;;                  4   80[COMRAM] float 
  2881 ;; Registers used:
  2882 ;;		wreg, status,2, status,0, prodl, prodh, cstack
  2883 ;; Tracked objects:
  2884 ;;		On entry : 0/0
  2885 ;;		On exit  : 0/0
  2886 ;;		Unchanged: 0/0
  2887 ;; Data sizes:     COMRAM   BANK0   BANK1   BANK2   BANK3   BANK4   BANK5   BANK6   BANK7   BANK8   BANK9  BANK10  BANK1
      +1  BANK12  BANK13  BANK14  BANK15
  2888 ;;      Params:         4       0       0       0       0       0       0       0       0       0       0       0       
      +0       0       0       0       0
  2889 ;;      Locals:         0      24       0       0       0       0       0       0       0       0       0       0       
      +0       0       0       0       0
  2890 ;;      Temps:          0       0       0       0       0       0       0       0       0       0       0       0       
      +0       0       0       0       0
  2891 ;;      Totals:         4      24       0       0       0       0       0       0       0       0       0       0       
      +0       0       0       0       0
  2892 ;;Total ram usage:       28 bytes
  2893 ;; Hardware stack levels used: 1
  2894 ;; Hardware stack levels required when called: 1
  2895 ;; This function calls:
  2896 ;;		___fladd
  2897 ;;		___flmul
  2898 ;; This function is called by:
  2899 ;;		_sinf
  2900 ;; This function uses a non-reentrant model
  2901 ;;
  2902                           
  2903                           	psect	text9
  2904   002A7C                     __ptext9:
  2905                           	callstack 0
  2906   002A7C                     ___cosdf:
  2907                           	callstack 28
  2908   002A7C  C051  F00F         	movff	___cosdf@x,___flmul@b
  2909   002A80  C052  F010         	movff	___cosdf@x+1,___flmul@b+1
  2910   002A84  C053  F011         	movff	___cosdf@x+2,___flmul@b+2
  2911   002A88  C054  F012         	movff	___cosdf@x+3,___flmul@b+3
  2912   002A8C  C051  F013         	movff	___cosdf@x,___flmul@a
  2913   002A90  C052  F014         	movff	___cosdf@x+1,___flmul@a+1
  2914   002A94  C053  F015         	movff	___cosdf@x+2,___flmul@a+2
  2915   002A98  C054  F016         	movff	___cosdf@x+3,___flmul@a+3
  2916   002A9C  EC09  F00D         	call	___flmul	;wreg free
  2917   002AA0  C00F  F074         	movff	?___flmul,___cosdf@z
  2918   002AA4  C010  F075         	movff	?___flmul+1,___cosdf@z+1
  2919   002AA8  C011  F076         	movff	?___flmul+2,___cosdf@z+2
  2920   002AAC  C012  F077         	movff	?___flmul+3,___cosdf@z+3
  2921   002AB0  C074  F00F         	movff	___cosdf@z,___flmul@b
  2922   002AB4  C075  F010         	movff	___cosdf@z+1,___flmul@b+1
  2923   002AB8  C076  F011         	movff	___cosdf@z+2,___flmul@b+2
  2924   002ABC  C077  F012         	movff	___cosdf@z+3,___flmul@b+3
  2925   002AC0  C074  F013         	movff	___cosdf@z,___flmul@a
  2926   002AC4  C075  F014         	movff	___cosdf@z+1,___flmul@a+1
  2927   002AC8  C076  F015         	movff	___cosdf@z+2,___flmul@a+2
  2928   002ACC  C077  F016         	movff	___cosdf@z+3,___flmul@a+3
  2929   002AD0  EC09  F00D         	call	___flmul	;wreg free
  2930   002AD4  C00F  F070         	movff	?___flmul,___cosdf@w
  2931   002AD8  C010  F071         	movff	?___flmul+1,___cosdf@w+1
  2932   002ADC  C011  F072         	movff	?___flmul+2,___cosdf@w+2
  2933   002AE0  C012  F073         	movff	?___flmul+3,___cosdf@w+3
  2934   002AE4  0E17               	movlw	23
  2935   002AE6  6E13               	movwf	___flmul@a^0,c
  2936   002AE8  0E9A               	movlw	154
  2937   002AEA  6E14               	movwf	(___flmul@a+1)^0,c
  2938   002AEC  0ECC               	movlw	204
  2939   002AEE  6E15               	movwf	(___flmul@a+2)^0,c
  2940   002AF0  0E37               	movlw	55
  2941   002AF2  6E16               	movwf	(___flmul@a+3)^0,c
  2942   002AF4  C074  F00F         	movff	___cosdf@z,___flmul@b
  2943   002AF8  C075  F010         	movff	___cosdf@z+1,___flmul@b+1
  2944   002AFC  C076  F011         	movff	___cosdf@z+2,___flmul@b+2
  2945   002B00  C077  F012         	movff	___cosdf@z+3,___flmul@b+3
  2946   002B04  EC09  F00D         	call	___flmul	;wreg free
  2947   002B08  C00F  F041         	movff	?___flmul,___fladd@b
  2948   002B0C  C010  F042         	movff	?___flmul+1,___fladd@b+1
  2949   002B10  C011  F043         	movff	?___flmul+2,___fladd@b+2
  2950   002B14  C012  F044         	movff	?___flmul+3,___fladd@b+3
  2951   002B18  0E3F               	movlw	63
  2952   002B1A  6E45               	movwf	___fladd@a^0,c
  2953   002B1C  0E04               	movlw	4
  2954   002B1E  6E46               	movwf	(___fladd@a+1)^0,c
  2955   002B20  0EB6               	movlw	182
  2956   002B22  6E47               	movwf	(___fladd@a+2)^0,c
  2957   002B24  0EBA               	movlw	186
  2958   002B26  6E48               	movwf	(___fladd@a+3)^0,c
  2959   002B28  ECA9  F00A         	call	___fladd	;wreg free
  2960   002B2C  C041  F060         	movff	?___fladd,___cosdf@r
  2961   002B30  C042  F061         	movff	?___fladd+1,___cosdf@r+1
  2962   002B34  C043  F062         	movff	?___fladd+2,___cosdf@r+2
  2963   002B38  C044  F063         	movff	?___fladd+3,___cosdf@r+3
  2964   002B3C  0E00               	movlw	0
  2965   002B3E  6E45               	movwf	___fladd@a^0,c
  2966   002B40  0E00               	movlw	0
  2967   002B42  6E46               	movwf	(___fladd@a+1)^0,c
  2968   002B44  0E80               	movlw	128
  2969   002B46  6E47               	movwf	(___fladd@a+2)^0,c
  2970   002B48  0E3F               	movlw	63
  2971   002B4A  6E48               	movwf	(___fladd@a+3)^0,c
  2972   002B4C  0E00               	movlw	0
  2973   002B4E  6E13               	movwf	___flmul@a^0,c
  2974   002B50  0E00               	movlw	0
  2975   002B52  6E14               	movwf	(___flmul@a+1)^0,c
  2976   002B54  0E00               	movlw	0
  2977   002B56  6E15               	movwf	(___flmul@a+2)^0,c
  2978   002B58  0EBF               	movlw	191
  2979   002B5A  6E16               	movwf	(___flmul@a+3)^0,c
  2980   002B5C  C074  F00F         	movff	___cosdf@z,___flmul@b
  2981   002B60  C075  F010         	movff	___cosdf@z+1,___flmul@b+1
  2982   002B64  C076  F011         	movff	___cosdf@z+2,___flmul@b+2
  2983   002B68  C077  F012         	movff	___cosdf@z+3,___flmul@b+3
  2984   002B6C  EC09  F00D         	call	___flmul	;wreg free
  2985   002B70  C00F  F041         	movff	?___flmul,___fladd@b
  2986   002B74  C010  F042         	movff	?___flmul+1,___fladd@b+1
  2987   002B78  C011  F043         	movff	?___flmul+2,___fladd@b+2
  2988   002B7C  C012  F044         	movff	?___flmul+3,___fladd@b+3
  2989   002B80  ECA9  F00A         	call	___fladd	;wreg free
  2990   002B84  C041  F064         	movff	?___fladd,___cosdf$2426
  2991   002B88  C042  F065         	movff	?___fladd+1,___cosdf$2426+1
  2992   002B8C  C043  F066         	movff	?___fladd+2,___cosdf$2426+2
  2993   002B90  C044  F067         	movff	?___fladd+3,___cosdf$2426+3
  2994   002B94  C074  F013         	movff	___cosdf@z,___flmul@a
  2995   002B98  C075  F014         	movff	___cosdf@z+1,___flmul@a+1
  2996   002B9C  C076  F015         	movff	___cosdf@z+2,___flmul@a+2
  2997   002BA0  C077  F016         	movff	___cosdf@z+3,___flmul@a+3
  2998   002BA4  C070  F00F         	movff	___cosdf@w,___flmul@b
  2999   002BA8  C071  F010         	movff	___cosdf@w+1,___flmul@b+1
  3000   002BAC  C072  F011         	movff	___cosdf@w+2,___flmul@b+2
  3001   002BB0  C073  F012         	movff	___cosdf@w+3,___flmul@b+3
  3002   002BB4  EC09  F00D         	call	___flmul	;wreg free
  3003   002BB8  C00F  F068         	movff	?___flmul,___cosdf$2427
  3004   002BBC  C010  F069         	movff	?___flmul+1,___cosdf$2427+1
  3005   002BC0  C011  F06A         	movff	?___flmul+2,___cosdf$2427+2
  3006   002BC4  C012  F06B         	movff	?___flmul+3,___cosdf$2427+3
  3007   002BC8  0E9F               	movlw	159
  3008   002BCA  6E13               	movwf	___flmul@a^0,c
  3009   002BCC  0EAA               	movlw	170
  3010   002BCE  6E14               	movwf	(___flmul@a+1)^0,c
  3011   002BD0  0E2A               	movlw	42
  3012   002BD2  6E15               	movwf	(___flmul@a+2)^0,c
  3013   002BD4  0E3D               	movlw	61
  3014   002BD6  6E16               	movwf	(___flmul@a+3)^0,c
  3015   002BD8  C070  F00F         	movff	___cosdf@w,___flmul@b
  3016   002BDC  C071  F010         	movff	___cosdf@w+1,___flmul@b+1
  3017   002BE0  C072  F011         	movff	___cosdf@w+2,___flmul@b+2
  3018   002BE4  C073  F012         	movff	___cosdf@w+3,___flmul@b+3
  3019   002BE8  EC09  F00D         	call	___flmul	;wreg free
  3020   002BEC  C00F  F045         	movff	?___flmul,___fladd@a
  3021   002BF0  C010  F046         	movff	?___flmul+1,___fladd@a+1
  3022   002BF4  C011  F047         	movff	?___flmul+2,___fladd@a+2
  3023   002BF8  C012  F048         	movff	?___flmul+3,___fladd@a+3
  3024   002BFC  C064  F041         	movff	___cosdf$2426,___fladd@b
  3025   002C00  C065  F042         	movff	___cosdf$2426+1,___fladd@b+1
  3026   002C04  C066  F043         	movff	___cosdf$2426+2,___fladd@b+2
  3027   002C08  C067  F044         	movff	___cosdf$2426+3,___fladd@b+3
  3028   002C0C  ECA9  F00A         	call	___fladd	;wreg free
  3029   002C10  C041  F06C         	movff	?___fladd,___cosdf$2428
  3030   002C14  C042  F06D         	movff	?___fladd+1,___cosdf$2428+1
  3031   002C18  C043  F06E         	movff	?___fladd+2,___cosdf$2428+2
  3032   002C1C  C044  F06F         	movff	?___fladd+3,___cosdf$2428+3
  3033   002C20  C06C  F041         	movff	___cosdf$2428,___fladd@b
  3034   002C24  C06D  F042         	movff	___cosdf$2428+1,___fladd@b+1
  3035   002C28  C06E  F043         	movff	___cosdf$2428+2,___fladd@b+2
  3036   002C2C  C06F  F044         	movff	___cosdf$2428+3,___fladd@b+3
  3037   002C30  C060  F013         	movff	___cosdf@r,___flmul@a
  3038   002C34  C061  F014         	movff	___cosdf@r+1,___flmul@a+1
  3039   002C38  C062  F015         	movff	___cosdf@r+2,___flmul@a+2
  3040   002C3C  C063  F016         	movff	___cosdf@r+3,___flmul@a+3
  3041   002C40  C068  F00F         	movff	___cosdf$2427,___flmul@b
  3042   002C44  C069  F010         	movff	___cosdf$2427+1,___flmul@b+1
  3043   002C48  C06A  F011         	movff	___cosdf$2427+2,___flmul@b+2
  3044   002C4C  C06B  F012         	movff	___cosdf$2427+3,___flmul@b+3
  3045   002C50  EC09  F00D         	call	___flmul	;wreg free
  3046   002C54  C00F  F045         	movff	?___flmul,___fladd@a
  3047   002C58  C010  F046         	movff	?___flmul+1,___fladd@a+1
  3048   002C5C  C011  F047         	movff	?___flmul+2,___fladd@a+2
  3049   002C60  C012  F048         	movff	?___flmul+3,___fladd@a+3
  3050   002C64  ECA9  F00A         	call	___fladd	;wreg free
  3051   002C68  C041  F051         	movff	?___fladd,?___cosdf
  3052   002C6C  C042  F052         	movff	?___fladd+1,?___cosdf+1
  3053   002C70  C043  F053         	movff	?___fladd+2,?___cosdf+2
  3054   002C74  C044  F054         	movff	?___fladd+3,?___cosdf+3
  3055   002C78  0012               	return		;funcret
  3056   002C7A                     __end_of___cosdf:
  3057                           	callstack 0
  3058                           
  3059 ;; *************** function ___flmul *****************
  3060 ;; Defined at:
  3061 ;;		line 8 in file "C:\Program Files\Microchip\xc8\v2.46\pic\sources\c99\common\sprcmul.c"
  3062 ;; Parameters:    Size  Location     Type
  3063 ;;  b               4   14[COMRAM] float 
  3064 ;;  a               4   18[COMRAM] float 
  3065 ;; Auto vars:     Size  Location     Type
  3066 ;;  prod            4   33[COMRAM] struct .
  3067 ;;  grs             4   27[COMRAM] unsigned long 
  3068 ;;  temp            2   37[COMRAM] struct .
  3069 ;;  bexp            1   32[COMRAM] unsigned char 
  3070 ;;  aexp            1   31[COMRAM] unsigned char 
  3071 ;;  sign            1   26[COMRAM] unsigned char 
  3072 ;; Return value:  Size  Location     Type
  3073 ;;                  4   14[COMRAM] unsigned char 
  3074 ;; Registers used:
  3075 ;;		wreg, status,2, status,0, prodl, prodh
  3076 ;; Tracked objects:
  3077 ;;		On entry : 0/0
  3078 ;;		On exit  : 0/0
  3079 ;;		Unchanged: 0/0
  3080 ;; Data sizes:     COMRAM   BANK0   BANK1   BANK2   BANK3   BANK4   BANK5   BANK6   BANK7   BANK8   BANK9  BANK10  BANK1
      +1  BANK12  BANK13  BANK14  BANK15
  3081 ;;      Params:         8       0       0       0       0       0       0       0       0       0       0       0       
      +0       0       0       0       0
  3082 ;;      Locals:        13       0       0       0       0       0       0       0       0       0       0       0       
      +0       0       0       0       0
  3083 ;;      Temps:          4       0       0       0       0       0       0       0       0       0       0       0       
      +0       0       0       0       0
  3084 ;;      Totals:        25       0       0       0       0       0       0       0       0       0       0       0       
      +0       0       0       0       0
  3085 ;;Total ram usage:       25 bytes
  3086 ;; Hardware stack levels used: 1
  3087 ;; This function calls:
  3088 ;;		Nothing
  3089 ;; This function is called by:
  3090 ;;		_main
  3091 ;;		___cosdf
  3092 ;;		___rem_pio2f
  3093 ;;		___sindf
  3094 ;; This function uses a non-reentrant model
  3095 ;;
  3096                           
  3097                           	psect	text10
  3098   001A12                     __ptext10:
  3099                           	callstack 0
  3100   001A12                     ___flmul:
  3101                           	callstack 28
  3102   001A12  5012               	movf	(___flmul@b+3)^0,w,c
  3103   001A14  0B80               	andlw	128
  3104   001A16  6E1B               	movwf	___flmul@sign^0,c
  3105   001A18  5012               	movf	(___flmul@b+3)^0,w,c
  3106   001A1A  2412               	addwf	(___flmul@b+3)^0,w,c
  3107   001A1C  6E21               	movwf	___flmul@bexp^0,c
  3108   001A1E  AE11               	btfss	(___flmul@b+2)^0,7,c
  3109   001A20  EF14  F00D         	goto	u2231
  3110   001A24  EF16  F00D         	goto	u2230
  3111   001A28                     u2231:
  3112   001A28  EF17  F00D         	goto	l2342
  3113   001A2C                     u2230:
  3114   001A2C  8021               	bsf	___flmul@bexp^0,0,c
  3115   001A2E                     l2342:
  3116   001A2E  5021               	movf	___flmul@bexp^0,w,c
  3117   001A30  B4D8               	btfsc	status,2,c
  3118   001A32  EF1D  F00D         	goto	u2241
  3119   001A36  EF1F  F00D         	goto	u2240
  3120   001A3A                     u2241:
  3121   001A3A  EF32  F00D         	goto	l2350
  3122   001A3E                     u2240:
  3123   001A3E  2821               	incf	___flmul@bexp^0,w,c
  3124   001A40  A4D8               	btfss	status,2,c
  3125   001A42  EF25  F00D         	goto	u2251
  3126   001A46  EF27  F00D         	goto	u2250
  3127   001A4A                     u2251:
  3128   001A4A  EF2F  F00D         	goto	l2348
  3129   001A4E                     u2250:
  3130   001A4E  0E00               	movlw	0
  3131   001A50  6E0F               	movwf	___flmul@b^0,c
  3132   001A52  0E00               	movlw	0
  3133   001A54  6E10               	movwf	(___flmul@b+1)^0,c
  3134   001A56  0E00               	movlw	0
  3135   001A58  6E11               	movwf	(___flmul@b+2)^0,c
  3136   001A5A  0E00               	movlw	0
  3137   001A5C  6E12               	movwf	(___flmul@b+3)^0,c
  3138   001A5E                     l2348:
  3139   001A5E  8E11               	bsf	(___flmul@b+2)^0,7,c
  3140   001A60  EF3A  F00D         	goto	l2352
  3141   001A64                     l2350:
  3142   001A64  0E00               	movlw	0
  3143   001A66  6E0F               	movwf	___flmul@b^0,c
  3144   001A68  0E00               	movlw	0
  3145   001A6A  6E10               	movwf	(___flmul@b+1)^0,c
  3146   001A6C  0E00               	movlw	0
  3147   001A6E  6E11               	movwf	(___flmul@b+2)^0,c
  3148   001A70  0E00               	movlw	0
  3149   001A72  6E12               	movwf	(___flmul@b+3)^0,c
  3150   001A74                     l2352:
  3151   001A74  5016               	movf	(___flmul@a+3)^0,w,c
  3152   001A76  0B80               	andlw	128
  3153   001A78  1A1B               	xorwf	___flmul@sign^0,f,c
  3154   001A7A  5016               	movf	(___flmul@a+3)^0,w,c
  3155   001A7C  2416               	addwf	(___flmul@a+3)^0,w,c
  3156   001A7E  6E20               	movwf	___flmul@aexp^0,c
  3157   001A80  AE15               	btfss	(___flmul@a+2)^0,7,c
  3158   001A82  EF45  F00D         	goto	u2261
  3159   001A86  EF47  F00D         	goto	u2260
  3160   001A8A                     u2261:
  3161   001A8A  EF48  F00D         	goto	l2360
  3162   001A8E                     u2260:
  3163   001A8E  8020               	bsf	___flmul@aexp^0,0,c
  3164   001A90                     l2360:
  3165   001A90  5020               	movf	___flmul@aexp^0,w,c
  3166   001A92  B4D8               	btfsc	status,2,c
  3167   001A94  EF4E  F00D         	goto	u2271
  3168   001A98  EF50  F00D         	goto	u2270
  3169   001A9C                     u2271:
  3170   001A9C  EF63  F00D         	goto	l2368
  3171   001AA0                     u2270:
  3172   001AA0  2820               	incf	___flmul@aexp^0,w,c
  3173   001AA2  A4D8               	btfss	status,2,c
  3174   001AA4  EF56  F00D         	goto	u2281
  3175   001AA8  EF58  F00D         	goto	u2280
  3176   001AAC                     u2281:
  3177   001AAC  EF60  F00D         	goto	l2366
  3178   001AB0                     u2280:
  3179   001AB0  0E00               	movlw	0
  3180   001AB2  6E13               	movwf	___flmul@a^0,c
  3181   001AB4  0E00               	movlw	0
  3182   001AB6  6E14               	movwf	(___flmul@a+1)^0,c
  3183   001AB8  0E00               	movlw	0
  3184   001ABA  6E15               	movwf	(___flmul@a+2)^0,c
  3185   001ABC  0E00               	movlw	0
  3186   001ABE  6E16               	movwf	(___flmul@a+3)^0,c
  3187   001AC0                     l2366:
  3188   001AC0  8E15               	bsf	(___flmul@a+2)^0,7,c
  3189   001AC2  EF6B  F00D         	goto	l774
  3190   001AC6                     l2368:
  3191   001AC6  0E00               	movlw	0
  3192   001AC8  6E13               	movwf	___flmul@a^0,c
  3193   001ACA  0E00               	movlw	0
  3194   001ACC  6E14               	movwf	(___flmul@a+1)^0,c
  3195   001ACE  0E00               	movlw	0
  3196   001AD0  6E15               	movwf	(___flmul@a+2)^0,c
  3197   001AD2  0E00               	movlw	0
  3198   001AD4  6E16               	movwf	(___flmul@a+3)^0,c
  3199   001AD6                     l774:
  3200   001AD6  5020               	movf	___flmul@aexp^0,w,c
  3201   001AD8  B4D8               	btfsc	status,2,c
  3202   001ADA  EF71  F00D         	goto	u2291
  3203   001ADE  EF73  F00D         	goto	u2290
  3204   001AE2                     u2291:
  3205   001AE2  EF7B  F00D         	goto	l2372
  3206   001AE6                     u2290:
  3207   001AE6  5021               	movf	___flmul@bexp^0,w,c
  3208   001AE8  A4D8               	btfss	status,2,c
  3209   001AEA  EF79  F00D         	goto	u2301
  3210   001AEE  EF7B  F00D         	goto	u2300
  3211   001AF2                     u2301:
  3212   001AF2  EF85  F00D         	goto	l2376
  3213   001AF6                     u2300:
  3214   001AF6                     l2372:
  3215   001AF6  0E00               	movlw	0
  3216   001AF8  6E0F               	movwf	?___flmul^0,c
  3217   001AFA  0E00               	movlw	0
  3218   001AFC  6E10               	movwf	(?___flmul+1)^0,c
  3219   001AFE  0E00               	movlw	0
  3220   001B00  6E11               	movwf	(?___flmul+2)^0,c
  3221   001B02  0E00               	movlw	0
  3222   001B04  6E12               	movwf	(?___flmul+3)^0,c
  3223   001B06  EF1D  F00F         	goto	l778
  3224   001B0A                     l2376:
  3225   001B0A  5015               	movf	(___flmul@a+2)^0,w,c
  3226   001B0C  020F               	mulwf	___flmul@b^0,c
  3227   001B0E  CFF3 F026          	movff	prodl,___flmul@temp
  3228   001B12  CFF4 F027          	movff	prodh,___flmul@temp+1
  3229   001B16  5026               	movf	___flmul@temp^0,w,c
  3230   001B18  6E1C               	movwf	___flmul@grs^0,c
  3231   001B1A  6A1D               	clrf	(___flmul@grs+1)^0,c
  3232   001B1C  6A1E               	clrf	(___flmul@grs+2)^0,c
  3233   001B1E  6A1F               	clrf	(___flmul@grs+3)^0,c
  3234   001B20  5027               	movf	(___flmul@temp+1)^0,w,c
  3235   001B22  6E22               	movwf	___flmul@prod^0,c
  3236   001B24  6A23               	clrf	(___flmul@prod+1)^0,c
  3237   001B26  6A24               	clrf	(___flmul@prod+2)^0,c
  3238   001B28  6A25               	clrf	(___flmul@prod+3)^0,c
  3239   001B2A  5014               	movf	(___flmul@a+1)^0,w,c
  3240   001B2C  0210               	mulwf	(___flmul@b+1)^0,c
  3241   001B2E  CFF3 F026          	movff	prodl,___flmul@temp
  3242   001B32  CFF4 F027          	movff	prodh,___flmul@temp+1
  3243   001B36  5026               	movf	___flmul@temp^0,w,c
  3244   001B38  261C               	addwf	___flmul@grs^0,f,c
  3245   001B3A  0E00               	movlw	0
  3246   001B3C  221D               	addwfc	(___flmul@grs+1)^0,f,c
  3247   001B3E  221E               	addwfc	(___flmul@grs+2)^0,f,c
  3248   001B40  221F               	addwfc	(___flmul@grs+3)^0,f,c
  3249   001B42  5027               	movf	(___flmul@temp+1)^0,w,c
  3250   001B44  2622               	addwf	___flmul@prod^0,f,c
  3251   001B46  0E00               	movlw	0
  3252   001B48  2223               	addwfc	(___flmul@prod+1)^0,f,c
  3253   001B4A  2224               	addwfc	(___flmul@prod+2)^0,f,c
  3254   001B4C  2225               	addwfc	(___flmul@prod+3)^0,f,c
  3255   001B4E  5013               	movf	___flmul@a^0,w,c
  3256   001B50  0211               	mulwf	(___flmul@b+2)^0,c
  3257   001B52  CFF3 F026          	movff	prodl,___flmul@temp
  3258   001B56  CFF4 F027          	movff	prodh,___flmul@temp+1
  3259   001B5A  5026               	movf	___flmul@temp^0,w,c
  3260   001B5C  261C               	addwf	___flmul@grs^0,f,c
  3261   001B5E  0E00               	movlw	0
  3262   001B60  221D               	addwfc	(___flmul@grs+1)^0,f,c
  3263   001B62  221E               	addwfc	(___flmul@grs+2)^0,f,c
  3264   001B64  221F               	addwfc	(___flmul@grs+3)^0,f,c
  3265   001B66  5027               	movf	(___flmul@temp+1)^0,w,c
  3266   001B68  2622               	addwf	___flmul@prod^0,f,c
  3267   001B6A  0E00               	movlw	0
  3268   001B6C  2223               	addwfc	(___flmul@prod+1)^0,f,c
  3269   001B6E  2224               	addwfc	(___flmul@prod+2)^0,f,c
  3270   001B70  2225               	addwfc	(___flmul@prod+3)^0,f,c
  3271   001B72  C01E  F01F         	movff	___flmul@grs+2,___flmul@grs+3
  3272   001B76  C01D  F01E         	movff	___flmul@grs+1,___flmul@grs+2
  3273   001B7A  C01C  F01D         	movff	___flmul@grs,___flmul@grs+1
  3274   001B7E  6A1C               	clrf	___flmul@grs^0,c
  3275   001B80  5013               	movf	___flmul@a^0,w,c
  3276   001B82  0210               	mulwf	(___flmul@b+1)^0,c
  3277   001B84  CFF3 F026          	movff	prodl,___flmul@temp
  3278   001B88  CFF4 F027          	movff	prodh,___flmul@temp+1
  3279   001B8C  5026               	movf	___flmul@temp^0,w,c
  3280   001B8E  261C               	addwf	___flmul@grs^0,f,c
  3281   001B90  5027               	movf	(___flmul@temp+1)^0,w,c
  3282   001B92  221D               	addwfc	(___flmul@grs+1)^0,f,c
  3283   001B94  0E00               	movlw	0
  3284   001B96  221E               	addwfc	(___flmul@grs+2)^0,f,c
  3285   001B98  0E00               	movlw	0
  3286   001B9A  221F               	addwfc	(___flmul@grs+3)^0,f,c
  3287   001B9C  5014               	movf	(___flmul@a+1)^0,w,c
  3288   001B9E  020F               	mulwf	___flmul@b^0,c
  3289   001BA0  CFF3 F026          	movff	prodl,___flmul@temp
  3290   001BA4  CFF4 F027          	movff	prodh,___flmul@temp+1
  3291   001BA8  5026               	movf	___flmul@temp^0,w,c
  3292   001BAA  261C               	addwf	___flmul@grs^0,f,c
  3293   001BAC  5027               	movf	(___flmul@temp+1)^0,w,c
  3294   001BAE  221D               	addwfc	(___flmul@grs+1)^0,f,c
  3295   001BB0  0E00               	movlw	0
  3296   001BB2  221E               	addwfc	(___flmul@grs+2)^0,f,c
  3297   001BB4  0E00               	movlw	0
  3298   001BB6  221F               	addwfc	(___flmul@grs+3)^0,f,c
  3299   001BB8  C01E  F01F         	movff	___flmul@grs+2,___flmul@grs+3
  3300   001BBC  C01D  F01E         	movff	___flmul@grs+1,___flmul@grs+2
  3301   001BC0  C01C  F01D         	movff	___flmul@grs,___flmul@grs+1
  3302   001BC4  6A1C               	clrf	___flmul@grs^0,c
  3303   001BC6  5013               	movf	___flmul@a^0,w,c
  3304   001BC8  020F               	mulwf	___flmul@b^0,c
  3305   001BCA  CFF3 F026          	movff	prodl,___flmul@temp
  3306   001BCE  CFF4 F027          	movff	prodh,___flmul@temp+1
  3307   001BD2  5026               	movf	___flmul@temp^0,w,c
  3308   001BD4  261C               	addwf	___flmul@grs^0,f,c
  3309   001BD6  5027               	movf	(___flmul@temp+1)^0,w,c
  3310   001BD8  221D               	addwfc	(___flmul@grs+1)^0,f,c
  3311   001BDA  0E00               	movlw	0
  3312   001BDC  221E               	addwfc	(___flmul@grs+2)^0,f,c
  3313   001BDE  0E00               	movlw	0
  3314   001BE0  221F               	addwfc	(___flmul@grs+3)^0,f,c
  3315   001BE2  5015               	movf	(___flmul@a+2)^0,w,c
  3316   001BE4  0210               	mulwf	(___flmul@b+1)^0,c
  3317   001BE6  CFF3 F026          	movff	prodl,___flmul@temp
  3318   001BEA  CFF4 F027          	movff	prodh,___flmul@temp+1
  3319   001BEE  5026               	movf	___flmul@temp^0,w,c
  3320   001BF0  2622               	addwf	___flmul@prod^0,f,c
  3321   001BF2  5027               	movf	(___flmul@temp+1)^0,w,c
  3322   001BF4  2223               	addwfc	(___flmul@prod+1)^0,f,c
  3323   001BF6  0E00               	movlw	0
  3324   001BF8  2224               	addwfc	(___flmul@prod+2)^0,f,c
  3325   001BFA  0E00               	movlw	0
  3326   001BFC  2225               	addwfc	(___flmul@prod+3)^0,f,c
  3327   001BFE  5014               	movf	(___flmul@a+1)^0,w,c
  3328   001C00  0211               	mulwf	(___flmul@b+2)^0,c
  3329   001C02  CFF3 F026          	movff	prodl,___flmul@temp
  3330   001C06  CFF4 F027          	movff	prodh,___flmul@temp+1
  3331   001C0A  5026               	movf	___flmul@temp^0,w,c
  3332   001C0C  2622               	addwf	___flmul@prod^0,f,c
  3333   001C0E  5027               	movf	(___flmul@temp+1)^0,w,c
  3334   001C10  2223               	addwfc	(___flmul@prod+1)^0,f,c
  3335   001C12  0E00               	movlw	0
  3336   001C14  2224               	addwfc	(___flmul@prod+2)^0,f,c
  3337   001C16  0E00               	movlw	0
  3338   001C18  2225               	addwfc	(___flmul@prod+3)^0,f,c
  3339   001C1A  5015               	movf	(___flmul@a+2)^0,w,c
  3340   001C1C  0211               	mulwf	(___flmul@b+2)^0,c
  3341   001C1E  CFF3 F026          	movff	prodl,___flmul@temp
  3342   001C22  CFF4 F027          	movff	prodh,___flmul@temp+1
  3343   001C26  5026               	movf	___flmul@temp^0,w,c
  3344   001C28  6E17               	movwf	??___flmul^0,c
  3345   001C2A  5027               	movf	(___flmul@temp+1)^0,w,c
  3346   001C2C  6E18               	movwf	(??___flmul+1)^0,c
  3347   001C2E  6A19               	clrf	(??___flmul+2)^0,c
  3348   001C30  6A1A               	clrf	(??___flmul+3)^0,c
  3349   001C32  C019  F01A         	movff	??___flmul+2,??___flmul+3
  3350   001C36  C018  F019         	movff	??___flmul+1,??___flmul+2
  3351   001C3A  C017  F018         	movff	??___flmul,??___flmul+1
  3352   001C3E  6A17               	clrf	??___flmul^0,c
  3353   001C40  5017               	movf	??___flmul^0,w,c
  3354   001C42  2622               	addwf	___flmul@prod^0,f,c
  3355   001C44  5018               	movf	(??___flmul+1)^0,w,c
  3356   001C46  2223               	addwfc	(___flmul@prod+1)^0,f,c
  3357   001C48  5019               	movf	(??___flmul+2)^0,w,c
  3358   001C4A  2224               	addwfc	(___flmul@prod+2)^0,f,c
  3359   001C4C  501A               	movf	(??___flmul+3)^0,w,c
  3360   001C4E  2225               	addwfc	(___flmul@prod+3)^0,f,c
  3361   001C50  C01C  F017         	movff	___flmul@grs,??___flmul
  3362   001C54  C01D  F018         	movff	___flmul@grs+1,??___flmul+1
  3363   001C58  C01E  F019         	movff	___flmul@grs+2,??___flmul+2
  3364   001C5C  C01F  F01A         	movff	___flmul@grs+3,??___flmul+3
  3365   001C60  0E19               	movlw	25
  3366   001C62  EF38  F00E         	goto	u2310
  3367   001C66                     u2315:
  3368   001C66  90D8               	bcf	status,0,c
  3369   001C68  321A               	rrcf	(??___flmul+3)^0,f,c
  3370   001C6A  3219               	rrcf	(??___flmul+2)^0,f,c
  3371   001C6C  3218               	rrcf	(??___flmul+1)^0,f,c
  3372   001C6E  3217               	rrcf	??___flmul^0,f,c
  3373   001C70                     u2310:
  3374   001C70  2EE8               	decfsz	wreg,f,c
  3375   001C72  EF33  F00E         	goto	u2315
  3376   001C76  5017               	movf	??___flmul^0,w,c
  3377   001C78  2622               	addwf	___flmul@prod^0,f,c
  3378   001C7A  5018               	movf	(??___flmul+1)^0,w,c
  3379   001C7C  2223               	addwfc	(___flmul@prod+1)^0,f,c
  3380   001C7E  5019               	movf	(??___flmul+2)^0,w,c
  3381   001C80  2224               	addwfc	(___flmul@prod+2)^0,f,c
  3382   001C82  501A               	movf	(??___flmul+3)^0,w,c
  3383   001C84  2225               	addwfc	(___flmul@prod+3)^0,f,c
  3384   001C86  C01E  F01F         	movff	___flmul@grs+2,___flmul@grs+3
  3385   001C8A  C01D  F01E         	movff	___flmul@grs+1,___flmul@grs+2
  3386   001C8E  C01C  F01D         	movff	___flmul@grs,___flmul@grs+1
  3387   001C92  6A1C               	clrf	___flmul@grs^0,c
  3388   001C94  5020               	movf	___flmul@aexp^0,w,c
  3389   001C96  C021  F017         	movff	___flmul@bexp,??___flmul
  3390   001C9A  6A18               	clrf	(??___flmul+1)^0,c
  3391   001C9C  2617               	addwf	??___flmul^0,f,c
  3392   001C9E  0E00               	movlw	0
  3393   001CA0  2218               	addwfc	(??___flmul+1)^0,f,c
  3394   001CA2  0E82               	movlw	130
  3395   001CA4  2417               	addwf	??___flmul^0,w,c
  3396   001CA6  6E26               	movwf	___flmul@temp^0,c
  3397   001CA8  0EFF               	movlw	255
  3398   001CAA  2018               	addwfc	(??___flmul+1)^0,w,c
  3399   001CAC  6E27               	movwf	(___flmul@temp+1)^0,c
  3400   001CAE  EF6E  F00E         	goto	l2424
  3401   001CB2                     l2418:
  3402   001CB2  90D8               	bcf	status,0,c
  3403   001CB4  3622               	rlcf	___flmul@prod^0,f,c
  3404   001CB6  3623               	rlcf	(___flmul@prod+1)^0,f,c
  3405   001CB8  3624               	rlcf	(___flmul@prod+2)^0,f,c
  3406   001CBA  3625               	rlcf	(___flmul@prod+3)^0,f,c
  3407   001CBC  AE1F               	btfss	(___flmul@grs+3)^0,7,c
  3408   001CBE  EF63  F00E         	goto	u2321
  3409   001CC2  EF65  F00E         	goto	u2320
  3410   001CC6                     u2321:
  3411   001CC6  EF66  F00E         	goto	l781
  3412   001CCA                     u2320:
  3413   001CCA  8022               	bsf	___flmul@prod^0,0,c
  3414   001CCC                     l781:
  3415   001CCC  90D8               	bcf	status,0,c
  3416   001CCE  361C               	rlcf	___flmul@grs^0,f,c
  3417   001CD0  361D               	rlcf	(___flmul@grs+1)^0,f,c
  3418   001CD2  361E               	rlcf	(___flmul@grs+2)^0,f,c
  3419   001CD4  361F               	rlcf	(___flmul@grs+3)^0,f,c
  3420   001CD6  0626               	decf	___flmul@temp^0,f,c
  3421   001CD8  A0D8               	btfss	status,0,c
  3422   001CDA  0627               	decf	(___flmul@temp+1)^0,f,c
  3423   001CDC                     l2424:
  3424   001CDC  AE24               	btfss	(___flmul@prod+2)^0,7,c
  3425   001CDE  EF73  F00E         	goto	u2331
  3426   001CE2  EF75  F00E         	goto	u2330
  3427   001CE6                     u2331:
  3428   001CE6  EF59  F00E         	goto	l2418
  3429   001CEA                     u2330:
  3430   001CEA  0E00               	movlw	0
  3431   001CEC  6E20               	movwf	___flmul@aexp^0,c
  3432   001CEE  AE1F               	btfss	(___flmul@grs+3)^0,7,c
  3433   001CF0  EF7C  F00E         	goto	u2341
  3434   001CF4  EF7E  F00E         	goto	u2340
  3435   001CF8                     u2341:
  3436   001CF8  EFA2  F00E         	goto	l783
  3437   001CFC                     u2340:
  3438   001CFC  0EFF               	movlw	255
  3439   001CFE  141C               	andwf	___flmul@grs^0,w,c
  3440   001D00  6E17               	movwf	??___flmul^0,c
  3441   001D02  0EFF               	movlw	255
  3442   001D04  141D               	andwf	(___flmul@grs+1)^0,w,c
  3443   001D06  6E18               	movwf	(??___flmul+1)^0,c
  3444   001D08  0EFF               	movlw	255
  3445   001D0A  141E               	andwf	(___flmul@grs+2)^0,w,c
  3446   001D0C  6E19               	movwf	(??___flmul+2)^0,c
  3447   001D0E  0E7F               	movlw	127
  3448   001D10  141F               	andwf	(___flmul@grs+3)^0,w,c
  3449   001D12  6E1A               	movwf	(??___flmul+3)^0,c
  3450   001D14  5017               	movf	??___flmul^0,w,c
  3451   001D16  1018               	iorwf	(??___flmul+1)^0,w,c
  3452   001D18  1019               	iorwf	(??___flmul+2)^0,w,c
  3453   001D1A  101A               	iorwf	(??___flmul+3)^0,w,c
  3454   001D1C  B4D8               	btfsc	status,2,c
  3455   001D1E  EF93  F00E         	goto	u2351
  3456   001D22  EF95  F00E         	goto	u2350
  3457   001D26                     u2351:
  3458   001D26  EF99  F00E         	goto	l784
  3459   001D2A                     u2350:
  3460   001D2A                     l2432:
  3461   001D2A  0E01               	movlw	1
  3462   001D2C  6E20               	movwf	___flmul@aexp^0,c
  3463   001D2E  EFA2  F00E         	goto	l783
  3464   001D32                     l784:
  3465   001D32  A022               	btfss	___flmul@prod^0,0,c
  3466   001D34  EF9E  F00E         	goto	u2361
  3467   001D38  EFA0  F00E         	goto	u2360
  3468   001D3C                     u2361:
  3469   001D3C  EFA2  F00E         	goto	l783
  3470   001D40                     u2360:
  3471   001D40  EF95  F00E         	goto	l2432
  3472   001D44                     l783:
  3473   001D44  5020               	movf	___flmul@aexp^0,w,c
  3474   001D46  B4D8               	btfsc	status,2,c
  3475   001D48  EFA8  F00E         	goto	u2371
  3476   001D4C  EFAA  F00E         	goto	u2370
  3477   001D50                     u2371:
  3478   001D50  EFCE  F00E         	goto	l2444
  3479   001D54                     u2370:
  3480   001D54  0E01               	movlw	1
  3481   001D56  2622               	addwf	___flmul@prod^0,f,c
  3482   001D58  0E00               	movlw	0
  3483   001D5A  2223               	addwfc	(___flmul@prod+1)^0,f,c
  3484   001D5C  2224               	addwfc	(___flmul@prod+2)^0,f,c
  3485   001D5E  2225               	addwfc	(___flmul@prod+3)^0,f,c
  3486   001D60  A025               	btfss	(___flmul@prod+3)^0,0,c
  3487   001D62  EFB5  F00E         	goto	u2381
  3488   001D66  EFB7  F00E         	goto	u2380
  3489   001D6A                     u2381:
  3490   001D6A  EFCE  F00E         	goto	l2444
  3491   001D6E                     u2380:
  3492   001D6E  C022  F017         	movff	___flmul@prod,??___flmul
  3493   001D72  C023  F018         	movff	___flmul@prod+1,??___flmul+1
  3494   001D76  C024  F019         	movff	___flmul@prod+2,??___flmul+2
  3495   001D7A  C025  F01A         	movff	___flmul@prod+3,??___flmul+3
  3496   001D7E  341A               	rlcf	(??___flmul+3)^0,w,c
  3497   001D80  321A               	rrcf	(??___flmul+3)^0,f,c
  3498   001D82  3219               	rrcf	(??___flmul+2)^0,f,c
  3499   001D84  3218               	rrcf	(??___flmul+1)^0,f,c
  3500   001D86  3217               	rrcf	??___flmul^0,f,c
  3501   001D88  C017  F022         	movff	??___flmul,___flmul@prod
  3502   001D8C  C018  F023         	movff	??___flmul+1,___flmul@prod+1
  3503   001D90  C019  F024         	movff	??___flmul+2,___flmul@prod+2
  3504   001D94  C01A  F025         	movff	??___flmul+3,___flmul@prod+3
  3505   001D98  4A26               	infsnz	___flmul@temp^0,f,c
  3506   001D9A  2A27               	incf	(___flmul@temp+1)^0,f,c
  3507   001D9C                     l2444:
  3508   001D9C  BE27               	btfsc	(___flmul@temp+1)^0,7,c
  3509   001D9E  EFD9  F00E         	goto	u2391
  3510   001DA2  5027               	movf	(___flmul@temp+1)^0,w,c
  3511   001DA4  E108               	bnz	u2390
  3512   001DA6  2826               	incf	___flmul@temp^0,w,c
  3513   001DA8  A0D8               	btfss	status,0,c
  3514   001DAA  EFD9  F00E         	goto	u2391
  3515   001DAE  EFDB  F00E         	goto	u2390
  3516   001DB2                     u2391:
  3517   001DB2  EFE5  F00E         	goto	l2448
  3518   001DB6                     u2390:
  3519   001DB6  0E00               	movlw	0
  3520   001DB8  6E22               	movwf	___flmul@prod^0,c
  3521   001DBA  0E00               	movlw	0
  3522   001DBC  6E23               	movwf	(___flmul@prod+1)^0,c
  3523   001DBE  0E80               	movlw	128
  3524   001DC0  6E24               	movwf	(___flmul@prod+2)^0,c
  3525   001DC2  0E7F               	movlw	127
  3526   001DC4  6E25               	movwf	(___flmul@prod+3)^0,c
  3527   001DC6  EF13  F00F         	goto	l2460
  3528   001DCA                     l2448:
  3529   001DCA  BE27               	btfsc	(___flmul@temp+1)^0,7,c
  3530   001DCC  EFF2  F00E         	goto	u2400
  3531   001DD0  5027               	movf	(___flmul@temp+1)^0,w,c
  3532   001DD2  E106               	bnz	u2401
  3533   001DD4  0426               	decf	___flmul@temp^0,w,c
  3534   001DD6  B0D8               	btfsc	status,0,c
  3535   001DD8  EFF0  F00E         	goto	u2401
  3536   001DDC  EFF2  F00E         	goto	u2400
  3537   001DE0                     u2401:
  3538   001DE0  EFFE  F00E         	goto	l791
  3539   001DE4                     u2400:
  3540   001DE4  0E00               	movlw	0
  3541   001DE6  6E22               	movwf	___flmul@prod^0,c
  3542   001DE8  0E00               	movlw	0
  3543   001DEA  6E23               	movwf	(___flmul@prod+1)^0,c
  3544   001DEC  0E00               	movlw	0
  3545   001DEE  6E24               	movwf	(___flmul@prod+2)^0,c
  3546   001DF0  0E00               	movlw	0
  3547   001DF2  6E25               	movwf	(___flmul@prod+3)^0,c
  3548   001DF4  0E00               	movlw	0
  3549   001DF6  6E1B               	movwf	___flmul@sign^0,c
  3550   001DF8  EF13  F00F         	goto	l2460
  3551   001DFC                     l791:
  3552   001DFC  C026  F021         	movff	___flmul@temp,___flmul@bexp
  3553   001E00  0EFF               	movlw	255
  3554   001E02  1622               	andwf	___flmul@prod^0,f,c
  3555   001E04  0EFF               	movlw	255
  3556   001E06  1623               	andwf	(___flmul@prod+1)^0,f,c
  3557   001E08  0E7F               	movlw	127
  3558   001E0A  1624               	andwf	(___flmul@prod+2)^0,f,c
  3559   001E0C  0E00               	movlw	0
  3560   001E0E  1625               	andwf	(___flmul@prod+3)^0,f,c
  3561   001E10  A021               	btfss	___flmul@bexp^0,0,c
  3562   001E12  EF0D  F00F         	goto	u2411
  3563   001E16  EF0F  F00F         	goto	u2410
  3564   001E1A                     u2411:
  3565   001E1A  EF10  F00F         	goto	l2458
  3566   001E1E                     u2410:
  3567   001E1E  8E24               	bsf	(___flmul@prod+2)^0,7,c
  3568   001E20                     l2458:
  3569   001E20  90D8               	bcf	status,0,c
  3570   001E22  3021               	rrcf	___flmul@bexp^0,w,c
  3571   001E24  6E25               	movwf	(___flmul@prod+3)^0,c
  3572   001E26                     l2460:
  3573   001E26  501B               	movf	___flmul@sign^0,w,c
  3574   001E28  1225               	iorwf	(___flmul@prod+3)^0,f,c
  3575   001E2A  C022  F00F         	movff	___flmul@prod,?___flmul
  3576   001E2E  C023  F010         	movff	___flmul@prod+1,?___flmul+1
  3577   001E32  C024  F011         	movff	___flmul@prod+2,?___flmul+2
  3578   001E36  C025  F012         	movff	___flmul@prod+3,?___flmul+3
  3579   001E3A                     l778:
  3580   001E3A  0012               	return		;funcret
  3581   001E3C                     __end_of___flmul:
  3582                           	callstack 0
  3583                           
  3584 ;; *************** function ___fladd *****************
  3585 ;; Defined at:
  3586 ;;		line 10 in file "C:\Program Files\Microchip\xc8\v2.46\pic\sources\c99\common\sprcadd.c"
  3587 ;; Parameters:    Size  Location     Type
  3588 ;;  b               4   64[COMRAM] unsigned char 
  3589 ;;  a               4   68[COMRAM] unsigned char 
  3590 ;; Auto vars:     Size  Location     Type
  3591 ;;  grs             1   79[COMRAM] unsigned char 
  3592 ;;  bexp            1   78[COMRAM] unsigned char 
  3593 ;;  aexp            1   77[COMRAM] unsigned char 
  3594 ;;  signs           1   76[COMRAM] unsigned char 
  3595 ;; Return value:  Size  Location     Type
  3596 ;;                  4   64[COMRAM] unsigned char 
  3597 ;; Registers used:
  3598 ;;		wreg, status,2, status,0
  3599 ;; Tracked objects:
  3600 ;;		On entry : 0/0
  3601 ;;		On exit  : 0/0
  3602 ;;		Unchanged: 0/0
  3603 ;; Data sizes:     COMRAM   BANK0   BANK1   BANK2   BANK3   BANK4   BANK5   BANK6   BANK7   BANK8   BANK9  BANK10  BANK1
      +1  BANK12  BANK13  BANK14  BANK15
  3604 ;;      Params:         8       0       0       0       0       0       0       0       0       0       0       0       
      +0       0       0       0       0
  3605 ;;      Locals:         4       0       0       0       0       0       0       0       0       0       0       0       
      +0       0       0       0       0
  3606 ;;      Temps:          4       0       0       0       0       0       0       0       0       0       0       0       
      +0       0       0       0       0
  3607 ;;      Totals:        16       0       0       0       0       0       0       0       0       0       0       0       
      +0       0       0       0       0
  3608 ;;Total ram usage:       16 bytes
  3609 ;; Hardware stack levels used: 1
  3610 ;; This function calls:
  3611 ;;		Nothing
  3612 ;; This function is called by:
  3613 ;;		_main
  3614 ;;		___flsub
  3615 ;;		_sinf
  3616 ;;		___cosdf
  3617 ;;		___rem_pio2f
  3618 ;;		___sindf
  3619 ;; This function uses a non-reentrant model
  3620 ;;
  3621                           
  3622                           	psect	text11
  3623   001552                     __ptext11:
  3624                           	callstack 0
  3625   001552                     ___fladd:
  3626                           	callstack 28
  3627   001552  5044               	movf	(___fladd@b+3)^0,w,c
  3628   001554  0B80               	andlw	128
  3629   001556  6E4D               	movwf	___fladd@signs^0,c
  3630   001558  5044               	movf	(___fladd@b+3)^0,w,c
  3631   00155A  2444               	addwf	(___fladd@b+3)^0,w,c
  3632   00155C  6E4F               	movwf	___fladd@bexp^0,c
  3633   00155E  AE43               	btfss	(___fladd@b+2)^0,7,c
  3634   001560  EFB4  F00A         	goto	u1671
  3635   001564  EFB6  F00A         	goto	u1670
  3636   001568                     u1671:
  3637   001568  EFB7  F00A         	goto	l2042
  3638   00156C                     u1670:
  3639   00156C  804F               	bsf	___fladd@bexp^0,0,c
  3640   00156E                     l2042:
  3641   00156E  504F               	movf	___fladd@bexp^0,w,c
  3642   001570  B4D8               	btfsc	status,2,c
  3643   001572  EFBD  F00A         	goto	u1681
  3644   001576  EFBF  F00A         	goto	u1680
  3645   00157A                     u1681:
  3646   00157A  EFD4  F00A         	goto	l2052
  3647   00157E                     u1680:
  3648   00157E  284F               	incf	___fladd@bexp^0,w,c
  3649   001580  A4D8               	btfss	status,2,c
  3650   001582  EFC5  F00A         	goto	u1691
  3651   001586  EFC7  F00A         	goto	u1690
  3652   00158A                     u1691:
  3653   00158A  EFCF  F00A         	goto	l2048
  3654   00158E                     u1690:
  3655   00158E  0E00               	movlw	0
  3656   001590  6E41               	movwf	___fladd@b^0,c
  3657   001592  0E00               	movlw	0
  3658   001594  6E42               	movwf	(___fladd@b+1)^0,c
  3659   001596  0E00               	movlw	0
  3660   001598  6E43               	movwf	(___fladd@b+2)^0,c
  3661   00159A  0E00               	movlw	0
  3662   00159C  6E44               	movwf	(___fladd@b+3)^0,c
  3663   00159E                     l2048:
  3664   00159E  8E43               	bsf	(___fladd@b+2)^0,7,c
  3665   0015A0  0E00               	movlw	0
  3666   0015A2  6E44               	movwf	(___fladd@b+3)^0,c
  3667   0015A4  EFDC  F00A         	goto	l2054
  3668   0015A8                     l2052:
  3669   0015A8  0E00               	movlw	0
  3670   0015AA  6E41               	movwf	___fladd@b^0,c
  3671   0015AC  0E00               	movlw	0
  3672   0015AE  6E42               	movwf	(___fladd@b+1)^0,c
  3673   0015B0  0E00               	movlw	0
  3674   0015B2  6E43               	movwf	(___fladd@b+2)^0,c
  3675   0015B4  0E00               	movlw	0
  3676   0015B6  6E44               	movwf	(___fladd@b+3)^0,c
  3677   0015B8                     l2054:
  3678   0015B8  5048               	movf	(___fladd@a+3)^0,w,c
  3679   0015BA  0B80               	andlw	128
  3680   0015BC  6E4E               	movwf	___fladd@aexp^0,c
  3681   0015BE  504D               	movf	___fladd@signs^0,w,c
  3682   0015C0  184E               	xorwf	___fladd@aexp^0,w,c
  3683   0015C2  B4D8               	btfsc	status,2,c
  3684   0015C4  EFE6  F00A         	goto	u1701
  3685   0015C8  EFE8  F00A         	goto	u1700
  3686   0015CC                     u1701:
  3687   0015CC  EFE9  F00A         	goto	l2060
  3688   0015D0                     u1700:
  3689   0015D0  8C4D               	bsf	___fladd@signs^0,6,c
  3690   0015D2                     l2060:
  3691   0015D2  5048               	movf	(___fladd@a+3)^0,w,c
  3692   0015D4  2448               	addwf	(___fladd@a+3)^0,w,c
  3693   0015D6  6E4E               	movwf	___fladd@aexp^0,c
  3694   0015D8  AE47               	btfss	(___fladd@a+2)^0,7,c
  3695   0015DA  EFF1  F00A         	goto	u1711
  3696   0015DE  EFF3  F00A         	goto	u1710
  3697   0015E2                     u1711:
  3698   0015E2  EFF4  F00A         	goto	l2066
  3699   0015E6                     u1710:
  3700   0015E6  804E               	bsf	___fladd@aexp^0,0,c
  3701   0015E8                     l2066:
  3702   0015E8  504E               	movf	___fladd@aexp^0,w,c
  3703   0015EA  B4D8               	btfsc	status,2,c
  3704   0015EC  EFFA  F00A         	goto	u1721
  3705   0015F0  EFFC  F00A         	goto	u1720
  3706   0015F4                     u1721:
  3707   0015F4  EF11  F00B         	goto	l2076
  3708   0015F8                     u1720:
  3709   0015F8  284E               	incf	___fladd@aexp^0,w,c
  3710   0015FA  A4D8               	btfss	status,2,c
  3711   0015FC  EF02  F00B         	goto	u1731
  3712   001600  EF04  F00B         	goto	u1730
  3713   001604                     u1731:
  3714   001604  EF0C  F00B         	goto	l2072
  3715   001608                     u1730:
  3716   001608  0E00               	movlw	0
  3717   00160A  6E45               	movwf	___fladd@a^0,c
  3718   00160C  0E00               	movlw	0
  3719   00160E  6E46               	movwf	(___fladd@a+1)^0,c
  3720   001610  0E00               	movlw	0
  3721   001612  6E47               	movwf	(___fladd@a+2)^0,c
  3722   001614  0E00               	movlw	0
  3723   001616  6E48               	movwf	(___fladd@a+3)^0,c
  3724   001618                     l2072:
  3725   001618  8E47               	bsf	(___fladd@a+2)^0,7,c
  3726   00161A  0E00               	movlw	0
  3727   00161C  6E48               	movwf	(___fladd@a+3)^0,c
  3728   00161E  EF19  F00B         	goto	l2078
  3729   001622                     l2076:
  3730   001622  0E00               	movlw	0
  3731   001624  6E45               	movwf	___fladd@a^0,c
  3732   001626  0E00               	movlw	0
  3733   001628  6E46               	movwf	(___fladd@a+1)^0,c
  3734   00162A  0E00               	movlw	0
  3735   00162C  6E47               	movwf	(___fladd@a+2)^0,c
  3736   00162E  0E00               	movlw	0
  3737   001630  6E48               	movwf	(___fladd@a+3)^0,c
  3738   001632                     l2078:
  3739   001632  504F               	movf	___fladd@bexp^0,w,c
  3740   001634  5C4E               	subwf	___fladd@aexp^0,w,c
  3741   001636  B0D8               	btfsc	status,0,c
  3742   001638  EF20  F00B         	goto	u1741
  3743   00163C  EF22  F00B         	goto	u1740
  3744   001640                     u1741:
  3745   001640  EF49  F00B         	goto	l2114
  3746   001644                     u1740:
  3747   001644  AC4D               	btfss	___fladd@signs^0,6,c
  3748   001646  EF27  F00B         	goto	u1751
  3749   00164A  EF29  F00B         	goto	u1750
  3750   00164E                     u1751:
  3751   00164E  EF2B  F00B         	goto	l2084
  3752   001652                     u1750:
  3753   001652  0E80               	movlw	128
  3754   001654  1A4D               	xorwf	___fladd@signs^0,f,c
  3755   001656                     l2084:
  3756   001656  C04F  F050         	movff	___fladd@bexp,___fladd@grs
  3757   00165A  C04E  F04F         	movff	___fladd@aexp,___fladd@bexp
  3758   00165E  C050  F04E         	movff	___fladd@grs,___fladd@aexp
  3759   001662  C041  F050         	movff	___fladd@b,___fladd@grs
  3760   001666  C045  F041         	movff	___fladd@a,___fladd@b
  3761   00166A  C050  F045         	movff	___fladd@grs,___fladd@a
  3762   00166E  C042  F050         	movff	___fladd@b+1,___fladd@grs
  3763   001672  C046  F042         	movff	___fladd@a+1,___fladd@b+1
  3764   001676  C050  F046         	movff	___fladd@grs,___fladd@a+1
  3765   00167A  C043  F050         	movff	___fladd@b+2,___fladd@grs
  3766   00167E  C047  F043         	movff	___fladd@a+2,___fladd@b+2
  3767   001682  C050  F047         	movff	___fladd@grs,___fladd@a+2
  3768   001686  C044  F050         	movff	___fladd@b+3,___fladd@grs
  3769   00168A  C048  F044         	movff	___fladd@a+3,___fladd@b+3
  3770   00168E  C050  F048         	movff	___fladd@grs,___fladd@a+3
  3771   001692                     l2114:
  3772   001692  0E00               	movlw	0
  3773   001694  6E50               	movwf	___fladd@grs^0,c
  3774   001696  504F               	movf	___fladd@bexp^0,w,c
  3775   001698  C04E  F049         	movff	___fladd@aexp,??___fladd
  3776   00169C  6A4A               	clrf	(??___fladd+1)^0,c
  3777   00169E  5E49               	subwf	??___fladd^0,f,c
  3778   0016A0  0E00               	movlw	0
  3779   0016A2  5A4A               	subwfb	(??___fladd+1)^0,f,c
  3780   0016A4  BE4A               	btfsc	(??___fladd+1)^0,7,c
  3781   0016A6  EF5E  F00B         	goto	u1761
  3782   0016AA  504A               	movf	(??___fladd+1)^0,w,c
  3783   0016AC  E109               	bnz	u1760
  3784   0016AE  0E1A               	movlw	26
  3785   0016B0  5C49               	subwf	??___fladd^0,w,c
  3786   0016B2  A0D8               	btfss	status,0,c
  3787   0016B4  EF5E  F00B         	goto	u1761
  3788   0016B8  EF60  F00B         	goto	u1760
  3789   0016BC                     u1761:
  3790   0016BC  EF97  F00B         	goto	l689
  3791   0016C0                     u1760:
  3792   0016C0  5041               	movf	___fladd@b^0,w,c
  3793   0016C2  1042               	iorwf	(___fladd@b+1)^0,w,c
  3794   0016C4  1043               	iorwf	(___fladd@b+2)^0,w,c
  3795   0016C6  1044               	iorwf	(___fladd@b+3)^0,w,c
  3796   0016C8  A4D8               	btfss	status,2,c
  3797   0016CA  EF69  F00B         	goto	u1771
  3798   0016CE  EF6C  F00B         	goto	u1770
  3799   0016D2                     u1771:
  3800   0016D2  0E01               	movlw	1
  3801   0016D4  EF6D  F00B         	goto	u1780
  3802   0016D8                     u1770:
  3803   0016D8  0E00               	movlw	0
  3804   0016DA                     u1780:
  3805   0016DA  6E50               	movwf	___fladd@grs^0,c
  3806   0016DC  0E00               	movlw	0
  3807   0016DE  6E41               	movwf	___fladd@b^0,c
  3808   0016E0  0E00               	movlw	0
  3809   0016E2  6E42               	movwf	(___fladd@b+1)^0,c
  3810   0016E4  0E00               	movlw	0
  3811   0016E6  6E43               	movwf	(___fladd@b+2)^0,c
  3812   0016E8  0E00               	movlw	0
  3813   0016EA  6E44               	movwf	(___fladd@b+3)^0,c
  3814   0016EC  C04E  F04F         	movff	___fladd@aexp,___fladd@bexp
  3815   0016F0  EFA0  F00B         	goto	l688
  3816   0016F4                     l690:
  3817   0016F4  A050               	btfss	___fladd@grs^0,0,c
  3818   0016F6  EF7F  F00B         	goto	u1791
  3819   0016FA  EF81  F00B         	goto	u1790
  3820   0016FE                     u1791:
  3821   0016FE  EF87  F00B         	goto	l2126
  3822   001702                     u1790:
  3823   001702  90D8               	bcf	status,0,c
  3824   001704  3050               	rrcf	___fladd@grs^0,w,c
  3825   001706  0901               	iorlw	1
  3826   001708  6E50               	movwf	___fladd@grs^0,c
  3827   00170A  EF89  F00B         	goto	l2128
  3828   00170E                     l2126:
  3829   00170E  90D8               	bcf	status,0,c
  3830   001710  3250               	rrcf	___fladd@grs^0,f,c
  3831   001712                     l2128:
  3832   001712  A041               	btfss	___fladd@b^0,0,c
  3833   001714  EF8E  F00B         	goto	u1801
  3834   001718  EF90  F00B         	goto	u1800
  3835   00171C                     u1801:
  3836   00171C  EF91  F00B         	goto	l2132
  3837   001720                     u1800:
  3838   001720  8E50               	bsf	___fladd@grs^0,7,c
  3839   001722                     l2132:
  3840   001722  3444               	rlcf	(___fladd@b+3)^0,w,c
  3841   001724  3244               	rrcf	(___fladd@b+3)^0,f,c
  3842   001726  3243               	rrcf	(___fladd@b+2)^0,f,c
  3843   001728  3242               	rrcf	(___fladd@b+1)^0,f,c
  3844   00172A  3241               	rrcf	___fladd@b^0,f,c
  3845   00172C  2A4F               	incf	___fladd@bexp^0,f,c
  3846   00172E                     l689:
  3847   00172E  504E               	movf	___fladd@aexp^0,w,c
  3848   001730  5C4F               	subwf	___fladd@bexp^0,w,c
  3849   001732  A0D8               	btfss	status,0,c
  3850   001734  EF9E  F00B         	goto	u1811
  3851   001738  EFA0  F00B         	goto	u1810
  3852   00173C                     u1811:
  3853   00173C  EF7A  F00B         	goto	l690
  3854   001740                     u1810:
  3855   001740                     l688:
  3856   001740  BC4D               	btfsc	___fladd@signs^0,6,c
  3857   001742  EFA5  F00B         	goto	u1821
  3858   001746  EFA7  F00B         	goto	u1820
  3859   00174A                     u1821:
  3860   00174A  EFE7  F00B         	goto	l2160
  3861   00174E                     u1820:
  3862   00174E  504F               	movf	___fladd@bexp^0,w,c
  3863   001750  A4D8               	btfss	status,2,c
  3864   001752  EFAD  F00B         	goto	u1831
  3865   001756  EFAF  F00B         	goto	u1830
  3866   00175A                     u1831:
  3867   00175A  EFB9  F00B         	goto	l2142
  3868   00175E                     u1830:
  3869   00175E  0E00               	movlw	0
  3870   001760  6E41               	movwf	?___fladd^0,c
  3871   001762  0E00               	movlw	0
  3872   001764  6E42               	movwf	(?___fladd+1)^0,c
  3873   001766  0E00               	movlw	0
  3874   001768  6E43               	movwf	(?___fladd+2)^0,c
  3875   00176A  0E00               	movlw	0
  3876   00176C  6E44               	movwf	(?___fladd+3)^0,c
  3877   00176E  EF08  F00D         	goto	l697
  3878   001772                     l2142:
  3879   001772  5045               	movf	___fladd@a^0,w,c
  3880   001774  2641               	addwf	___fladd@b^0,f,c
  3881   001776  5046               	movf	(___fladd@a+1)^0,w,c
  3882   001778  2242               	addwfc	(___fladd@b+1)^0,f,c
  3883   00177A  5047               	movf	(___fladd@a+2)^0,w,c
  3884   00177C  2243               	addwfc	(___fladd@b+2)^0,f,c
  3885   00177E  5048               	movf	(___fladd@a+3)^0,w,c
  3886   001780  2244               	addwfc	(___fladd@b+3)^0,f,c
  3887   001782  A044               	btfss	(___fladd@b+3)^0,0,c
  3888   001784  EFC6  F00B         	goto	u1841
  3889   001788  EFC8  F00B         	goto	u1840
  3890   00178C                     u1841:
  3891   00178C  EF74  F00C         	goto	l2196
  3892   001790                     u1840:
  3893   001790  A050               	btfss	___fladd@grs^0,0,c
  3894   001792  EFCD  F00B         	goto	u1851
  3895   001796  EFCF  F00B         	goto	u1850
  3896   00179A                     u1851:
  3897   00179A  EFD5  F00B         	goto	l2150
  3898   00179E                     u1850:
  3899   00179E  90D8               	bcf	status,0,c
  3900   0017A0  3050               	rrcf	___fladd@grs^0,w,c
  3901   0017A2  0901               	iorlw	1
  3902   0017A4  6E50               	movwf	___fladd@grs^0,c
  3903   0017A6  EFD7  F00B         	goto	l2152
  3904   0017AA                     l2150:
  3905   0017AA  90D8               	bcf	status,0,c
  3906   0017AC  3250               	rrcf	___fladd@grs^0,f,c
  3907   0017AE                     l2152:
  3908   0017AE  A041               	btfss	___fladd@b^0,0,c
  3909   0017B0  EFDC  F00B         	goto	u1861
  3910   0017B4  EFDE  F00B         	goto	u1860
  3911   0017B8                     u1861:
  3912   0017B8  EFDF  F00B         	goto	l2156
  3913   0017BC                     u1860:
  3914   0017BC  8E50               	bsf	___fladd@grs^0,7,c
  3915   0017BE                     l2156:
  3916   0017BE  3444               	rlcf	(___fladd@b+3)^0,w,c
  3917   0017C0  3244               	rrcf	(___fladd@b+3)^0,f,c
  3918   0017C2  3243               	rrcf	(___fladd@b+2)^0,f,c
  3919   0017C4  3242               	rrcf	(___fladd@b+1)^0,f,c
  3920   0017C6  3241               	rrcf	___fladd@b^0,f,c
  3921   0017C8  2A4F               	incf	___fladd@bexp^0,f,c
  3922   0017CA  EF74  F00C         	goto	l2196
  3923   0017CE                     l2160:
  3924   0017CE  5045               	movf	___fladd@a^0,w,c
  3925   0017D0  5C41               	subwf	___fladd@b^0,w,c
  3926   0017D2  5046               	movf	(___fladd@a+1)^0,w,c
  3927   0017D4  5842               	subwfb	(___fladd@b+1)^0,w,c
  3928   0017D6  5047               	movf	(___fladd@a+2)^0,w,c
  3929   0017D8  5843               	subwfb	(___fladd@b+2)^0,w,c
  3930   0017DA  5044               	movf	(___fladd@b+3)^0,w,c
  3931   0017DC  0A80               	xorlw	128
  3932   0017DE  6E49               	movwf	??___fladd^0,c
  3933   0017E0  5048               	movf	(___fladd@a+3)^0,w,c
  3934   0017E2  0A80               	xorlw	128
  3935   0017E4  5849               	subwfb	??___fladd^0,w,c
  3936   0017E6  B0D8               	btfsc	status,0,c
  3937   0017E8  EFF8  F00B         	goto	u1871
  3938   0017EC  EFFA  F00B         	goto	u1870
  3939   0017F0                     u1871:
  3940   0017F0  EF25  F00C         	goto	l2170
  3941   0017F4                     u1870:
  3942   0017F4  5041               	movf	___fladd@b^0,w,c
  3943   0017F6  5C45               	subwf	___fladd@a^0,w,c
  3944   0017F8  6E49               	movwf	??___fladd^0,c
  3945   0017FA  5042               	movf	(___fladd@b+1)^0,w,c
  3946   0017FC  5846               	subwfb	(___fladd@a+1)^0,w,c
  3947   0017FE  6E4A               	movwf	(??___fladd+1)^0,c
  3948   001800  5043               	movf	(___fladd@b+2)^0,w,c
  3949   001802  5847               	subwfb	(___fladd@a+2)^0,w,c
  3950   001804  6E4B               	movwf	(??___fladd+2)^0,c
  3951   001806  5044               	movf	(___fladd@b+3)^0,w,c
  3952   001808  5848               	subwfb	(___fladd@a+3)^0,w,c
  3953   00180A  6E4C               	movwf	(??___fladd+3)^0,c
  3954   00180C  0EFF               	movlw	255
  3955   00180E  2449               	addwf	??___fladd^0,w,c
  3956   001810  6E41               	movwf	___fladd@b^0,c
  3957   001812  0EFF               	movlw	255
  3958   001814  204A               	addwfc	(??___fladd+1)^0,w,c
  3959   001816  6E42               	movwf	(___fladd@b+1)^0,c
  3960   001818  0EFF               	movlw	255
  3961   00181A  204B               	addwfc	(??___fladd+2)^0,w,c
  3962   00181C  6E43               	movwf	(___fladd@b+2)^0,c
  3963   00181E  0EFF               	movlw	255
  3964   001820  204C               	addwfc	(??___fladd+3)^0,w,c
  3965   001822  6E44               	movwf	(___fladd@b+3)^0,c
  3966   001824  0E80               	movlw	128
  3967   001826  1A4D               	xorwf	___fladd@signs^0,f,c
  3968   001828  6C50               	negf	___fladd@grs^0,c
  3969   00182A  5050               	movf	___fladd@grs^0,w,c
  3970   00182C  A4D8               	btfss	status,2,c
  3971   00182E  EF1B  F00C         	goto	u1881
  3972   001832  EF1D  F00C         	goto	u1880
  3973   001836                     u1881:
  3974   001836  EF2D  F00C         	goto	l705
  3975   00183A                     u1880:
  3976   00183A  0E01               	movlw	1
  3977   00183C  2641               	addwf	___fladd@b^0,f,c
  3978   00183E  0E00               	movlw	0
  3979   001840  2242               	addwfc	(___fladd@b+1)^0,f,c
  3980   001842  2243               	addwfc	(___fladd@b+2)^0,f,c
  3981   001844  2244               	addwfc	(___fladd@b+3)^0,f,c
  3982   001846  EF2D  F00C         	goto	l705
  3983   00184A                     l2170:
  3984   00184A  5045               	movf	___fladd@a^0,w,c
  3985   00184C  5E41               	subwf	___fladd@b^0,f,c
  3986   00184E  5046               	movf	(___fladd@a+1)^0,w,c
  3987   001850  5A42               	subwfb	(___fladd@b+1)^0,f,c
  3988   001852  5047               	movf	(___fladd@a+2)^0,w,c
  3989   001854  5A43               	subwfb	(___fladd@b+2)^0,f,c
  3990   001856  5048               	movf	(___fladd@a+3)^0,w,c
  3991   001858  5A44               	subwfb	(___fladd@b+3)^0,f,c
  3992   00185A                     l705:
  3993   00185A  5041               	movf	___fladd@b^0,w,c
  3994   00185C  1042               	iorwf	(___fladd@b+1)^0,w,c
  3995   00185E  1043               	iorwf	(___fladd@b+2)^0,w,c
  3996   001860  1044               	iorwf	(___fladd@b+3)^0,w,c
  3997   001862  A4D8               	btfss	status,2,c
  3998   001864  EF36  F00C         	goto	u1891
  3999   001868  EF38  F00C         	goto	u1890
  4000   00186C                     u1891:
  4001   00186C  EF6D  F00C         	goto	l2194
  4002   001870                     u1890:
  4003   001870  5050               	movf	___fladd@grs^0,w,c
  4004   001872  A4D8               	btfss	status,2,c
  4005   001874  EF3E  F00C         	goto	u1901
  4006   001878  EF40  F00C         	goto	u1900
  4007   00187C                     u1901:
  4008   00187C  EF6D  F00C         	goto	l2194
  4009   001880                     u1900:
  4010   001880  0E00               	movlw	0
  4011   001882  6E41               	movwf	?___fladd^0,c
  4012   001884  0E00               	movlw	0
  4013   001886  6E42               	movwf	(?___fladd+1)^0,c
  4014   001888  0E00               	movlw	0
  4015   00188A  6E43               	movwf	(?___fladd+2)^0,c
  4016   00188C  0E00               	movlw	0
  4017   00188E  6E44               	movwf	(?___fladd+3)^0,c
  4018   001890  EF08  F00D         	goto	l697
  4019   001894                     l2178:
  4020   001894  90D8               	bcf	status,0,c
  4021   001896  3641               	rlcf	___fladd@b^0,f,c
  4022   001898  3642               	rlcf	(___fladd@b+1)^0,f,c
  4023   00189A  3643               	rlcf	(___fladd@b+2)^0,f,c
  4024   00189C  3644               	rlcf	(___fladd@b+3)^0,f,c
  4025   00189E  AE50               	btfss	___fladd@grs^0,7,c
  4026   0018A0  EF54  F00C         	goto	u1911
  4027   0018A4  EF56  F00C         	goto	u1910
  4028   0018A8                     u1911:
  4029   0018A8  EF57  F00C         	goto	l2184
  4030   0018AC                     u1910:
  4031   0018AC  8041               	bsf	___fladd@b^0,0,c
  4032   0018AE                     l2184:
  4033   0018AE  A050               	btfss	___fladd@grs^0,0,c
  4034   0018B0  EF5C  F00C         	goto	u1921
  4035   0018B4  EF5E  F00C         	goto	u1920
  4036   0018B8                     u1921:
  4037   0018B8  EF62  F00C         	goto	l2188
  4038   0018BC                     u1920:
  4039   0018BC  80D8               	bsf	status,0,c
  4040   0018BE  3650               	rlcf	___fladd@grs^0,f,c
  4041   0018C0  EF64  F00C         	goto	l2190
  4042   0018C4                     l2188:
  4043   0018C4  90D8               	bcf	status,0,c
  4044   0018C6  3650               	rlcf	___fladd@grs^0,f,c
  4045   0018C8                     l2190:
  4046   0018C8  504F               	movf	___fladd@bexp^0,w,c
  4047   0018CA  B4D8               	btfsc	status,2,c
  4048   0018CC  EF6A  F00C         	goto	u1931
  4049   0018D0  EF6C  F00C         	goto	u1930
  4050   0018D4                     u1931:
  4051   0018D4  EF6D  F00C         	goto	l2194
  4052   0018D8                     u1930:
  4053   0018D8  064F               	decf	___fladd@bexp^0,f,c
  4054   0018DA                     l2194:
  4055   0018DA  AE43               	btfss	(___fladd@b+2)^0,7,c
  4056   0018DC  EF72  F00C         	goto	u1941
  4057   0018E0  EF74  F00C         	goto	u1940
  4058   0018E4                     u1941:
  4059   0018E4  EF4A  F00C         	goto	l2178
  4060   0018E8                     u1940:
  4061   0018E8                     l2196:
  4062   0018E8  0E00               	movlw	0
  4063   0018EA  6E4E               	movwf	___fladd@aexp^0,c
  4064   0018EC  AE50               	btfss	___fladd@grs^0,7,c
  4065   0018EE  EF7B  F00C         	goto	u1951
  4066   0018F2  EF7D  F00C         	goto	u1950
  4067   0018F6                     u1951:
  4068   0018F6  EF95  F00C         	goto	l714
  4069   0018FA                     u1950:
  4070   0018FA  C050  F049         	movff	___fladd@grs,??___fladd
  4071   0018FE  0E7F               	movlw	127
  4072   001900  1649               	andwf	??___fladd^0,f,c
  4073   001902  B4D8               	btfsc	status,2,c
  4074   001904  EF86  F00C         	goto	u1961
  4075   001908  EF88  F00C         	goto	u1960
  4076   00190C                     u1961:
  4077   00190C  EF8C  F00C         	goto	l715
  4078   001910                     u1960:
  4079   001910                     l2202:
  4080   001910  0E01               	movlw	1
  4081   001912  6E4E               	movwf	___fladd@aexp^0,c
  4082   001914  EF95  F00C         	goto	l714
  4083   001918                     l715:
  4084   001918  A041               	btfss	___fladd@b^0,0,c
  4085   00191A  EF91  F00C         	goto	u1971
  4086   00191E  EF93  F00C         	goto	u1970
  4087   001922                     u1971:
  4088   001922  EF95  F00C         	goto	l714
  4089   001926                     u1970:
  4090   001926  EF88  F00C         	goto	l2202
  4091   00192A                     l714:
  4092   00192A  504E               	movf	___fladd@aexp^0,w,c
  4093   00192C  B4D8               	btfsc	status,2,c
  4094   00192E  EF9B  F00C         	goto	u1981
  4095   001932  EF9D  F00C         	goto	u1980
  4096   001936                     u1981:
  4097   001936  EFC8  F00C         	goto	l2214
  4098   00193A                     u1980:
  4099   00193A  0E01               	movlw	1
  4100   00193C  2641               	addwf	___fladd@b^0,f,c
  4101   00193E  0E00               	movlw	0
  4102   001940  2242               	addwfc	(___fladd@b+1)^0,f,c
  4103   001942  2243               	addwfc	(___fladd@b+2)^0,f,c
  4104   001944  2244               	addwfc	(___fladd@b+3)^0,f,c
  4105   001946  A044               	btfss	(___fladd@b+3)^0,0,c
  4106   001948  EFA8  F00C         	goto	u1991
  4107   00194C  EFAA  F00C         	goto	u1990
  4108   001950                     u1991:
  4109   001950  EFC8  F00C         	goto	l2214
  4110   001954                     u1990:
  4111   001954  C041  F049         	movff	___fladd@b,??___fladd
  4112   001958  C042  F04A         	movff	___fladd@b+1,??___fladd+1
  4113   00195C  C043  F04B         	movff	___fladd@b+2,??___fladd+2
  4114   001960  C044  F04C         	movff	___fladd@b+3,??___fladd+3
  4115   001964  344C               	rlcf	(??___fladd+3)^0,w,c
  4116   001966  324C               	rrcf	(??___fladd+3)^0,f,c
  4117   001968  324B               	rrcf	(??___fladd+2)^0,f,c
  4118   00196A  324A               	rrcf	(??___fladd+1)^0,f,c
  4119   00196C  3249               	rrcf	??___fladd^0,f,c
  4120   00196E  C049  F041         	movff	??___fladd,___fladd@b
  4121   001972  C04A  F042         	movff	??___fladd+1,___fladd@b+1
  4122   001976  C04B  F043         	movff	??___fladd+2,___fladd@b+2
  4123   00197A  C04C  F044         	movff	??___fladd+3,___fladd@b+3
  4124   00197E  284F               	incf	___fladd@bexp^0,w,c
  4125   001980  B4D8               	btfsc	status,2,c
  4126   001982  EFC5  F00C         	goto	u2001
  4127   001986  EFC7  F00C         	goto	u2000
  4128   00198A                     u2001:
  4129   00198A  EFC8  F00C         	goto	l2214
  4130   00198E                     u2000:
  4131   00198E  2A4F               	incf	___fladd@bexp^0,f,c
  4132   001990                     l2214:
  4133   001990  284F               	incf	___fladd@bexp^0,w,c
  4134   001992  B4D8               	btfsc	status,2,c
  4135   001994  EFCE  F00C         	goto	u2011
  4136   001998  EFD0  F00C         	goto	u2010
  4137   00199C                     u2011:
  4138   00199C  EFD8  F00C         	goto	l2218
  4139   0019A0                     u2010:
  4140   0019A0  504F               	movf	___fladd@bexp^0,w,c
  4141   0019A2  A4D8               	btfss	status,2,c
  4142   0019A4  EFD6  F00C         	goto	u2021
  4143   0019A8  EFD8  F00C         	goto	u2020
  4144   0019AC                     u2021:
  4145   0019AC  EFEA  F00C         	goto	l2222
  4146   0019B0                     u2020:
  4147   0019B0                     l2218:
  4148   0019B0  0E00               	movlw	0
  4149   0019B2  6E41               	movwf	___fladd@b^0,c
  4150   0019B4  0E00               	movlw	0
  4151   0019B6  6E42               	movwf	(___fladd@b+1)^0,c
  4152   0019B8  0E00               	movlw	0
  4153   0019BA  6E43               	movwf	(___fladd@b+2)^0,c
  4154   0019BC  0E00               	movlw	0
  4155   0019BE  6E44               	movwf	(___fladd@b+3)^0,c
  4156   0019C0  504F               	movf	___fladd@bexp^0,w,c
  4157   0019C2  A4D8               	btfss	status,2,c
  4158   0019C4  EFE6  F00C         	goto	u2031
  4159   0019C8  EFE8  F00C         	goto	u2030
  4160   0019CC                     u2031:
  4161   0019CC  EFEA  F00C         	goto	l2222
  4162   0019D0                     u2030:
  4163   0019D0  0E00               	movlw	0
  4164   0019D2  6E4D               	movwf	___fladd@signs^0,c
  4165   0019D4                     l2222:
  4166   0019D4  A04F               	btfss	___fladd@bexp^0,0,c
  4167   0019D6  EFEF  F00C         	goto	u2041
  4168   0019DA  EFF1  F00C         	goto	u2040
  4169   0019DE                     u2041:
  4170   0019DE  EFF4  F00C         	goto	l2226
  4171   0019E2                     u2040:
  4172   0019E2  8E43               	bsf	(___fladd@b+2)^0,7,c
  4173   0019E4  EFF5  F00C         	goto	l2228
  4174   0019E8                     l2226:
  4175   0019E8  9E43               	bcf	(___fladd@b+2)^0,7,c
  4176   0019EA                     l2228:
  4177   0019EA  90D8               	bcf	status,0,c
  4178   0019EC  304F               	rrcf	___fladd@bexp^0,w,c
  4179   0019EE  6E44               	movwf	(___fladd@b+3)^0,c
  4180   0019F0  AE4D               	btfss	___fladd@signs^0,7,c
  4181   0019F2  EFFD  F00C         	goto	u2051
  4182   0019F6  EFFF  F00C         	goto	u2050
  4183   0019FA                     u2051:
  4184   0019FA  EF00  F00D         	goto	l2234
  4185   0019FE                     u2050:
  4186   0019FE  8E44               	bsf	(___fladd@b+3)^0,7,c
  4187   001A00                     l2234:
  4188   001A00  C041  F041         	movff	___fladd@b,?___fladd
  4189   001A04  C042  F042         	movff	___fladd@b+1,?___fladd+1
  4190   001A08  C043  F043         	movff	___fladd@b+2,?___fladd+2
  4191   001A0C  C044  F044         	movff	___fladd@b+3,?___fladd+3
  4192   001A10                     l697:
  4193   001A10  0012               	return		;funcret
  4194   001A12                     __end_of___fladd:
  4195                           	callstack 0
  4196                           
  4197 ;; *************** function _printf *****************
  4198 ;; Defined at:
  4199 ;;		line 5 in file "C:\Program Files\Microchip\xc8\v2.46\pic\sources\c99\common\printf.c"
  4200 ;; Parameters:    Size  Location     Type
  4201 ;;  fmt             1   27[COMRAM] PTR const unsigned char 
  4202 ;;		 -> STR_1(5), 
  4203 ;; Auto vars:     Size  Location     Type
  4204 ;;  ret             2    0        int 
  4205 ;;  ap              1   30[COMRAM] PTR void [1]
  4206 ;;		 -> ?_printf(2), 
  4207 ;; Return value:  Size  Location     Type
  4208 ;;                  2   27[COMRAM] int 
  4209 ;; Registers used:
  4210 ;;		wreg, fsr1l, fsr1h, fsr2l, fsr2h, status,2, status,0, tblptrl, tblptrh, tblptru, cstack
  4211 ;; Tracked objects:
  4212 ;;		On entry : 0/0
  4213 ;;		On exit  : 0/0
  4214 ;;		Unchanged: 0/0
  4215 ;; Data sizes:     COMRAM   BANK0   BANK1   BANK2   BANK3   BANK4   BANK5   BANK6   BANK7   BANK8   BANK9  BANK10  BANK1
      +1  BANK12  BANK13  BANK14  BANK15
  4216 ;;      Params:         3       0       0       0       0       0       0       0       0       0       0       0       
      +0       0       0       0       0
  4217 ;;      Locals:         1       0       0       0       0       0       0       0       0       0       0       0       
      +0       0       0       0       0
  4218 ;;      Temps:          0       0       0       0       0       0       0       0       0       0       0       0       
      +0       0       0       0       0
  4219 ;;      Totals:         4       0       0       0       0       0       0       0       0       0       0       0       
      +0       0       0       0       0
  4220 ;;Total ram usage:        4 bytes
  4221 ;; Hardware stack levels used: 1
  4222 ;; Hardware stack levels required when called: 4
  4223 ;; This function calls:
  4224 ;;		_vfprintf
  4225 ;; This function is called by:
  4226 ;;		_main
  4227 ;; This function uses a non-reentrant model
  4228 ;;
  4229                           
  4230                           	psect	text12
  4231   00349C                     __ptext12:
  4232                           	callstack 0
  4233   00349C                     _printf:
  4234                           	callstack 26
  4235   00349C  0E1D               	movlw	low (?_printf+1)
  4236   00349E  6E1F               	movwf	printf@ap^0,c
  4237   0034A0  0E00               	movlw	0
  4238   0034A2  6E17               	movwf	vfprintf@fp^0,c
  4239   0034A4  0E00               	movlw	0
  4240   0034A6  6E18               	movwf	(vfprintf@fp+1)^0,c
  4241   0034A8  C01C  F019         	movff	printf@fmt,vfprintf@fmt
  4242   0034AC  0E1F               	movlw	low printf@ap
  4243   0034AE  6E1A               	movwf	vfprintf@ap^0,c
  4244   0034B0  ECBD  F019         	call	_vfprintf	;wreg free
  4245   0034B4  0012               	return		;funcret
  4246   0034B6                     __end_of_printf:
  4247                           	callstack 0
  4248                           
  4249 ;; *************** function _vfprintf *****************
  4250 ;; Defined at:
  4251 ;;		line 1817 in file "C:\Program Files\Microchip\xc8\v2.46\pic\sources\c99\common\doprnt.c"
  4252 ;; Parameters:    Size  Location     Type
  4253 ;;  fp              2   22[COMRAM] PTR struct _IO_FILE
  4254 ;;		 -> NULL(0), 
  4255 ;;  fmt             1   24[COMRAM] PTR const unsigned char 
  4256 ;;		 -> STR_1(5), 
  4257 ;;  ap              1   25[COMRAM] PTR PTR void 
  4258 ;;		 -> printf@ap(1), 
  4259 ;; Auto vars:     Size  Location     Type
  4260 ;;  cfmt            1   26[COMRAM] PTR unsigned char 
  4261 ;;		 -> STR_1(5), 
  4262 ;; Return value:  Size  Location     Type
  4263 ;;                  2   22[COMRAM] int 
  4264 ;; Registers used:
  4265 ;;		wreg, fsr1l, fsr1h, fsr2l, fsr2h, status,2, status,0, tblptrl, tblptrh, tblptru, cstack
  4266 ;; Tracked objects:
  4267 ;;		On entry : 0/0
  4268 ;;		On exit  : 0/0
  4269 ;;		Unchanged: 0/0
  4270 ;; Data sizes:     COMRAM   BANK0   BANK1   BANK2   BANK3   BANK4   BANK5   BANK6   BANK7   BANK8   BANK9  BANK10  BANK1
      +1  BANK12  BANK13  BANK14  BANK15
  4271 ;;      Params:         4       0       0       0       0       0       0       0       0       0       0       0       
      +0       0       0       0       0
  4272 ;;      Locals:         1       0       0       0       0       0       0       0       0       0       0       0       
      +0       0       0       0       0
  4273 ;;      Temps:          0       0       0       0       0       0       0       0       0       0       0       0       
      +0       0       0       0       0
  4274 ;;      Totals:         5       0       0       0       0       0       0       0       0       0       0       0       
      +0       0       0       0       0
  4275 ;;Total ram usage:        5 bytes
  4276 ;; Hardware stack levels used: 1
  4277 ;; Hardware stack levels required when called: 3
  4278 ;; This function calls:
  4279 ;;		_vfpfcnvrt
  4280 ;; This function is called by:
  4281 ;;		_printf
  4282 ;; This function uses a non-reentrant model
  4283 ;;
  4284                           
  4285                           	psect	text13
  4286   00337A                     __ptext13:
  4287                           	callstack 0
  4288   00337A                     _vfprintf:
  4289                           	callstack 26
  4290   00337A                     
  4291                           ;C:\Program Files\Microchip\xc8\v2.46\pic\sources\c99\common\doprnt.c: 1817: int vfprint
      +                          f(FILE *fp, const char *fmt, va_list ap);C:\Program Files\Microchip\xc8\v2.46\pic\source
      +                          s\c99\common\doprnt.c: 1818: {;C:\Program Files\Microchip\xc8\v2.46\pic\sources\c99\comm
      +                          on\doprnt.c: 1820:     char *cfmt;;C:\Program Files\Microchip\xc8\v2.46\pic\sources\c99\
      +                          common\doprnt.c: 1822:     cfmt = (char *)fmt;
  4292   00337A  C019  F01B         	movff	vfprintf@fmt,vfprintf@cfmt
  4293                           
  4294                           ;C:\Program Files\Microchip\xc8\v2.46\pic\sources\c99\common\doprnt.c: 1826:     while (
      +                          *cfmt) {
  4295   00337E  EFCB  F019         	goto	l2632
  4296   003382                     l2630:
  4297                           
  4298                           ;C:\Program Files\Microchip\xc8\v2.46\pic\sources\c99\common\doprnt.c: 1830:    vfpfcnvr
      +                          t(fp, &cfmt, ap);
  4299   003382  C017  F00B         	movff	vfprintf@fp,vfpfcnvrt@fp
  4300   003386  C018  F00C         	movff	vfprintf@fp+1,vfpfcnvrt@fp+1
  4301   00338A  0E1B               	movlw	low vfprintf@cfmt
  4302   00338C  6E0D               	movwf	vfpfcnvrt@fmt^0,c
  4303   00338E  C01A  F00E         	movff	vfprintf@ap,vfpfcnvrt@ap
  4304   003392  EC3D  F016         	call	_vfpfcnvrt	;wreg free
  4305   003396                     l2632:
  4306                           
  4307                           ;C:\Program Files\Microchip\xc8\v2.46\pic\sources\c99\common\doprnt.c: 1826:     while (
      +                          *cfmt) {
  4308   003396  C01B  FFF6         	movff	vfprintf@cfmt,tblptrl
  4309   00339A                     	if	1	;There is more than 1 active tblptr byte
  4310   00339A  0E10               	movlw	high __smallconst
  4311   00339C  6EF7               	movwf	tblptrh,c
  4312   00339E                     	endif
  4313   00339E                     	if	0	;tblptru may be non-zero
  4314   00339E                     	endif
  4315   00339E                     	if	0	;tblptru may be non-zero
  4316   00339E                     	endif
  4317   00339E  0008               	tblrd		*
  4318   0033A0  50F5               	movf	tablat,w,c
  4319   0033A2  0900               	iorlw	0
  4320   0033A4  A4D8               	btfss	status,2,c
  4321   0033A6  EFD7  F019         	goto	u2701
  4322   0033AA  EFD9  F019         	goto	u2700
  4323   0033AE                     u2701:
  4324   0033AE  EFC1  F019         	goto	l2630
  4325   0033B2                     u2700:
  4326   0033B2                     
  4327                           ;C:\Program Files\Microchip\xc8\v2.46\pic\sources\c99\common\doprnt.c: 1835:  return 0;
  4328   0033B2  0E00               	movlw	0
  4329   0033B4  6E18               	movwf	(?_vfprintf+1)^0,c
  4330   0033B6  0E00               	movlw	0
  4331   0033B8  6E17               	movwf	?_vfprintf^0,c
  4332   0033BA  0012               	return		;funcret
  4333   0033BC                     __end_of_vfprintf:
  4334                           	callstack 0
  4335                           
  4336 ;; *************** function _vfpfcnvrt *****************
  4337 ;; Defined at:
  4338 ;;		line 1177 in file "C:\Program Files\Microchip\xc8\v2.46\pic\sources\c99\common\doprnt.c"
  4339 ;; Parameters:    Size  Location     Type
  4340 ;;  fp              2   10[COMRAM] PTR struct _IO_FILE
  4341 ;;		 -> NULL(0), 
  4342 ;;  fmt             1   12[COMRAM] PTR PTR unsigned char 
  4343 ;;		 -> vfprintf@cfmt(1), 
  4344 ;;  ap              1   13[COMRAM] PTR PTR void 
  4345 ;;		 -> printf@ap(1), 
  4346 ;; Auto vars:     Size  Location     Type
  4347 ;;  convarg         4   17[COMRAM] struct .
  4348 ;;  c               1   21[COMRAM] unsigned char 
  4349 ;;  cp              1   16[COMRAM] PTR unsigned char 
  4350 ;;		 -> STR_1(5), 
  4351 ;;  done            1   15[COMRAM] _Bool 
  4352 ;; Return value:  Size  Location     Type
  4353 ;;                  1    wreg      void 
  4354 ;; Registers used:
  4355 ;;		wreg, fsr1l, fsr1h, fsr2l, fsr2h, status,2, status,0, tblptrl, tblptrh, tblptru, cstack
  4356 ;; Tracked objects:
  4357 ;;		On entry : 0/0
  4358 ;;		On exit  : 0/0
  4359 ;;		Unchanged: 0/0
  4360 ;; Data sizes:     COMRAM   BANK0   BANK1   BANK2   BANK3   BANK4   BANK5   BANK6   BANK7   BANK8   BANK9  BANK10  BANK1
      +1  BANK12  BANK13  BANK14  BANK15
  4361 ;;      Params:         4       0       0       0       0       0       0       0       0       0       0       0       
      +0       0       0       0       0
  4362 ;;      Locals:         7       0       0       0       0       0       0       0       0       0       0       0       
      +0       0       0       0       0
  4363 ;;      Temps:          1       0       0       0       0       0       0       0       0       0       0       0       
      +0       0       0       0       0
  4364 ;;      Totals:        12       0       0       0       0       0       0       0       0       0       0       0       
      +0       0       0       0       0
  4365 ;;Total ram usage:       12 bytes
  4366 ;; Hardware stack levels used: 1
  4367 ;; Hardware stack levels required when called: 2
  4368 ;; This function calls:
  4369 ;;		___awdiv
  4370 ;;		___awmod
  4371 ;;		_abs
  4372 ;;		_fputc
  4373 ;; This function is called by:
  4374 ;;		_vfprintf
  4375 ;; This function uses a non-reentrant model
  4376 ;;
  4377                           
  4378                           	psect	text14
  4379   002C7A                     __ptext14:
  4380                           	callstack 0
  4381   002C7A                     _vfpfcnvrt:
  4382                           	callstack 26
  4383   002C7A                     
  4384                           ;C:\Program Files\Microchip\xc8\v2.46\pic\sources\c99\common\doprnt.c: 1177: vfpfcnvrt(F
      +                          ILE *fp, char *fmt[], va_list ap);C:\Program Files\Microchip\xc8\v2.46\pic\sources\c99\c
      +                          ommon\doprnt.c: 1178: {;C:\Program Files\Microchip\xc8\v2.46\pic\sources\c99\common\dopr
      +                          nt.c: 1179:     char c, *cp;;C:\Program Files\Microchip\xc8\v2.46\pic\sources\c99\common
      +                          \doprnt.c: 1180:     _Bool done;;C:\Program Files\Microchip\xc8\v2.46\pic\sources\c99\co
      +                          mmon\doprnt.c: 1188:  } convarg;;C:\Program Files\Microchip\xc8\v2.46\pic\sources\c99\co
      +                          mmon\doprnt.c: 1201:     if ((*fmt)[0] == '%') {
  4385   002C7A  500D               	movf	vfpfcnvrt@fmt^0,w,c
  4386   002C7C  6ED9               	movwf	fsr2l,c
  4387   002C7E  6ADA               	clrf	fsr2h,c
  4388   002C80  CFDF FFF6          	movff	indf2,tblptrl
  4389   002C84                     	if	1	;There is more than 1 active tblptr byte
  4390   002C84  0E10               	movlw	high __smallconst
  4391   002C86  6EF7               	movwf	tblptrh,c
  4392   002C88                     	endif
  4393   002C88                     	if	0	;tblptru may be non-zero
  4394   002C88                     	endif
  4395   002C88                     	if	0	;tblptru may be non-zero
  4396   002C88                     	endif
  4397   002C88  0008               	tblrd		*
  4398   002C8A  50F5               	movf	tablat,w,c
  4399   002C8C  0A25               	xorlw	37
  4400   002C8E  A4D8               	btfss	status,2,c
  4401   002C90  EF4C  F016         	goto	u2601
  4402   002C94  EF4E  F016         	goto	u2600
  4403   002C98                     u2601:
  4404   002C98  EF0A  F017         	goto	l2614
  4405   002C9C                     u2600:
  4406   002C9C                     
  4407                           ;C:\Program Files\Microchip\xc8\v2.46\pic\sources\c99\common\doprnt.c: 1202:         ++*
      +                          fmt;
  4408   002C9C  500D               	movf	vfpfcnvrt@fmt^0,w,c
  4409   002C9E  6ED9               	movwf	fsr2l,c
  4410   002CA0  6ADA               	clrf	fsr2h,c
  4411   002CA2  2ADF               	incf	indf2,f,c
  4412   002CA4                     
  4413                           ;C:\Program Files\Microchip\xc8\v2.46\pic\sources\c99\common\doprnt.c: 1204:         fla
      +                          gs = width = 0;
  4414   002CA4  0E00               	movlw	0
  4415   002CA6  0100               	movlb	0	; () banked
  4416   002CA8  6FE7               	movwf	(_width+1)& (0+255),b
  4417   002CAA  0E00               	movlw	0
  4418   002CAC  6FE6               	movwf	_width& (0+255),b
  4419   002CAE  C0E6  F05E         	movff	_width,_flags
  4420   002CB2                     
  4421                           ; BSR set to: 0
  4422                           ;C:\Program Files\Microchip\xc8\v2.46\pic\sources\c99\common\doprnt.c: 1205:         pre
      +                          c = -1;
  4423   002CB2  69E8               	setf	_prec& (0+255),b
  4424   002CB4  69E9               	setf	(_prec+1)& (0+255),b
  4425   002CB6                     
  4426                           ; BSR set to: 0
  4427                           ;C:\Program Files\Microchip\xc8\v2.46\pic\sources\c99\common\doprnt.c: 1291:   cp = *fmt
      +                          ;
  4428   002CB6  500D               	movf	vfpfcnvrt@fmt^0,w,c
  4429   002CB8  6ED9               	movwf	fsr2l,c
  4430   002CBA  6ADA               	clrf	fsr2h,c
  4431   002CBC  50DF               	movf	indf2,w,c
  4432   002CBE  6E11               	movwf	vfpfcnvrt@cp^0,c
  4433   002CC0                     
  4434                           ; BSR set to: 0
  4435                           ;C:\Program Files\Microchip\xc8\v2.46\pic\sources\c99\common\doprnt.c: 1361:   if (*cp =
      +                          = 'd' || *cp == 'i') {
  4436   002CC0  C011  FFF6         	movff	vfpfcnvrt@cp,tblptrl
  4437   002CC4                     	if	1	;There is more than 1 active tblptr byte
  4438   002CC4  0E10               	movlw	high __smallconst
  4439   002CC6  6EF7               	movwf	tblptrh,c
  4440   002CC8                     	endif
  4441   002CC8                     	if	0	;tblptru may be non-zero
  4442   002CC8                     	endif
  4443   002CC8                     	if	0	;tblptru may be non-zero
  4444   002CC8                     	endif
  4445   002CC8  0008               	tblrd		*
  4446   002CCA  50F5               	movf	tablat,w,c
  4447   002CCC  0A64               	xorlw	100
  4448   002CCE  B4D8               	btfsc	status,2,c
  4449   002CD0  EF6C  F016         	goto	u2611
  4450   002CD4  EF6E  F016         	goto	u2610
  4451   002CD8                     u2611:
  4452   002CD8  EF7C  F016         	goto	l2584
  4453   002CDC                     u2610:
  4454   002CDC                     
  4455                           ; BSR set to: 0
  4456   002CDC  C011  FFF6         	movff	vfpfcnvrt@cp,tblptrl
  4457   002CE0                     	if	1	;There is more than 1 active tblptr byte
  4458   002CE0  0E10               	movlw	high __smallconst
  4459   002CE2  6EF7               	movwf	tblptrh,c
  4460   002CE4                     	endif
  4461   002CE4                     	if	0	;tblptru may be non-zero
  4462   002CE4                     	endif
  4463   002CE4                     	if	0	;tblptru may be non-zero
  4464   002CE4                     	endif
  4465   002CE4  0008               	tblrd		*
  4466   002CE6  50F5               	movf	tablat,w,c
  4467   002CE8  0A69               	xorlw	105
  4468   002CEA  A4D8               	btfss	status,2,c
  4469   002CEC  EF7A  F016         	goto	u2621
  4470   002CF0  EF7C  F016         	goto	u2620
  4471   002CF4                     u2621:
  4472   002CF4  EF04  F017         	goto	l2610
  4473   002CF8                     u2620:
  4474   002CF8                     l2584:
  4475                           
  4476                           ; BSR set to: 0
  4477                           ;C:\Program Files\Microchip\xc8\v2.46\pic\sources\c99\common\doprnt.c: 1404:    convarg.
      +                          sint = (vfpf_sint_t)(int)(*(int *)__va_arg(*(int **)ap, (int)0));
  4478   002CF8  500E               	movf	vfpfcnvrt@ap^0,w,c
  4479   002CFA  6ED9               	movwf	fsr2l,c
  4480   002CFC  6ADA               	clrf	fsr2h,c
  4481   002CFE  0E02               	movlw	2
  4482   002D00  26DF               	addwf	indf2,f,c
  4483   002D02  5CDF               	subwf	indf2,w,c
  4484   002D04  6ED9               	movwf	fsr2l,c
  4485   002D06  6ADA               	clrf	fsr2h,c
  4486   002D08  CFDE F012          	movff	postinc2,vfpfcnvrt@convarg
  4487   002D0C  CFDE F013          	movff	postinc2,vfpfcnvrt@convarg+1
  4488   002D10                     
  4489                           ; BSR set to: 0
  4490                           ;C:\Program Files\Microchip\xc8\v2.46\pic\sources\c99\common\doprnt.c: 1406:    *fmt = c
      +                          p+1;
  4491   002D10  500D               	movf	vfpfcnvrt@fmt^0,w,c
  4492   002D12  6ED9               	movwf	fsr2l,c
  4493   002D14  6ADA               	clrf	fsr2h,c
  4494   002D16  2811               	incf	vfpfcnvrt@cp^0,w,c
  4495   002D18  6EDF               	movwf	indf2,c
  4496   002D1A                     
  4497                           ; BSR set to: 0
  4498                           ;C:\Program Files\Microchip\xc8\v2.46\pic\sources\c99\common\doprnt.c: 1408:    c = size
      +                          of(dbuf);
  4499   002D1A  0E20               	movlw	32
  4500   002D1C  6E16               	movwf	vfpfcnvrt@c^0,c
  4501                           
  4502                           ;C:\Program Files\Microchip\xc8\v2.46\pic\sources\c99\common\doprnt.c: 1409:    done = c
      +                          onvarg.sint < 0;
  4503   002D1E  BE13               	btfsc	(vfpfcnvrt@convarg+1)^0,7,c
  4504   002D20  EF94  F016         	goto	u2631
  4505   002D24  EF97  F016         	goto	u2630
  4506   002D28                     u2631:
  4507   002D28  0E01               	movlw	1
  4508   002D2A  EF98  F016         	goto	u2640
  4509   002D2E                     u2630:
  4510   002D2E  0E00               	movlw	0
  4511   002D30                     u2640:
  4512   002D30  6E10               	movwf	vfpfcnvrt@done^0,c
  4513   002D32                     l2590:
  4514                           
  4515                           ;C:\Program Files\Microchip\xc8\v2.46\pic\sources\c99\common\doprnt.c: 1411:     dbuf[--
      +                          c] = abs(convarg.sint % 10) + '0';
  4516   002D32  0616               	decf	vfpfcnvrt@c^0,f,c
  4517   002D34  5016               	movf	vfpfcnvrt@c^0,w,c
  4518   002D36  0FBE               	addlw	low _dbuf
  4519   002D38  6ED9               	movwf	fsr2l,c
  4520   002D3A  6ADA               	clrf	fsr2h,c
  4521   002D3C  C012  F001         	movff	vfpfcnvrt@convarg,___awmod@dividend
  4522   002D40  C013  F002         	movff	vfpfcnvrt@convarg+1,___awmod@dividend+1
  4523   002D44  0E00               	movlw	0
  4524   002D46  6E04               	movwf	(___awmod@divisor+1)^0,c
  4525   002D48  0E0A               	movlw	10
  4526   002D4A  6E03               	movwf	___awmod@divisor^0,c
  4527   002D4C  EC42  F019         	call	___awmod	;wreg free
  4528   002D50  C001  F007         	movff	?___awmod,abs@a
  4529   002D54  C002  F008         	movff	?___awmod+1,abs@a+1
  4530   002D58  EC34  F01A         	call	_abs	;wreg free
  4531   002D5C  5007               	movf	?_abs^0,w,c
  4532   002D5E  0F30               	addlw	48
  4533   002D60  6EDF               	movwf	indf2,c
  4534   002D62                     
  4535                           ;C:\Program Files\Microchip\xc8\v2.46\pic\sources\c99\common\doprnt.c: 1412:     convarg
      +                          .sint /= 10;
  4536   002D62  C012  F001         	movff	vfpfcnvrt@convarg,___awdiv@dividend
  4537   002D66  C013  F002         	movff	vfpfcnvrt@convarg+1,___awdiv@dividend+1
  4538   002D6A  0E00               	movlw	0
  4539   002D6C  6E04               	movwf	(___awdiv@divisor+1)^0,c
  4540   002D6E  0E0A               	movlw	10
  4541   002D70  6E03               	movwf	___awdiv@divisor^0,c
  4542   002D72  ECE0  F018         	call	___awdiv	;wreg free
  4543   002D76  C001  F012         	movff	?___awdiv,vfpfcnvrt@convarg
  4544   002D7A  C002  F013         	movff	?___awdiv+1,vfpfcnvrt@convarg+1
  4545   002D7E                     
  4546                           ;C:\Program Files\Microchip\xc8\v2.46\pic\sources\c99\common\doprnt.c: 1416:    } while 
      +                          (convarg.sint != 0 && c != 0);
  4547   002D7E  5012               	movf	vfpfcnvrt@convarg^0,w,c
  4548   002D80  1013               	iorwf	(vfpfcnvrt@convarg+1)^0,w,c
  4549   002D82  B4D8               	btfsc	status,2,c
  4550   002D84  EFC6  F016         	goto	u2651
  4551   002D88  EFC8  F016         	goto	u2650
  4552   002D8C                     u2651:
  4553   002D8C  EFD0  F016         	goto	l2598
  4554   002D90                     u2650:
  4555   002D90  5016               	movf	vfpfcnvrt@c^0,w,c
  4556   002D92  A4D8               	btfss	status,2,c
  4557   002D94  EFCE  F016         	goto	u2661
  4558   002D98  EFD0  F016         	goto	u2660
  4559   002D9C                     u2661:
  4560   002D9C  EF99  F016         	goto	l2590
  4561   002DA0                     u2660:
  4562   002DA0                     l2598:
  4563                           
  4564                           ;C:\Program Files\Microchip\xc8\v2.46\pic\sources\c99\common\doprnt.c: 1417:    if (c !=
      +                           0 && done) {
  4565   002DA0  5016               	movf	vfpfcnvrt@c^0,w,c
  4566   002DA2  B4D8               	btfsc	status,2,c
  4567   002DA4  EFD6  F016         	goto	u2671
  4568   002DA8  EFD8  F016         	goto	u2670
  4569   002DAC                     u2671:
  4570   002DAC  EFF9  F016         	goto	l2608
  4571   002DB0                     u2670:
  4572   002DB0  5010               	movf	vfpfcnvrt@done^0,w,c
  4573   002DB2  B4D8               	btfsc	status,2,c
  4574   002DB4  EFDE  F016         	goto	u2681
  4575   002DB8  EFE0  F016         	goto	u2680
  4576   002DBC                     u2681:
  4577   002DBC  EFF9  F016         	goto	l2608
  4578   002DC0                     u2680:
  4579   002DC0                     
  4580                           ;C:\Program Files\Microchip\xc8\v2.46\pic\sources\c99\common\doprnt.c: 1418:     dbuf[--
      +                          c] = '-';
  4581   002DC0  0616               	decf	vfpfcnvrt@c^0,f,c
  4582   002DC2  5016               	movf	vfpfcnvrt@c^0,w,c
  4583   002DC4  0FBE               	addlw	low _dbuf
  4584   002DC6  6ED9               	movwf	fsr2l,c
  4585   002DC8  6ADA               	clrf	fsr2h,c
  4586   002DCA  0E2D               	movlw	45
  4587   002DCC  6EDF               	movwf	indf2,c
  4588   002DCE  EFF9  F016         	goto	l2608
  4589   002DD2                     l2604:
  4590                           
  4591                           ;C:\Program Files\Microchip\xc8\v2.46\pic\sources\c99\common\doprnt.c: 1424:     fputc(d
      +                          buf[c++], fp);
  4592   002DD2  5016               	movf	vfpfcnvrt@c^0,w,c
  4593   002DD4  0FBE               	addlw	low _dbuf
  4594   002DD6  6ED9               	movwf	fsr2l,c
  4595   002DD8  6ADA               	clrf	fsr2h,c
  4596   002DDA  50DF               	movf	indf2,w,c
  4597   002DDC  6E0F               	movwf	??_vfpfcnvrt^0,c
  4598   002DDE  500F               	movf	??_vfpfcnvrt^0,w,c
  4599   002DE0  6E02               	movwf	fputc@c^0,c
  4600   002DE2  6A03               	clrf	(fputc@c+1)^0,c
  4601   002DE4  C00B  F004         	movff	vfpfcnvrt@fp,fputc@fp
  4602   002DE8  C00C  F005         	movff	vfpfcnvrt@fp+1,fputc@fp+1
  4603   002DEC  EC7B  F018         	call	_fputc	;wreg free
  4604   002DF0  2A16               	incf	vfpfcnvrt@c^0,f,c
  4605   002DF2                     l2608:
  4606                           
  4607                           ;C:\Program Files\Microchip\xc8\v2.46\pic\sources\c99\common\doprnt.c: 1423:    while (c
      +                           != sizeof(dbuf)) {
  4608   002DF2  0E20               	movlw	32
  4609   002DF4  1816               	xorwf	vfpfcnvrt@c^0,w,c
  4610   002DF6  A4D8               	btfss	status,2,c
  4611   002DF8  EF00  F017         	goto	u2691
  4612   002DFC  EF02  F017         	goto	u2690
  4613   002E00                     u2691:
  4614   002E00  EFE9  F016         	goto	l2604
  4615   002E04                     u2690:
  4616   002E04  EF1D  F017         	goto	l876
  4617   002E08                     l2610:
  4618                           
  4619                           ;C:\Program Files\Microchip\xc8\v2.46\pic\sources\c99\common\doprnt.c: 1806:         ++*
      +                          fmt;
  4620   002E08  500D               	movf	vfpfcnvrt@fmt^0,w,c
  4621   002E0A  6ED9               	movwf	fsr2l,c
  4622   002E0C  6ADA               	clrf	fsr2h,c
  4623   002E0E  2ADF               	incf	indf2,f,c
  4624   002E10  EF1D  F017         	goto	l876
  4625   002E14                     l2614:
  4626                           
  4627                           ;C:\Program Files\Microchip\xc8\v2.46\pic\sources\c99\common\doprnt.c: 1811:     fputc((
      +                          int)(*fmt)[0], fp);
  4628   002E14  500D               	movf	vfpfcnvrt@fmt^0,w,c
  4629   002E16  6ED9               	movwf	fsr2l,c
  4630   002E18  6ADA               	clrf	fsr2h,c
  4631   002E1A  CFDF FFF6          	movff	indf2,tblptrl
  4632   002E1E                     	if	1	;There is more than 1 active tblptr byte
  4633   002E1E  0E10               	movlw	high __smallconst
  4634   002E20  6EF7               	movwf	tblptrh,c
  4635   002E22                     	endif
  4636   002E22                     	if	0	;tblptru may be non-zero
  4637   002E22                     	endif
  4638   002E22                     	if	0	;tblptru may be non-zero
  4639   002E22                     	endif
  4640   002E22  0008               	tblrd		*
  4641   002E24  50F5               	movf	tablat,w,c
  4642   002E26  6E02               	movwf	fputc@c^0,c
  4643   002E28  6A03               	clrf	(fputc@c+1)^0,c
  4644   002E2A  C00B  F004         	movff	vfpfcnvrt@fp,fputc@fp
  4645   002E2E  C00C  F005         	movff	vfpfcnvrt@fp+1,fputc@fp+1
  4646   002E32  EC7B  F018         	call	_fputc	;wreg free
  4647   002E36  EF04  F017         	goto	l2610
  4648   002E3A                     l876:
  4649   002E3A  0012               	return		;funcret
  4650   002E3C                     __end_of_vfpfcnvrt:
  4651                           	callstack 0
  4652                           
  4653 ;; *************** function _fputc *****************
  4654 ;; Defined at:
  4655 ;;		line 8 in file "C:\Program Files\Microchip\xc8\v2.46\pic\sources\c99\common\nf_fputc.c"
  4656 ;; Parameters:    Size  Location     Type
  4657 ;;  c               2    1[COMRAM] int 
  4658 ;;  fp              2    3[COMRAM] PTR struct _IO_FILE
  4659 ;;		 -> NULL(0), 
  4660 ;; Auto vars:     Size  Location     Type
  4661 ;;		None
  4662 ;; Return value:  Size  Location     Type
  4663 ;;                  2    1[COMRAM] int 
  4664 ;; Registers used:
  4665 ;;		wreg, fsr1l, fsr1h, fsr2l, fsr2h, status,2, status,0, cstack
  4666 ;; Tracked objects:
  4667 ;;		On entry : 0/0
  4668 ;;		On exit  : 0/0
  4669 ;;		Unchanged: 0/0
  4670 ;; Data sizes:     COMRAM   BANK0   BANK1   BANK2   BANK3   BANK4   BANK5   BANK6   BANK7   BANK8   BANK9  BANK10  BANK1
      +1  BANK12  BANK13  BANK14  BANK15
  4671 ;;      Params:         4       0       0       0       0       0       0       0       0       0       0       0       
      +0       0       0       0       0
  4672 ;;      Locals:         0       0       0       0       0       0       0       0       0       0       0       0       
      +0       0       0       0       0
  4673 ;;      Temps:          5       0       0       0       0       0       0       0       0       0       0       0       
      +0       0       0       0       0
  4674 ;;      Totals:         9       0       0       0       0       0       0       0       0       0       0       0       
      +0       0       0       0       0
  4675 ;;Total ram usage:        9 bytes
  4676 ;; Hardware stack levels used: 1
  4677 ;; Hardware stack levels required when called: 1
  4678 ;; This function calls:
  4679 ;;		_putch
  4680 ;; This function is called by:
  4681 ;;		_vfpfcnvrt
  4682 ;; This function uses a non-reentrant model
  4683 ;;
  4684                           
  4685                           	psect	text15
  4686   0030F6                     __ptext15:
  4687                           	callstack 0
  4688   0030F6                     _fputc:
  4689                           	callstack 26
  4690   0030F6  5004               	movf	fputc@fp^0,w,c
  4691   0030F8  1005               	iorwf	(fputc@fp+1)^0,w,c
  4692   0030FA  B4D8               	btfsc	status,2,c
  4693   0030FC  EF82  F018         	goto	u2181
  4694   003100  EF84  F018         	goto	u2180
  4695   003104                     u2181:
  4696   003104  EF8D  F018         	goto	l2322
  4697   003108                     u2180:
  4698   003108  5004               	movf	fputc@fp^0,w,c
  4699   00310A  1005               	iorwf	(fputc@fp+1)^0,w,c
  4700   00310C  A4D8               	btfss	status,2,c
  4701   00310E  EF8B  F018         	goto	u2191
  4702   003112  EF8D  F018         	goto	u2190
  4703   003116                     u2191:
  4704   003116  EF92  F018         	goto	l2324
  4705   00311A                     u2190:
  4706   00311A                     l2322:
  4707   00311A  5002               	movf	fputc@c^0,w,c
  4708   00311C  EC67  F01A         	call	_putch
  4709   003120  EFDF  F018         	goto	l901
  4710   003124                     l2324:
  4711   003124  EE20 F00A          	lfsr	2,10
  4712   003128  5004               	movf	fputc@fp^0,w,c
  4713   00312A  26D9               	addwf	fsr2l,f,c
  4714   00312C  5005               	movf	(fputc@fp+1)^0,w,c
  4715   00312E  22DA               	addwfc	fsr2h,f,c
  4716   003130  50DE               	movf	postinc2,w,c
  4717   003132  10DE               	iorwf	postinc2,w,c
  4718   003134  B4D8               	btfsc	status,2,c
  4719   003136  EF9F  F018         	goto	u2201
  4720   00313A  EFA1  F018         	goto	u2200
  4721   00313E                     u2201:
  4722   00313E  EFBC  F018         	goto	l2328
  4723   003142                     u2200:
  4724   003142  EE20 F00A          	lfsr	2,10
  4725   003146  5004               	movf	fputc@fp^0,w,c
  4726   003148  26D9               	addwf	fsr2l,f,c
  4727   00314A  5005               	movf	(fputc@fp+1)^0,w,c
  4728   00314C  22DA               	addwfc	fsr2h,f,c
  4729   00314E  EE10 F003          	lfsr	1,3
  4730   003152  5004               	movf	fputc@fp^0,w,c
  4731   003154  26E1               	addwf	fsr1l,f,c
  4732   003156  5005               	movf	(fputc@fp+1)^0,w,c
  4733   003158  22E2               	addwfc	fsr1h,f,c
  4734   00315A  50DE               	movf	postinc2,w,c
  4735   00315C  5CE6               	subwf	postinc1,w,c
  4736   00315E  50E6               	movf	postinc1,w,c
  4737   003160  0A80               	xorlw	128
  4738   003162  6E0A               	movwf	(??_fputc+4)^0,c
  4739   003164  50DE               	movf	postinc2,w,c
  4740   003166  0A80               	xorlw	128
  4741   003168  580A               	subwfb	(??_fputc+4)^0,w,c
  4742   00316A  B0D8               	btfsc	status,0,c
  4743   00316C  EFBA  F018         	goto	u2211
  4744   003170  EFBC  F018         	goto	u2210
  4745   003174                     u2211:
  4746   003174  EFDF  F018         	goto	l901
  4747   003178                     u2210:
  4748   003178                     l2328:
  4749   003178  EE20 F003          	lfsr	2,3
  4750   00317C  5004               	movf	fputc@fp^0,w,c
  4751   00317E  26D9               	addwf	fsr2l,f,c
  4752   003180  5005               	movf	(fputc@fp+1)^0,w,c
  4753   003182  22DA               	addwfc	fsr2h,f,c
  4754   003184  CFDE F006          	movff	postinc2,??_fputc
  4755   003188  CFDD F007          	movff	postdec2,??_fputc+1
  4756   00318C  C004  FFD9         	movff	fputc@fp,fsr2l
  4757   003190  C005  FFDA         	movff	fputc@fp+1,fsr2h
  4758   003194  CFDE F008          	movff	postinc2,??_fputc+2
  4759   003198  CFDD F009          	movff	postdec2,??_fputc+3
  4760   00319C  5006               	movf	??_fputc^0,w,c
  4761   00319E  2408               	addwf	(??_fputc+2)^0,w,c
  4762   0031A0  6ED9               	movwf	fsr2l,c
  4763   0031A2  5007               	movf	(??_fputc+1)^0,w,c
  4764   0031A4  2009               	addwfc	(??_fputc+3)^0,w,c
  4765   0031A6  6EDA               	movwf	fsr2h,c
  4766   0031A8  C002  FFDF         	movff	fputc@c,indf2
  4767   0031AC  EE20 F003          	lfsr	2,3
  4768   0031B0  5004               	movf	fputc@fp^0,w,c
  4769   0031B2  26D9               	addwf	fsr2l,f,c
  4770   0031B4  5005               	movf	(fputc@fp+1)^0,w,c
  4771   0031B6  22DA               	addwfc	fsr2h,f,c
  4772   0031B8  2ADE               	incf	postinc2,f,c
  4773   0031BA  0E00               	movlw	0
  4774   0031BC  22DD               	addwfc	postdec2,f,c
  4775   0031BE                     l901:
  4776   0031BE  0012               	return		;funcret
  4777   0031C0                     __end_of_fputc:
  4778                           	callstack 0
  4779                           
  4780 ;; *************** function _putch *****************
  4781 ;; Defined at:
  4782 ;;		line 111 in file "main.c"
  4783 ;; Parameters:    Size  Location     Type
  4784 ;;  data            1    wreg     unsigned char 
  4785 ;; Auto vars:     Size  Location     Type
  4786 ;;  data            1    0[COMRAM] unsigned char 
  4787 ;; Return value:  Size  Location     Type
  4788 ;;                  1    wreg      void 
  4789 ;; Registers used:
  4790 ;;		wreg
  4791 ;; Tracked objects:
  4792 ;;		On entry : 0/0
  4793 ;;		On exit  : 0/0
  4794 ;;		Unchanged: 0/0
  4795 ;; Data sizes:     COMRAM   BANK0   BANK1   BANK2   BANK3   BANK4   BANK5   BANK6   BANK7   BANK8   BANK9  BANK10  BANK1
      +1  BANK12  BANK13  BANK14  BANK15
  4796 ;;      Params:         0       0       0       0       0       0       0       0       0       0       0       0       
      +0       0       0       0       0
  4797 ;;      Locals:         1       0       0       0       0       0       0       0       0       0       0       0       
      +0       0       0       0       0
  4798 ;;      Temps:          0       0       0       0       0       0       0       0       0       0       0       0       
      +0       0       0       0       0
  4799 ;;      Totals:         1       0       0       0       0       0       0       0       0       0       0       0       
      +0       0       0       0       0
  4800 ;;Total ram usage:        1 bytes
  4801 ;; Hardware stack levels used: 1
  4802 ;; This function calls:
  4803 ;;		Nothing
  4804 ;; This function is called by:
  4805 ;;		_fputc
  4806 ;; This function uses a non-reentrant model
  4807 ;;
  4808                           
  4809                           	psect	text16
  4810   0034CE                     __ptext16:
  4811                           	callstack 0
  4812   0034CE                     _putch:
  4813                           	callstack 26
  4814                           
  4815                           ;incstack = 0
  4816                           ;putch@data stored from wreg
  4817   0034CE  6E01               	movwf	putch@data^0,c
  4818   0034D0                     l86:
  4819   0034D0  A89E               	btfss	3998,4,c	;volatile
  4820   0034D2  EF6D  F01A         	goto	u1661
  4821   0034D6  EF6F  F01A         	goto	u1660
  4822   0034DA                     u1661:
  4823   0034DA  EF68  F01A         	goto	l86
  4824   0034DE                     u1660:
  4825   0034DE                     
  4826                           ;main.c: 113:     TXREG1 = data;
  4827   0034DE  C001  FFAD         	movff	putch@data,4013	;volatile
  4828   0034E2  0012               	return		;funcret
  4829   0034E4                     __end_of_putch:
  4830                           	callstack 0
  4831                           
  4832 ;; *************** function _abs *****************
  4833 ;; Defined at:
  4834 ;;		line 1 in file "C:\Program Files\Microchip\xc8\v2.46\pic\sources\c99\common\abs.c"
  4835 ;; Parameters:    Size  Location     Type
  4836 ;;  a               2    6[COMRAM] int 
  4837 ;; Auto vars:     Size  Location     Type
  4838 ;;		None
  4839 ;; Return value:  Size  Location     Type
  4840 ;;                  2    6[COMRAM] int 
  4841 ;; Registers used:
  4842 ;;		wreg, status,2, status,0
  4843 ;; Tracked objects:
  4844 ;;		On entry : 0/0
  4845 ;;		On exit  : 0/0
  4846 ;;		Unchanged: 0/0
  4847 ;; Data sizes:     COMRAM   BANK0   BANK1   BANK2   BANK3   BANK4   BANK5   BANK6   BANK7   BANK8   BANK9  BANK10  BANK1
      +1  BANK12  BANK13  BANK14  BANK15
  4848 ;;      Params:         2       0       0       0       0       0       0       0       0       0       0       0       
      +0       0       0       0       0
  4849 ;;      Locals:         0       0       0       0       0       0       0       0       0       0       0       0       
      +0       0       0       0       0
  4850 ;;      Temps:          2       0       0       0       0       0       0       0       0       0       0       0       
      +0       0       0       0       0
  4851 ;;      Totals:         4       0       0       0       0       0       0       0       0       0       0       0       
      +0       0       0       0       0
  4852 ;;Total ram usage:        4 bytes
  4853 ;; Hardware stack levels used: 1
  4854 ;; This function calls:
  4855 ;;		Nothing
  4856 ;; This function is called by:
  4857 ;;		_vfpfcnvrt
  4858 ;; This function uses a non-reentrant model
  4859 ;;
  4860                           
  4861                           	psect	text17
  4862   003468                     __ptext17:
  4863                           	callstack 0
  4864   003468                     _abs:
  4865                           	callstack 27
  4866   003468  BE08               	btfsc	(abs@a+1)^0,7,c
  4867   00346A  EF39  F01A         	goto	u2221
  4868   00346E  EF3B  F01A         	goto	u2220
  4869   003472                     u2221:
  4870   003472  EF41  F01A         	goto	l886
  4871   003476                     u2220:
  4872   003476  C007  F007         	movff	abs@a,?_abs
  4873   00347A  C008  F008         	movff	abs@a+1,?_abs+1
  4874   00347E  EF4D  F01A         	goto	l889
  4875   003482                     l886:
  4876   003482  C007  F009         	movff	abs@a,??_abs
  4877   003486  C008  F00A         	movff	abs@a+1,??_abs+1
  4878   00348A  1E09               	comf	??_abs^0,f,c
  4879   00348C  1E0A               	comf	(??_abs+1)^0,f,c
  4880   00348E  4A09               	infsnz	??_abs^0,f,c
  4881   003490  2A0A               	incf	(??_abs+1)^0,f,c
  4882   003492  C009  F007         	movff	??_abs,?_abs
  4883   003496  C00A  F008         	movff	??_abs+1,?_abs+1
  4884   00349A                     l889:
  4885   00349A  0012               	return		;funcret
  4886   00349C                     __end_of_abs:
  4887                           	callstack 0
  4888                           
  4889 ;; *************** function ___awmod *****************
  4890 ;; Defined at:
  4891 ;;		line 7 in file "C:\Program Files\Microchip\xc8\v2.46\pic\sources\c99\common\awmod.c"
  4892 ;; Parameters:    Size  Location     Type
  4893 ;;  dividend        2    0[COMRAM] int 
  4894 ;;  divisor         2    2[COMRAM] int 
  4895 ;; Auto vars:     Size  Location     Type
  4896 ;;  sign            1    5[COMRAM] unsigned char 
  4897 ;;  counter         1    4[COMRAM] unsigned char 
  4898 ;; Return value:  Size  Location     Type
  4899 ;;                  2    0[COMRAM] int 
  4900 ;; Registers used:
  4901 ;;		wreg, status,2, status,0
  4902 ;; Tracked objects:
  4903 ;;		On entry : 0/0
  4904 ;;		On exit  : 0/0
  4905 ;;		Unchanged: 0/0
  4906 ;; Data sizes:     COMRAM   BANK0   BANK1   BANK2   BANK3   BANK4   BANK5   BANK6   BANK7   BANK8   BANK9  BANK10  BANK1
      +1  BANK12  BANK13  BANK14  BANK15
  4907 ;;      Params:         4       0       0       0       0       0       0       0       0       0       0       0       
      +0       0       0       0       0
  4908 ;;      Locals:         2       0       0       0       0       0       0       0       0       0       0       0       
      +0       0       0       0       0
  4909 ;;      Temps:          0       0       0       0       0       0       0       0       0       0       0       0       
      +0       0       0       0       0
  4910 ;;      Totals:         6       0       0       0       0       0       0       0       0       0       0       0       
      +0       0       0       0       0
  4911 ;;Total ram usage:        6 bytes
  4912 ;; Hardware stack levels used: 1
  4913 ;; This function calls:
  4914 ;;		Nothing
  4915 ;; This function is called by:
  4916 ;;		_vfpfcnvrt
  4917 ;; This function uses a non-reentrant model
  4918 ;;
  4919                           
  4920                           	psect	text18
  4921   003284                     __ptext18:
  4922                           	callstack 0
  4923   003284                     ___awmod:
  4924                           	callstack 27
  4925   003284  0E00               	movlw	0
  4926   003286  6E06               	movwf	___awmod@sign^0,c
  4927   003288  BE02               	btfsc	(___awmod@dividend+1)^0,7,c
  4928   00328A  EF4B  F019         	goto	u2120
  4929   00328E  EF49  F019         	goto	u2121
  4930   003292                     u2121:
  4931   003292  EF51  F019         	goto	l2290
  4932   003296                     u2120:
  4933   003296  6C01               	negf	___awmod@dividend^0,c
  4934   003298  1E02               	comf	(___awmod@dividend+1)^0,f,c
  4935   00329A  B0D8               	btfsc	status,0,c
  4936   00329C  2A02               	incf	(___awmod@dividend+1)^0,f,c
  4937   00329E  0E01               	movlw	1
  4938   0032A0  6E06               	movwf	___awmod@sign^0,c
  4939   0032A2                     l2290:
  4940   0032A2  BE04               	btfsc	(___awmod@divisor+1)^0,7,c
  4941   0032A4  EF58  F019         	goto	u2130
  4942   0032A8  EF56  F019         	goto	u2131
  4943   0032AC                     u2131:
  4944   0032AC  EF5C  F019         	goto	l2294
  4945   0032B0                     u2130:
  4946   0032B0  6C03               	negf	___awmod@divisor^0,c
  4947   0032B2  1E04               	comf	(___awmod@divisor+1)^0,f,c
  4948   0032B4  B0D8               	btfsc	status,0,c
  4949   0032B6  2A04               	incf	(___awmod@divisor+1)^0,f,c
  4950   0032B8                     l2294:
  4951   0032B8  5003               	movf	___awmod@divisor^0,w,c
  4952   0032BA  1004               	iorwf	(___awmod@divisor+1)^0,w,c
  4953   0032BC  B4D8               	btfsc	status,2,c
  4954   0032BE  EF63  F019         	goto	u2141
  4955   0032C2  EF65  F019         	goto	u2140
  4956   0032C6                     u2141:
  4957   0032C6  EF89  F019         	goto	l2310
  4958   0032CA                     u2140:
  4959   0032CA  0E01               	movlw	1
  4960   0032CC  6E05               	movwf	___awmod@counter^0,c
  4961   0032CE  EF6D  F019         	goto	l2300
  4962   0032D2                     l2298:
  4963   0032D2  90D8               	bcf	status,0,c
  4964   0032D4  3603               	rlcf	___awmod@divisor^0,f,c
  4965   0032D6  3604               	rlcf	(___awmod@divisor+1)^0,f,c
  4966   0032D8  2A05               	incf	___awmod@counter^0,f,c
  4967   0032DA                     l2300:
  4968   0032DA  AE04               	btfss	(___awmod@divisor+1)^0,7,c
  4969   0032DC  EF72  F019         	goto	u2151
  4970   0032E0  EF74  F019         	goto	u2150
  4971   0032E4                     u2151:
  4972   0032E4  EF69  F019         	goto	l2298
  4973   0032E8                     u2150:
  4974   0032E8                     l2302:
  4975   0032E8  5003               	movf	___awmod@divisor^0,w,c
  4976   0032EA  5C01               	subwf	___awmod@dividend^0,w,c
  4977   0032EC  5004               	movf	(___awmod@divisor+1)^0,w,c
  4978   0032EE  5802               	subwfb	(___awmod@dividend+1)^0,w,c
  4979   0032F0  A0D8               	btfss	status,0,c
  4980   0032F2  EF7D  F019         	goto	u2161
  4981   0032F6  EF7F  F019         	goto	u2160
  4982   0032FA                     u2161:
  4983   0032FA  EF83  F019         	goto	l2306
  4984   0032FE                     u2160:
  4985   0032FE  5003               	movf	___awmod@divisor^0,w,c
  4986   003300  5E01               	subwf	___awmod@dividend^0,f,c
  4987   003302  5004               	movf	(___awmod@divisor+1)^0,w,c
  4988   003304  5A02               	subwfb	(___awmod@dividend+1)^0,f,c
  4989   003306                     l2306:
  4990   003306  90D8               	bcf	status,0,c
  4991   003308  3204               	rrcf	(___awmod@divisor+1)^0,f,c
  4992   00330A  3203               	rrcf	___awmod@divisor^0,f,c
  4993   00330C  2E05               	decfsz	___awmod@counter^0,f,c
  4994   00330E  EF74  F019         	goto	l2302
  4995   003312                     l2310:
  4996   003312  5006               	movf	___awmod@sign^0,w,c
  4997   003314  B4D8               	btfsc	status,2,c
  4998   003316  EF8F  F019         	goto	u2171
  4999   00331A  EF91  F019         	goto	u2170
  5000   00331E                     u2171:
  5001   00331E  EF95  F019         	goto	l2314
  5002   003322                     u2170:
  5003   003322  6C01               	negf	___awmod@dividend^0,c
  5004   003324  1E02               	comf	(___awmod@dividend+1)^0,f,c
  5005   003326  B0D8               	btfsc	status,0,c
  5006   003328  2A02               	incf	(___awmod@dividend+1)^0,f,c
  5007   00332A                     l2314:
  5008   00332A  C001  F001         	movff	___awmod@dividend,?___awmod
  5009   00332E  C002  F002         	movff	___awmod@dividend+1,?___awmod+1
  5010   003332  0012               	return		;funcret
  5011   003334                     __end_of___awmod:
  5012                           	callstack 0
  5013                           
  5014 ;; *************** function ___awdiv *****************
  5015 ;; Defined at:
  5016 ;;		line 7 in file "C:\Program Files\Microchip\xc8\v2.46\pic\sources\c99\common\awdiv.c"
  5017 ;; Parameters:    Size  Location     Type
  5018 ;;  dividend        2    0[COMRAM] int 
  5019 ;;  divisor         2    2[COMRAM] int 
  5020 ;; Auto vars:     Size  Location     Type
  5021 ;;  quotient        2    6[COMRAM] int 
  5022 ;;  sign            1    5[COMRAM] unsigned char 
  5023 ;;  counter         1    4[COMRAM] unsigned char 
  5024 ;; Return value:  Size  Location     Type
  5025 ;;                  2    0[COMRAM] int 
  5026 ;; Registers used:
  5027 ;;		wreg, status,2, status,0
  5028 ;; Tracked objects:
  5029 ;;		On entry : 0/0
  5030 ;;		On exit  : 0/0
  5031 ;;		Unchanged: 0/0
  5032 ;; Data sizes:     COMRAM   BANK0   BANK1   BANK2   BANK3   BANK4   BANK5   BANK6   BANK7   BANK8   BANK9  BANK10  BANK1
      +1  BANK12  BANK13  BANK14  BANK15
  5033 ;;      Params:         4       0       0       0       0       0       0       0       0       0       0       0       
      +0       0       0       0       0
  5034 ;;      Locals:         4       0       0       0       0       0       0       0       0       0       0       0       
      +0       0       0       0       0
  5035 ;;      Temps:          0       0       0       0       0       0       0       0       0       0       0       0       
      +0       0       0       0       0
  5036 ;;      Totals:         8       0       0       0       0       0       0       0       0       0       0       0       
      +0       0       0       0       0
  5037 ;;Total ram usage:        8 bytes
  5038 ;; Hardware stack levels used: 1
  5039 ;; This function calls:
  5040 ;;		Nothing
  5041 ;; This function is called by:
  5042 ;;		_vfpfcnvrt
  5043 ;; This function uses a non-reentrant model
  5044 ;;
  5045                           
  5046                           	psect	text19
  5047   0031C0                     __ptext19:
  5048                           	callstack 0
  5049   0031C0                     ___awdiv:
  5050                           	callstack 27
  5051   0031C0  0E00               	movlw	0
  5052   0031C2  6E06               	movwf	___awdiv@sign^0,c
  5053   0031C4  BE04               	btfsc	(___awdiv@divisor+1)^0,7,c
  5054   0031C6  EFE9  F018         	goto	u2060
  5055   0031CA  EFE7  F018         	goto	u2061
  5056   0031CE                     u2061:
  5057   0031CE  EFEF  F018         	goto	l2246
  5058   0031D2                     u2060:
  5059   0031D2  6C03               	negf	___awdiv@divisor^0,c
  5060   0031D4  1E04               	comf	(___awdiv@divisor+1)^0,f,c
  5061   0031D6  B0D8               	btfsc	status,0,c
  5062   0031D8  2A04               	incf	(___awdiv@divisor+1)^0,f,c
  5063   0031DA  0E01               	movlw	1
  5064   0031DC  6E06               	movwf	___awdiv@sign^0,c
  5065   0031DE                     l2246:
  5066   0031DE  BE02               	btfsc	(___awdiv@dividend+1)^0,7,c
  5067   0031E0  EFF6  F018         	goto	u2070
  5068   0031E4  EFF4  F018         	goto	u2071
  5069   0031E8                     u2071:
  5070   0031E8  EFFC  F018         	goto	l2252
  5071   0031EC                     u2070:
  5072   0031EC  6C01               	negf	___awdiv@dividend^0,c
  5073   0031EE  1E02               	comf	(___awdiv@dividend+1)^0,f,c
  5074   0031F0  B0D8               	btfsc	status,0,c
  5075   0031F2  2A02               	incf	(___awdiv@dividend+1)^0,f,c
  5076   0031F4  0E01               	movlw	1
  5077   0031F6  1A06               	xorwf	___awdiv@sign^0,f,c
  5078   0031F8                     l2252:
  5079   0031F8  0E00               	movlw	0
  5080   0031FA  6E08               	movwf	(___awdiv@quotient+1)^0,c
  5081   0031FC  0E00               	movlw	0
  5082   0031FE  6E07               	movwf	___awdiv@quotient^0,c
  5083   003200  5003               	movf	___awdiv@divisor^0,w,c
  5084   003202  1004               	iorwf	(___awdiv@divisor+1)^0,w,c
  5085   003204  B4D8               	btfsc	status,2,c
  5086   003206  EF07  F019         	goto	u2081
  5087   00320A  EF09  F019         	goto	u2080
  5088   00320E                     u2081:
  5089   00320E  EF31  F019         	goto	l2274
  5090   003212                     u2080:
  5091   003212  0E01               	movlw	1
  5092   003214  6E05               	movwf	___awdiv@counter^0,c
  5093   003216  EF11  F019         	goto	l2260
  5094   00321A                     l2258:
  5095   00321A  90D8               	bcf	status,0,c
  5096   00321C  3603               	rlcf	___awdiv@divisor^0,f,c
  5097   00321E  3604               	rlcf	(___awdiv@divisor+1)^0,f,c
  5098   003220  2A05               	incf	___awdiv@counter^0,f,c
  5099   003222                     l2260:
  5100   003222  AE04               	btfss	(___awdiv@divisor+1)^0,7,c
  5101   003224  EF16  F019         	goto	u2091
  5102   003228  EF18  F019         	goto	u2090
  5103   00322C                     u2091:
  5104   00322C  EF0D  F019         	goto	l2258
  5105   003230                     u2090:
  5106   003230                     l2262:
  5107   003230  90D8               	bcf	status,0,c
  5108   003232  3607               	rlcf	___awdiv@quotient^0,f,c
  5109   003234  3608               	rlcf	(___awdiv@quotient+1)^0,f,c
  5110   003236  5003               	movf	___awdiv@divisor^0,w,c
  5111   003238  5C01               	subwf	___awdiv@dividend^0,w,c
  5112   00323A  5004               	movf	(___awdiv@divisor+1)^0,w,c
  5113   00323C  5802               	subwfb	(___awdiv@dividend+1)^0,w,c
  5114   00323E  A0D8               	btfss	status,0,c
  5115   003240  EF24  F019         	goto	u2101
  5116   003244  EF26  F019         	goto	u2100
  5117   003248                     u2101:
  5118   003248  EF2B  F019         	goto	l2270
  5119   00324C                     u2100:
  5120   00324C  5003               	movf	___awdiv@divisor^0,w,c
  5121   00324E  5E01               	subwf	___awdiv@dividend^0,f,c
  5122   003250  5004               	movf	(___awdiv@divisor+1)^0,w,c
  5123   003252  5A02               	subwfb	(___awdiv@dividend+1)^0,f,c
  5124   003254  8007               	bsf	___awdiv@quotient^0,0,c
  5125   003256                     l2270:
  5126   003256  90D8               	bcf	status,0,c
  5127   003258  3204               	rrcf	(___awdiv@divisor+1)^0,f,c
  5128   00325A  3203               	rrcf	___awdiv@divisor^0,f,c
  5129   00325C  2E05               	decfsz	___awdiv@counter^0,f,c
  5130   00325E  EF18  F019         	goto	l2262
  5131   003262                     l2274:
  5132   003262  5006               	movf	___awdiv@sign^0,w,c
  5133   003264  B4D8               	btfsc	status,2,c
  5134   003266  EF37  F019         	goto	u2111
  5135   00326A  EF39  F019         	goto	u2110
  5136   00326E                     u2111:
  5137   00326E  EF3D  F019         	goto	l2278
  5138   003272                     u2110:
  5139   003272  6C07               	negf	___awdiv@quotient^0,c
  5140   003274  1E08               	comf	(___awdiv@quotient+1)^0,f,c
  5141   003276  B0D8               	btfsc	status,0,c
  5142   003278  2A08               	incf	(___awdiv@quotient+1)^0,f,c
  5143   00327A                     l2278:
  5144   00327A  C007  F001         	movff	___awdiv@quotient,?___awdiv
  5145   00327E  C008  F002         	movff	___awdiv@quotient+1,?___awdiv+1
  5146   003282  0012               	return		;funcret
  5147   003284                     __end_of___awdiv:
  5148                           	callstack 0
  5149                           
  5150 ;; *************** function ___fldiv *****************
  5151 ;; Defined at:
  5152 ;;		line 11 in file "C:\Program Files\Microchip\xc8\v2.46\pic\sources\c99\common\sprcdiv.c"
  5153 ;; Parameters:    Size  Location     Type
  5154 ;;  b               4   39[COMRAM] int 
  5155 ;;  a               4   43[COMRAM] int 
  5156 ;; Auto vars:     Size  Location     Type
  5157 ;;  grs             4   58[COMRAM] unsigned long 
  5158 ;;  rem             4   51[COMRAM] unsigned long 
  5159 ;;  new_exp         2   56[COMRAM] short 
  5160 ;;  aexp            1   63[COMRAM] unsigned char 
  5161 ;;  bexp            1   62[COMRAM] unsigned char 
  5162 ;;  sign            1   55[COMRAM] unsigned char 
  5163 ;; Return value:  Size  Location     Type
  5164 ;;                  4   39[COMRAM] unsigned char 
  5165 ;; Registers used:
  5166 ;;		wreg, status,2, status,0
  5167 ;; Tracked objects:
  5168 ;;		On entry : 0/0
  5169 ;;		On exit  : 0/0
  5170 ;;		Unchanged: 0/0
  5171 ;; Data sizes:     COMRAM   BANK0   BANK1   BANK2   BANK3   BANK4   BANK5   BANK6   BANK7   BANK8   BANK9  BANK10  BANK1
      +1  BANK12  BANK13  BANK14  BANK15
  5172 ;;      Params:         8       0       0       0       0       0       0       0       0       0       0       0       
      +0       0       0       0       0
  5173 ;;      Locals:        13       0       0       0       0       0       0       0       0       0       0       0       
      +0       0       0       0       0
  5174 ;;      Temps:          4       0       0       0       0       0       0       0       0       0       0       0       
      +0       0       0       0       0
  5175 ;;      Totals:        25       0       0       0       0       0       0       0       0       0       0       0       
      +0       0       0       0       0
  5176 ;;Total ram usage:       25 bytes
  5177 ;; Hardware stack levels used: 1
  5178 ;; This function calls:
  5179 ;;		Nothing
  5180 ;; This function is called by:
  5181 ;;		_main
  5182 ;; This function uses a non-reentrant model
  5183 ;;
  5184                           
  5185                           	psect	text20
  5186   0021FE                     __ptext20:
  5187                           	callstack 0
  5188   0021FE                     ___fldiv:
  5189                           	callstack 30
  5190   0021FE  502B               	movf	(___fldiv@b+3)^0,w,c
  5191   002200  0B80               	andlw	128
  5192   002202  6E38               	movwf	___fldiv@sign^0,c
  5193   002204  502B               	movf	(___fldiv@b+3)^0,w,c
  5194   002206  242B               	addwf	(___fldiv@b+3)^0,w,c
  5195   002208  6E3F               	movwf	___fldiv@bexp^0,c
  5196   00220A  AE2A               	btfss	(___fldiv@b+2)^0,7,c
  5197   00220C  EF0A  F011         	goto	u2911
  5198   002210  EF0C  F011         	goto	u2910
  5199   002214                     u2911:
  5200   002214  EF0D  F011         	goto	l2814
  5201   002218                     u2910:
  5202   002218  803F               	bsf	___fldiv@bexp^0,0,c
  5203   00221A                     l2814:
  5204   00221A  503F               	movf	___fldiv@bexp^0,w,c
  5205   00221C  B4D8               	btfsc	status,2,c
  5206   00221E  EF13  F011         	goto	u2921
  5207   002222  EF15  F011         	goto	u2920
  5208   002226                     u2921:
  5209   002226  EF2A  F011         	goto	l2824
  5210   00222A                     u2920:
  5211   00222A  283F               	incf	___fldiv@bexp^0,w,c
  5212   00222C  A4D8               	btfss	status,2,c
  5213   00222E  EF1B  F011         	goto	u2931
  5214   002232  EF1D  F011         	goto	u2930
  5215   002236                     u2931:
  5216   002236  EF25  F011         	goto	l2820
  5217   00223A                     u2930:
  5218   00223A  0E00               	movlw	0
  5219   00223C  6E28               	movwf	___fldiv@b^0,c
  5220   00223E  0E00               	movlw	0
  5221   002240  6E29               	movwf	(___fldiv@b+1)^0,c
  5222   002242  0E00               	movlw	0
  5223   002244  6E2A               	movwf	(___fldiv@b+2)^0,c
  5224   002246  0E00               	movlw	0
  5225   002248  6E2B               	movwf	(___fldiv@b+3)^0,c
  5226   00224A                     l2820:
  5227   00224A  8E2A               	bsf	(___fldiv@b+2)^0,7,c
  5228   00224C  0E00               	movlw	0
  5229   00224E  6E2B               	movwf	(___fldiv@b+3)^0,c
  5230   002250  EF32  F011         	goto	l2826
  5231   002254                     l2824:
  5232   002254  0E00               	movlw	0
  5233   002256  6E28               	movwf	___fldiv@b^0,c
  5234   002258  0E00               	movlw	0
  5235   00225A  6E29               	movwf	(___fldiv@b+1)^0,c
  5236   00225C  0E00               	movlw	0
  5237   00225E  6E2A               	movwf	(___fldiv@b+2)^0,c
  5238   002260  0E00               	movlw	0
  5239   002262  6E2B               	movwf	(___fldiv@b+3)^0,c
  5240   002264                     l2826:
  5241   002264  502F               	movf	(___fldiv@a+3)^0,w,c
  5242   002266  0B80               	andlw	128
  5243   002268  1A38               	xorwf	___fldiv@sign^0,f,c
  5244   00226A  502F               	movf	(___fldiv@a+3)^0,w,c
  5245   00226C  242F               	addwf	(___fldiv@a+3)^0,w,c
  5246   00226E  6E40               	movwf	___fldiv@aexp^0,c
  5247   002270  AE2E               	btfss	(___fldiv@a+2)^0,7,c
  5248   002272  EF3D  F011         	goto	u2941
  5249   002276  EF3F  F011         	goto	u2940
  5250   00227A                     u2941:
  5251   00227A  EF40  F011         	goto	l2834
  5252   00227E                     u2940:
  5253   00227E  8040               	bsf	___fldiv@aexp^0,0,c
  5254   002280                     l2834:
  5255   002280  5040               	movf	___fldiv@aexp^0,w,c
  5256   002282  B4D8               	btfsc	status,2,c
  5257   002284  EF46  F011         	goto	u2951
  5258   002288  EF48  F011         	goto	u2950
  5259   00228C                     u2951:
  5260   00228C  EF5D  F011         	goto	l2844
  5261   002290                     u2950:
  5262   002290  2840               	incf	___fldiv@aexp^0,w,c
  5263   002292  A4D8               	btfss	status,2,c
  5264   002294  EF4E  F011         	goto	u2961
  5265   002298  EF50  F011         	goto	u2960
  5266   00229C                     u2961:
  5267   00229C  EF58  F011         	goto	l2840
  5268   0022A0                     u2960:
  5269   0022A0  0E00               	movlw	0
  5270   0022A2  6E2C               	movwf	___fldiv@a^0,c
  5271   0022A4  0E00               	movlw	0
  5272   0022A6  6E2D               	movwf	(___fldiv@a+1)^0,c
  5273   0022A8  0E00               	movlw	0
  5274   0022AA  6E2E               	movwf	(___fldiv@a+2)^0,c
  5275   0022AC  0E00               	movlw	0
  5276   0022AE  6E2F               	movwf	(___fldiv@a+3)^0,c
  5277   0022B0                     l2840:
  5278   0022B0  8E2E               	bsf	(___fldiv@a+2)^0,7,c
  5279   0022B2  0E00               	movlw	0
  5280   0022B4  6E2F               	movwf	(___fldiv@a+3)^0,c
  5281   0022B6  EF65  F011         	goto	l2846
  5282   0022BA                     l2844:
  5283   0022BA  0E00               	movlw	0
  5284   0022BC  6E2C               	movwf	___fldiv@a^0,c
  5285   0022BE  0E00               	movlw	0
  5286   0022C0  6E2D               	movwf	(___fldiv@a+1)^0,c
  5287   0022C2  0E00               	movlw	0
  5288   0022C4  6E2E               	movwf	(___fldiv@a+2)^0,c
  5289   0022C6  0E00               	movlw	0
  5290   0022C8  6E2F               	movwf	(___fldiv@a+3)^0,c
  5291   0022CA                     l2846:
  5292   0022CA  502C               	movf	___fldiv@a^0,w,c
  5293   0022CC  102D               	iorwf	(___fldiv@a+1)^0,w,c
  5294   0022CE  102E               	iorwf	(___fldiv@a+2)^0,w,c
  5295   0022D0  102F               	iorwf	(___fldiv@a+3)^0,w,c
  5296   0022D2  A4D8               	btfss	status,2,c
  5297   0022D4  EF6E  F011         	goto	u2971
  5298   0022D8  EF70  F011         	goto	u2970
  5299   0022DC                     u2971:
  5300   0022DC  EF88  F011         	goto	l2858
  5301   0022E0                     u2970:
  5302   0022E0  0E00               	movlw	0
  5303   0022E2  6E28               	movwf	___fldiv@b^0,c
  5304   0022E4  0E00               	movlw	0
  5305   0022E6  6E29               	movwf	(___fldiv@b+1)^0,c
  5306   0022E8  0E00               	movlw	0
  5307   0022EA  6E2A               	movwf	(___fldiv@b+2)^0,c
  5308   0022EC  0E00               	movlw	0
  5309   0022EE  6E2B               	movwf	(___fldiv@b+3)^0,c
  5310   0022F0  0E80               	movlw	128
  5311   0022F2  122A               	iorwf	(___fldiv@b+2)^0,f,c
  5312   0022F4  0E7F               	movlw	127
  5313   0022F6  122B               	iorwf	(___fldiv@b+3)^0,f,c
  5314   0022F8                     l2852:
  5315   0022F8  5038               	movf	___fldiv@sign^0,w,c
  5316   0022FA  122B               	iorwf	(___fldiv@b+3)^0,f,c
  5317   0022FC  C028  F028         	movff	___fldiv@b,?___fldiv
  5318   002300  C029  F029         	movff	___fldiv@b+1,?___fldiv+1
  5319   002304  C02A  F02A         	movff	___fldiv@b+2,?___fldiv+2
  5320   002308  C02B  F02B         	movff	___fldiv@b+3,?___fldiv+3
  5321   00230C  EFCB  F012         	goto	l742
  5322   002310                     l2858:
  5323   002310  503F               	movf	___fldiv@bexp^0,w,c
  5324   002312  A4D8               	btfss	status,2,c
  5325   002314  EF8E  F011         	goto	u2981
  5326   002318  EF90  F011         	goto	u2980
  5327   00231C                     u2981:
  5328   00231C  EF9A  F011         	goto	l2866
  5329   002320                     u2980:
  5330   002320  0E00               	movlw	0
  5331   002322  6E28               	movwf	?___fldiv^0,c
  5332   002324  0E00               	movlw	0
  5333   002326  6E29               	movwf	(?___fldiv+1)^0,c
  5334   002328  0E00               	movlw	0
  5335   00232A  6E2A               	movwf	(?___fldiv+2)^0,c
  5336   00232C  0E00               	movlw	0
  5337   00232E  6E2B               	movwf	(?___fldiv+3)^0,c
  5338   002330  EFCB  F012         	goto	l742
  5339   002334                     l2866:
  5340   002334  5040               	movf	___fldiv@aexp^0,w,c
  5341   002336  C03F  F030         	movff	___fldiv@bexp,??___fldiv
  5342   00233A  6A31               	clrf	(??___fldiv+1)^0,c
  5343   00233C  5E30               	subwf	??___fldiv^0,f,c
  5344   00233E  0E00               	movlw	0
  5345   002340  5A31               	subwfb	(??___fldiv+1)^0,f,c
  5346   002342  0E7F               	movlw	127
  5347   002344  2430               	addwf	??___fldiv^0,w,c
  5348   002346  6E39               	movwf	___fldiv@new_exp^0,c
  5349   002348  0E00               	movlw	0
  5350   00234A  2031               	addwfc	(??___fldiv+1)^0,w,c
  5351   00234C  6E3A               	movwf	(___fldiv@new_exp+1)^0,c
  5352   00234E  C028  F034         	movff	___fldiv@b,___fldiv@rem
  5353   002352  C029  F035         	movff	___fldiv@b+1,___fldiv@rem+1
  5354   002356  C02A  F036         	movff	___fldiv@b+2,___fldiv@rem+2
  5355   00235A  C02B  F037         	movff	___fldiv@b+3,___fldiv@rem+3
  5356   00235E  0E00               	movlw	0
  5357   002360  6E28               	movwf	___fldiv@b^0,c
  5358   002362  0E00               	movlw	0
  5359   002364  6E29               	movwf	(___fldiv@b+1)^0,c
  5360   002366  0E00               	movlw	0
  5361   002368  6E2A               	movwf	(___fldiv@b+2)^0,c
  5362   00236A  0E00               	movlw	0
  5363   00236C  6E2B               	movwf	(___fldiv@b+3)^0,c
  5364   00236E  0E00               	movlw	0
  5365   002370  6E3B               	movwf	___fldiv@grs^0,c
  5366   002372  0E00               	movlw	0
  5367   002374  6E3C               	movwf	(___fldiv@grs+1)^0,c
  5368   002376  0E00               	movlw	0
  5369   002378  6E3D               	movwf	(___fldiv@grs+2)^0,c
  5370   00237A  0E00               	movlw	0
  5371   00237C  6E3E               	movwf	(___fldiv@grs+3)^0,c
  5372   00237E  0E00               	movlw	0
  5373   002380  6E40               	movwf	___fldiv@aexp^0,c
  5374   002382  EFFB  F011         	goto	l744
  5375   002386                     l2876:
  5376   002386  5040               	movf	___fldiv@aexp^0,w,c
  5377   002388  B4D8               	btfsc	status,2,c
  5378   00238A  EFC9  F011         	goto	u2991
  5379   00238E  EFCB  F011         	goto	u2990
  5380   002392                     u2991:
  5381   002392  EFE2  F011         	goto	l2884
  5382   002396                     u2990:
  5383   002396  90D8               	bcf	status,0,c
  5384   002398  3634               	rlcf	___fldiv@rem^0,f,c
  5385   00239A  3635               	rlcf	(___fldiv@rem+1)^0,f,c
  5386   00239C  3636               	rlcf	(___fldiv@rem+2)^0,f,c
  5387   00239E  3637               	rlcf	(___fldiv@rem+3)^0,f,c
  5388   0023A0  90D8               	bcf	status,0,c
  5389   0023A2  3628               	rlcf	___fldiv@b^0,f,c
  5390   0023A4  3629               	rlcf	(___fldiv@b+1)^0,f,c
  5391   0023A6  362A               	rlcf	(___fldiv@b+2)^0,f,c
  5392   0023A8  362B               	rlcf	(___fldiv@b+3)^0,f,c
  5393   0023AA  AE3E               	btfss	(___fldiv@grs+3)^0,7,c
  5394   0023AC  EFDA  F011         	goto	u3001
  5395   0023B0  EFDC  F011         	goto	u3000
  5396   0023B4                     u3001:
  5397   0023B4  EFDD  F011         	goto	l747
  5398   0023B8                     u3000:
  5399   0023B8  8028               	bsf	___fldiv@b^0,0,c
  5400   0023BA                     l747:
  5401   0023BA  90D8               	bcf	status,0,c
  5402   0023BC  363B               	rlcf	___fldiv@grs^0,f,c
  5403   0023BE  363C               	rlcf	(___fldiv@grs+1)^0,f,c
  5404   0023C0  363D               	rlcf	(___fldiv@grs+2)^0,f,c
  5405   0023C2  363E               	rlcf	(___fldiv@grs+3)^0,f,c
  5406   0023C4                     l2884:
  5407   0023C4  502C               	movf	___fldiv@a^0,w,c
  5408   0023C6  5C34               	subwf	___fldiv@rem^0,w,c
  5409   0023C8  502D               	movf	(___fldiv@a+1)^0,w,c
  5410   0023CA  5835               	subwfb	(___fldiv@rem+1)^0,w,c
  5411   0023CC  502E               	movf	(___fldiv@a+2)^0,w,c
  5412   0023CE  5836               	subwfb	(___fldiv@rem+2)^0,w,c
  5413   0023D0  502F               	movf	(___fldiv@a+3)^0,w,c
  5414   0023D2  5837               	subwfb	(___fldiv@rem+3)^0,w,c
  5415   0023D4  A0D8               	btfss	status,0,c
  5416   0023D6  EFEF  F011         	goto	u3011
  5417   0023DA  EFF1  F011         	goto	u3010
  5418   0023DE                     u3011:
  5419   0023DE  EFFA  F011         	goto	l2890
  5420   0023E2                     u3010:
  5421   0023E2  8C3E               	bsf	(___fldiv@grs+3)^0,6,c
  5422   0023E4  502C               	movf	___fldiv@a^0,w,c
  5423   0023E6  5E34               	subwf	___fldiv@rem^0,f,c
  5424   0023E8  502D               	movf	(___fldiv@a+1)^0,w,c
  5425   0023EA  5A35               	subwfb	(___fldiv@rem+1)^0,f,c
  5426   0023EC  502E               	movf	(___fldiv@a+2)^0,w,c
  5427   0023EE  5A36               	subwfb	(___fldiv@rem+2)^0,f,c
  5428   0023F0  502F               	movf	(___fldiv@a+3)^0,w,c
  5429   0023F2  5A37               	subwfb	(___fldiv@rem+3)^0,f,c
  5430   0023F4                     l2890:
  5431   0023F4  2A40               	incf	___fldiv@aexp^0,f,c
  5432   0023F6                     l744:
  5433   0023F6  0E19               	movlw	25
  5434   0023F8  6440               	cpfsgt	___fldiv@aexp^0,c
  5435   0023FA  EF01  F012         	goto	u3021
  5436   0023FE  EF03  F012         	goto	u3020
  5437   002402                     u3021:
  5438   002402  EFC3  F011         	goto	l2876
  5439   002406                     u3020:
  5440   002406  5034               	movf	___fldiv@rem^0,w,c
  5441   002408  1035               	iorwf	(___fldiv@rem+1)^0,w,c
  5442   00240A  1036               	iorwf	(___fldiv@rem+2)^0,w,c
  5443   00240C  1037               	iorwf	(___fldiv@rem+3)^0,w,c
  5444   00240E  B4D8               	btfsc	status,2,c
  5445   002410  EF0C  F012         	goto	u3031
  5446   002414  EF0E  F012         	goto	u3030
  5447   002418                     u3031:
  5448   002418  EF26  F012         	goto	l2902
  5449   00241C                     u3030:
  5450   00241C  803B               	bsf	___fldiv@grs^0,0,c
  5451   00241E  EF26  F012         	goto	l2902
  5452   002422                     l2896:
  5453   002422  90D8               	bcf	status,0,c
  5454   002424  3628               	rlcf	___fldiv@b^0,f,c
  5455   002426  3629               	rlcf	(___fldiv@b+1)^0,f,c
  5456   002428  362A               	rlcf	(___fldiv@b+2)^0,f,c
  5457   00242A  362B               	rlcf	(___fldiv@b+3)^0,f,c
  5458   00242C  AE3E               	btfss	(___fldiv@grs+3)^0,7,c
  5459   00242E  EF1B  F012         	goto	u3041
  5460   002432  EF1D  F012         	goto	u3040
  5461   002436                     u3041:
  5462   002436  EF1E  F012         	goto	l753
  5463   00243A                     u3040:
  5464   00243A  8028               	bsf	___fldiv@b^0,0,c
  5465   00243C                     l753:
  5466   00243C  90D8               	bcf	status,0,c
  5467   00243E  363B               	rlcf	___fldiv@grs^0,f,c
  5468   002440  363C               	rlcf	(___fldiv@grs+1)^0,f,c
  5469   002442  363D               	rlcf	(___fldiv@grs+2)^0,f,c
  5470   002444  363E               	rlcf	(___fldiv@grs+3)^0,f,c
  5471   002446  0639               	decf	___fldiv@new_exp^0,f,c
  5472   002448  A0D8               	btfss	status,0,c
  5473   00244A  063A               	decf	(___fldiv@new_exp+1)^0,f,c
  5474   00244C                     l2902:
  5475   00244C  AE2A               	btfss	(___fldiv@b+2)^0,7,c
  5476   00244E  EF2B  F012         	goto	u3051
  5477   002452  EF2D  F012         	goto	u3050
  5478   002456                     u3051:
  5479   002456  EF11  F012         	goto	l2896
  5480   00245A                     u3050:
  5481   00245A  0E00               	movlw	0
  5482   00245C  6E40               	movwf	___fldiv@aexp^0,c
  5483   00245E  AE3E               	btfss	(___fldiv@grs+3)^0,7,c
  5484   002460  EF34  F012         	goto	u3061
  5485   002464  EF36  F012         	goto	u3060
  5486   002468                     u3061:
  5487   002468  EF5A  F012         	goto	l755
  5488   00246C                     u3060:
  5489   00246C  0EFF               	movlw	255
  5490   00246E  143B               	andwf	___fldiv@grs^0,w,c
  5491   002470  6E30               	movwf	??___fldiv^0,c
  5492   002472  0EFF               	movlw	255
  5493   002474  143C               	andwf	(___fldiv@grs+1)^0,w,c
  5494   002476  6E31               	movwf	(??___fldiv+1)^0,c
  5495   002478  0EFF               	movlw	255
  5496   00247A  143D               	andwf	(___fldiv@grs+2)^0,w,c
  5497   00247C  6E32               	movwf	(??___fldiv+2)^0,c
  5498   00247E  0E7F               	movlw	127
  5499   002480  143E               	andwf	(___fldiv@grs+3)^0,w,c
  5500   002482  6E33               	movwf	(??___fldiv+3)^0,c
  5501   002484  5030               	movf	??___fldiv^0,w,c
  5502   002486  1031               	iorwf	(??___fldiv+1)^0,w,c
  5503   002488  1032               	iorwf	(??___fldiv+2)^0,w,c
  5504   00248A  1033               	iorwf	(??___fldiv+3)^0,w,c
  5505   00248C  B4D8               	btfsc	status,2,c
  5506   00248E  EF4B  F012         	goto	u3071
  5507   002492  EF4D  F012         	goto	u3070
  5508   002496                     u3071:
  5509   002496  EF51  F012         	goto	l756
  5510   00249A                     u3070:
  5511   00249A                     l2910:
  5512   00249A  0E01               	movlw	1
  5513   00249C  6E40               	movwf	___fldiv@aexp^0,c
  5514   00249E  EF5A  F012         	goto	l755
  5515   0024A2                     l756:
  5516   0024A2  A028               	btfss	___fldiv@b^0,0,c
  5517   0024A4  EF56  F012         	goto	u3081
  5518   0024A8  EF58  F012         	goto	u3080
  5519   0024AC                     u3081:
  5520   0024AC  EF5A  F012         	goto	l755
  5521   0024B0                     u3080:
  5522   0024B0  EF4D  F012         	goto	l2910
  5523   0024B4                     l755:
  5524   0024B4  5040               	movf	___fldiv@aexp^0,w,c
  5525   0024B6  B4D8               	btfsc	status,2,c
  5526   0024B8  EF60  F012         	goto	u3091
  5527   0024BC  EF62  F012         	goto	u3090
  5528   0024C0                     u3091:
  5529   0024C0  EF86  F012         	goto	l2922
  5530   0024C4                     u3090:
  5531   0024C4  0E01               	movlw	1
  5532   0024C6  2628               	addwf	___fldiv@b^0,f,c
  5533   0024C8  0E00               	movlw	0
  5534   0024CA  2229               	addwfc	(___fldiv@b+1)^0,f,c
  5535   0024CC  222A               	addwfc	(___fldiv@b+2)^0,f,c
  5536   0024CE  222B               	addwfc	(___fldiv@b+3)^0,f,c
  5537   0024D0  A02B               	btfss	(___fldiv@b+3)^0,0,c
  5538   0024D2  EF6D  F012         	goto	u3101
  5539   0024D6  EF6F  F012         	goto	u3100
  5540   0024DA                     u3101:
  5541   0024DA  EF86  F012         	goto	l2922
  5542   0024DE                     u3100:
  5543   0024DE  C028  F030         	movff	___fldiv@b,??___fldiv
  5544   0024E2  C029  F031         	movff	___fldiv@b+1,??___fldiv+1
  5545   0024E6  C02A  F032         	movff	___fldiv@b+2,??___fldiv+2
  5546   0024EA  C02B  F033         	movff	___fldiv@b+3,??___fldiv+3
  5547   0024EE  3433               	rlcf	(??___fldiv+3)^0,w,c
  5548   0024F0  3233               	rrcf	(??___fldiv+3)^0,f,c
  5549   0024F2  3232               	rrcf	(??___fldiv+2)^0,f,c
  5550   0024F4  3231               	rrcf	(??___fldiv+1)^0,f,c
  5551   0024F6  3230               	rrcf	??___fldiv^0,f,c
  5552   0024F8  C030  F028         	movff	??___fldiv,___fldiv@b
  5553   0024FC  C031  F029         	movff	??___fldiv+1,___fldiv@b+1
  5554   002500  C032  F02A         	movff	??___fldiv+2,___fldiv@b+2
  5555   002504  C033  F02B         	movff	??___fldiv+3,___fldiv@b+3
  5556   002508  4A39               	infsnz	___fldiv@new_exp^0,f,c
  5557   00250A  2A3A               	incf	(___fldiv@new_exp+1)^0,f,c
  5558   00250C                     l2922:
  5559   00250C  BE3A               	btfsc	(___fldiv@new_exp+1)^0,7,c
  5560   00250E  EF91  F012         	goto	u3111
  5561   002512  503A               	movf	(___fldiv@new_exp+1)^0,w,c
  5562   002514  E108               	bnz	u3110
  5563   002516  2839               	incf	___fldiv@new_exp^0,w,c
  5564   002518  A0D8               	btfss	status,0,c
  5565   00251A  EF91  F012         	goto	u3111
  5566   00251E  EF93  F012         	goto	u3110
  5567   002522                     u3111:
  5568   002522  EF9E  F012         	goto	l2926
  5569   002526                     u3110:
  5570   002526  0E00               	movlw	0
  5571   002528  6E3A               	movwf	(___fldiv@new_exp+1)^0,c
  5572   00252A  6839               	setf	___fldiv@new_exp^0,c
  5573   00252C  0E00               	movlw	0
  5574   00252E  6E28               	movwf	___fldiv@b^0,c
  5575   002530  0E00               	movlw	0
  5576   002532  6E29               	movwf	(___fldiv@b+1)^0,c
  5577   002534  0E00               	movlw	0
  5578   002536  6E2A               	movwf	(___fldiv@b+2)^0,c
  5579   002538  0E00               	movlw	0
  5580   00253A  6E2B               	movwf	(___fldiv@b+3)^0,c
  5581   00253C                     l2926:
  5582   00253C  BE3A               	btfsc	(___fldiv@new_exp+1)^0,7,c
  5583   00253E  EFAB  F012         	goto	u3120
  5584   002542  503A               	movf	(___fldiv@new_exp+1)^0,w,c
  5585   002544  E106               	bnz	u3121
  5586   002546  0439               	decf	___fldiv@new_exp^0,w,c
  5587   002548  B0D8               	btfsc	status,0,c
  5588   00254A  EFA9  F012         	goto	u3121
  5589   00254E  EFAB  F012         	goto	u3120
  5590   002552                     u3121:
  5591   002552  EFB9  F012         	goto	l2930
  5592   002556                     u3120:
  5593   002556  0E00               	movlw	0
  5594   002558  6E3A               	movwf	(___fldiv@new_exp+1)^0,c
  5595   00255A  0E00               	movlw	0
  5596   00255C  6E39               	movwf	___fldiv@new_exp^0,c
  5597   00255E  0E00               	movlw	0
  5598   002560  6E28               	movwf	___fldiv@b^0,c
  5599   002562  0E00               	movlw	0
  5600   002564  6E29               	movwf	(___fldiv@b+1)^0,c
  5601   002566  0E00               	movlw	0
  5602   002568  6E2A               	movwf	(___fldiv@b+2)^0,c
  5603   00256A  0E00               	movlw	0
  5604   00256C  6E2B               	movwf	(___fldiv@b+3)^0,c
  5605   00256E  0E00               	movlw	0
  5606   002570  6E38               	movwf	___fldiv@sign^0,c
  5607   002572                     l2930:
  5608   002572  C039  F03F         	movff	___fldiv@new_exp,___fldiv@bexp
  5609   002576  A03F               	btfss	___fldiv@bexp^0,0,c
  5610   002578  EFC0  F012         	goto	u3131
  5611   00257C  EFC2  F012         	goto	u3130
  5612   002580                     u3131:
  5613   002580  EFC5  F012         	goto	l2936
  5614   002584                     u3130:
  5615   002584  8E2A               	bsf	(___fldiv@b+2)^0,7,c
  5616   002586  EFC6  F012         	goto	l2938
  5617   00258A                     l2936:
  5618   00258A  9E2A               	bcf	(___fldiv@b+2)^0,7,c
  5619   00258C                     l2938:
  5620   00258C  90D8               	bcf	status,0,c
  5621   00258E  303F               	rrcf	___fldiv@bexp^0,w,c
  5622   002590  6E2B               	movwf	(___fldiv@b+3)^0,c
  5623   002592  EF7C  F011         	goto	l2852
  5624   002596                     l742:
  5625   002596  0012               	return		;funcret
  5626   002598                     __end_of___fldiv:
  5627                           	callstack 0
  5628                           
  5629 ;; *************** function _SPI_write *****************
  5630 ;; Defined at:
  5631 ;;		line 92 in file "main.c"
  5632 ;; Parameters:    Size  Location     Type
  5633 ;;  data            1    wreg     unsigned char 
  5634 ;; Auto vars:     Size  Location     Type
  5635 ;;  data            1    2[COMRAM] unsigned char 
  5636 ;;  LSB             1    1[COMRAM] unsigned char 
  5637 ;;  MSB             1    0[COMRAM] unsigned char 
  5638 ;; Return value:  Size  Location     Type
  5639 ;;                  1    wreg      void 
  5640 ;; Registers used:
  5641 ;;		wreg, status,2, status,0
  5642 ;; Tracked objects:
  5643 ;;		On entry : 0/0
  5644 ;;		On exit  : 0/0
  5645 ;;		Unchanged: 0/0
  5646 ;; Data sizes:     COMRAM   BANK0   BANK1   BANK2   BANK3   BANK4   BANK5   BANK6   BANK7   BANK8   BANK9  BANK10  BANK1
      +1  BANK12  BANK13  BANK14  BANK15
  5647 ;;      Params:         0       0       0       0       0       0       0       0       0       0       0       0       
      +0       0       0       0       0
  5648 ;;      Locals:         3       0       0       0       0       0       0       0       0       0       0       0       
      +0       0       0       0       0
  5649 ;;      Temps:          0       0       0       0       0       0       0       0       0       0       0       0       
      +0       0       0       0       0
  5650 ;;      Totals:         3       0       0       0       0       0       0       0       0       0       0       0       
      +0       0       0       0       0
  5651 ;;Total ram usage:        3 bytes
  5652 ;; Hardware stack levels used: 1
  5653 ;; This function calls:
  5654 ;;		Nothing
  5655 ;; This function is called by:
  5656 ;;		_main
  5657 ;; This function uses a non-reentrant model
  5658 ;;
  5659                           
  5660                           	psect	text21
  5661   0033BC                     __ptext21:
  5662                           	callstack 0
  5663   0033BC                     _SPI_write:
  5664                           	callstack 30
  5665                           
  5666                           ;incstack = 0
  5667                           ;SPI_write@data stored from wreg
  5668   0033BC  6E03               	movwf	SPI_write@data^0,c
  5669   0033BE                     
  5670                           ;main.c: 93:     uint8_t MSB, LSB;;main.c: 95:     MSB = (uint8_t)(0b00110000 | (data >>
      +                           4));
  5671   0033BE  3803               	swapf	SPI_write@data^0,w,c
  5672   0033C0  0B0F               	andlw	15
  5673   0033C2  0930               	iorlw	48
  5674   0033C4  6E01               	movwf	SPI_write@MSB^0,c
  5675                           
  5676                           ;main.c: 96:     LSB = (uint8_t)(data << 4);
  5677   0033C6  3803               	swapf	SPI_write@data^0,w,c
  5678   0033C8  0BF0               	andlw	240
  5679   0033CA  6E02               	movwf	SPI_write@LSB^0,c
  5680   0033CC                     
  5681                           ;main.c: 98:     LATBbits.LB3 = 0;
  5682   0033CC  968A               	bcf	138,3,c	;volatile
  5683   0033CE                     
  5684                           ;main.c: 100:     SSP1BUF = MSB;
  5685   0033CE  C001  FFC9         	movff	SPI_write@MSB,4041	;volatile
  5686   0033D2                     l77:
  5687   0033D2  A69E               	btfss	3998,3,c	;volatile
  5688   0033D4  EFEE  F019         	goto	u2761
  5689   0033D8  EFF0  F019         	goto	u2760
  5690   0033DC                     u2761:
  5691   0033DC  EFE9  F019         	goto	l77
  5692   0033E0                     u2760:
  5693   0033E0                     
  5694                           ;main.c: 102:     SSP1IF = 0;
  5695   0033E0  969E               	bcf	3998,3,c	;volatile
  5696                           
  5697                           ;main.c: 104:     SSP1BUF = LSB;
  5698   0033E2  C002  FFC9         	movff	SPI_write@LSB,4041	;volatile
  5699   0033E6                     l80:
  5700   0033E6  A69E               	btfss	3998,3,c	;volatile
  5701   0033E8  EFF8  F019         	goto	u2771
  5702   0033EC  EFFA  F019         	goto	u2770
  5703   0033F0                     u2771:
  5704   0033F0  EFF3  F019         	goto	l80
  5705   0033F4                     u2770:
  5706   0033F4                     
  5707                           ;main.c: 106:     SSP1IF = 0;
  5708   0033F4  969E               	bcf	3998,3,c	;volatile
  5709                           
  5710                           ;main.c: 108:     LATBbits.LB3 = 1;
  5711   0033F6  868A               	bsf	138,3,c	;volatile
  5712   0033F8  0012               	return		;funcret
  5713   0033FA                     __end_of_SPI_write:
  5714                           	callstack 0
  5715                           
  5716                           	psect	rparam
  5717   000000                     
  5718                           	psect	config
  5719                           
  5720                           ; Padding undefined space
  5721   300000                     	org	3145728
  5722   300000  FF                 	db	255
  5723                           
  5724                           ;Config register CONFIG1H @ 0x300001
  5725                           ;	Oscillator Selection bits
  5726                           ;	FOSC = HSMP, HS oscillator (medium power 4-16 MHz)
  5727                           ;	4X PLL Enable
  5728                           ;	PLLCFG = ON, Oscillator multiplied by 4
  5729                           ;	Primary clock enable bit
  5730                           ;	PRICLKEN = 0x1, unprogrammed default
  5731                           ;	Fail-Safe Clock Monitor Enable bit
  5732                           ;	FCMEN = 0x0, unprogrammed default
  5733                           ;	Internal/External Oscillator Switchover bit
  5734                           ;	IESO = 0x0, unprogrammed default
  5735   300001                     	org	3145729
  5736   300001  33                 	db	51
  5737                           
  5738                           ;Config register CONFIG2L @ 0x300002
  5739                           ;	unspecified, using default values
  5740                           ;	Power-up Timer Enable bit
  5741                           ;	PWRTEN = 0x1, unprogrammed default
  5742                           ;	Brown-out Reset Enable bits
  5743                           ;	BOREN = 0x3, unprogrammed default
  5744                           ;	Brown Out Reset Voltage bits
  5745                           ;	BORV = 0x3, unprogrammed default
  5746   300002                     	org	3145730
  5747   300002  1F                 	db	31
  5748                           
  5749                           ;Config register CONFIG2H @ 0x300003
  5750                           ;	Watchdog Timer Enable bits
  5751                           ;	WDTEN = OFF, Watch dog timer is always disabled. SWDTEN has no effect.
  5752                           ;	Watchdog Timer Postscale Select bits
  5753                           ;	WDTPS = 0xF, unprogrammed default
  5754   300003                     	org	3145731
  5755   300003  3C                 	db	60
  5756                           tosu	equ	0xFFF
  5757                           tosh	equ	0xFFE
  5758                           tosl	equ	0xFFD
  5759                           stkptr	equ	0xFFC
  5760                           pclatu	equ	0xFFB
  5761                           pclath	equ	0xFFA
  5762                           pcl	equ	0xFF9
  5763                           tblptru	equ	0xFF8
  5764                           tblptrh	equ	0xFF7
  5765                           tblptrl	equ	0xFF6
  5766                           tablat	equ	0xFF5
  5767                           prodh	equ	0xFF4
  5768                           prodl	equ	0xFF3
  5769                           indf0	equ	0xFEF
  5770                           postinc0	equ	0xFEE
  5771                           postdec0	equ	0xFED
  5772                           preinc0	equ	0xFEC
  5773                           plusw0	equ	0xFEB
  5774                           fsr0h	equ	0xFEA
  5775                           fsr0l	equ	0xFE9
  5776                           wreg	equ	0xFE8
  5777                           indf1	equ	0xFE7
  5778                           postinc1	equ	0xFE6
  5779                           postdec1	equ	0xFE5
  5780                           preinc1	equ	0xFE4
  5781                           plusw1	equ	0xFE3
  5782                           fsr1h	equ	0xFE2
  5783                           fsr1l	equ	0xFE1
  5784                           bsr	equ	0xFE0
  5785                           indf2	equ	0xFDF
  5786                           postinc2	equ	0xFDE
  5787                           postdec2	equ	0xFDD
  5788                           preinc2	equ	0xFDC
  5789                           plusw2	equ	0xFDB
  5790                           fsr2h	equ	0xFDA
  5791                           fsr2l	equ	0xFD9
  5792                           status	equ	0xFD8

Data Sizes:
    Strings     5
    Constant    64
    Data        0
    BSS         45
    Persistent  0
    Stack       0

Auto Spaces:
    Space          Size  Autos    Used
    COMRAM           95     93      94
    BANK0           160     94     138
    BANK1           256      0       0
    BANK2           256      0       0
    BANK3           256      0       0
    BANK4           256      0       0
    BANK5           256      0       0
    BANK6           256      0       0
    BANK7           256      0       0
    BANK8           256      0       0
    BANK9           256      0       0
    BANK10          256      0       0
    BANK11          256      0       0
    BANK12          256      0       0
    BANK13          256      0       0
    BANK14          256      0       0
    BANK15           56      0       0

Pointer List with Targets:

    fputc@fp	PTR struct _IO_FILE size(2) Largest target is 0
		 -> NULL(NULL[0]), 

    fputc@fp$.$buffer	PTR unsigned char  size(2) Largest target is 0

    fputc@fp$.$source	PTR const unsigned char  size(2) Largest target is 0

    printf@ap	PTR void [1] size(1) Largest target is 2
		 -> ?_printf(COMRAM[2]), 

    printf@fmt	PTR const unsigned char  size(1) Largest target is 5
		 -> STR_1(CODE[5]), 

    __rem_pio2f@y	PTR  size(1) Largest target is 4
		 -> sinf@y(BANK0[4]), 

    S2033$buffer	PTR unsigned char  size(2) Largest target is 0

    S2033$source	PTR const unsigned char  size(2) Largest target is 0

    vfpfcnvrt@ap	PTR PTR void  size(1) Largest target is 1
		 -> printf@ap(COMRAM[1]), 

    vfpfcnvrt@cp	PTR unsigned char  size(1) Largest target is 5
		 -> STR_1(CODE[5]), 

    vfpfcnvrt@fmt	PTR PTR unsigned char  size(1) Largest target is 1
		 -> vfprintf@cfmt(COMRAM[1]), 

    vfpfcnvrt@fp	PTR struct _IO_FILE size(2) Largest target is 0
		 -> NULL(NULL[0]), 

    vfprintf@ap	PTR PTR void  size(1) Largest target is 1
		 -> printf@ap(COMRAM[1]), 

    vfprintf@cfmt	PTR unsigned char  size(1) Largest target is 5
		 -> STR_1(CODE[5]), 

    vfprintf@fmt	PTR const unsigned char  size(1) Largest target is 5
		 -> STR_1(CODE[5]), 

    vfprintf@fp	PTR struct _IO_FILE size(2) Largest target is 0
		 -> NULL(NULL[0]), 


Critical Paths under _main in COMRAM

    _sinf->___rem_pio2f
    ___sindf->___fladd
    ___rem_pio2f->___fltol
    ___fltol->___fladd
    ___flsub->___fladd
    ___flneg->___cosdf
    ___cosdf->___fladd
    ___flmul->___xxtofl
    ___fladd->___fldiv
    _printf->_vfprintf
    _vfprintf->_vfpfcnvrt
    _vfpfcnvrt->_abs
    _vfpfcnvrt->_fputc
    _fputc->_putch
    _abs->___awmod
    ___fldiv->___flmul

Critical Paths under _main in BANK0

    _main->_sinf
    _sinf->___rem_pio2f
    ___rem_pio2f->___flneg
    ___flneg->___cosdf

Critical Paths under _main in BANK1

    None.

Critical Paths under _main in BANK2

    None.

Critical Paths under _main in BANK3

    None.

Critical Paths under _main in BANK4

    None.

Critical Paths under _main in BANK5

    None.

Critical Paths under _main in BANK6

    None.

Critical Paths under _main in BANK7

    None.

Critical Paths under _main in BANK8

    None.

Critical Paths under _main in BANK9

    None.

Critical Paths under _main in BANK10

    None.

Critical Paths under _main in BANK11

    None.

Critical Paths under _main in BANK12

    None.

Critical Paths under _main in BANK13

    None.

Critical Paths under _main in BANK14

    None.

Critical Paths under _main in BANK15

    None.

Call Graph Tables:

 ---------------------------------------------------------------------------------
 (Depth) Function   	        Calls       Base Space   Used Autos Params    Refs
 ---------------------------------------------------------------------------------
 (0) _main                                                11    11      0   65307
                                             92 COMRAM     1     1      0
                                             84 BANK0     10    10      0
                          _SPI_write
                            ___fladd
                            ___fldiv
                            ___flmul
                            ___fltol
                           ___xxtofl
                             _printf
                               _sinf
 ---------------------------------------------------------------------------------
 (1) _sinf                                                26    22      4   48671
                                             58 BANK0     26    22      4
                            ___cosdf
                            ___fladd
                            ___fldiv (ARG)
                            ___flneg
                        ___rem_pio2f
                            ___sindf
 ---------------------------------------------------------------------------------
 (2) ___sindf                                             32    28      4   11205
                                             80 COMRAM     4     0      4
                                              0 BANK0     28    28      0
                            ___fladd
                            ___flmul
 ---------------------------------------------------------------------------------
 (2) ___rem_pio2f                                         32    27      5   19459
                                             90 COMRAM     2     2      0
                                             28 BANK0     30    25      5
                            ___fladd
                            ___flmul
                            ___flneg
                            ___flsub
                            ___fltol
                           ___xxtofl
                              _fabsf
 ---------------------------------------------------------------------------------
 (3) _fabsf                                                8     4      4     199
                                              0 COMRAM     8     4      4
 ---------------------------------------------------------------------------------
 (3) ___xxtofl                                            14    10      4     702
                                              0 COMRAM    14    10      4
 ---------------------------------------------------------------------------------
 (3) ___fltol                                             10     6      4     609
                                             80 COMRAM    10     6      4
                            ___fladd (ARG)
                            ___fldiv (ARG)
                            ___flmul (ARG)
                           ___xxtofl (ARG)
 ---------------------------------------------------------------------------------
 (3) ___flsub                                              8     0      8    5929
                                             80 COMRAM     8     0      8
                            ___fladd
                            ___flmul (ARG)
 ---------------------------------------------------------------------------------
 (3) ___flneg                                              4     0      4     653
                                             24 BANK0      4     0      4
                            ___cosdf (ARG)
                            ___fladd (ARG)
 ---------------------------------------------------------------------------------
 (2) ___cosdf                                             28    24      4   11290
                                             80 COMRAM     4     0      4
                                              0 BANK0     24    24      0
                            ___fladd
                            ___flmul
 ---------------------------------------------------------------------------------
 (3) ___flmul                                             25    17      8    5392
                                             14 COMRAM    25    17      8
                           ___xxtofl (ARG)
 ---------------------------------------------------------------------------------
 (3) ___fladd                                             16     8      8    5150
                                             64 COMRAM    16     8      8
                            ___fldiv (ARG)
                            ___flmul (ARG)
                           ___xxtofl (ARG)
 ---------------------------------------------------------------------------------
 (1) _printf                                               6     3      3    3088
                                             27 COMRAM     4     1      3
                           _vfprintf
 ---------------------------------------------------------------------------------
 (2) _vfprintf                                             5     1      4    2958
                                             22 COMRAM     5     1      4
                          _vfpfcnvrt
 ---------------------------------------------------------------------------------
 (3) _vfpfcnvrt                                           12     8      4    2608
                                             10 COMRAM    12     8      4
                            ___awdiv
                            ___awmod
                                _abs
                              _fputc
 ---------------------------------------------------------------------------------
 (4) _fputc                                                9     5      4     804
                                              1 COMRAM     9     5      4
                              _putch
 ---------------------------------------------------------------------------------
 (5) _putch                                                1     1      0      22
                                              0 COMRAM     1     1      0
 ---------------------------------------------------------------------------------
 (4) _abs                                                  4     2      2     142
                                              6 COMRAM     4     2      2
                            ___awmod (ARG)
 ---------------------------------------------------------------------------------
 (4) ___awmod                                              6     2      4     448
                                              0 COMRAM     6     2      4
 ---------------------------------------------------------------------------------
 (4) ___awdiv                                              8     4      4     452
                                              0 COMRAM     8     4      4
 ---------------------------------------------------------------------------------
 (1) ___fldiv                                             25    17      8    1399
                                             39 COMRAM    25    17      8
                            ___flmul (ARG)
                           ___xxtofl (ARG)
 ---------------------------------------------------------------------------------
 (1) _SPI_write                                            3     3      0      90
                                              0 COMRAM     3     3      0
 ---------------------------------------------------------------------------------
 Estimated maximum stack depth 5
 ---------------------------------------------------------------------------------

 Call Graph Graphs:

 _main (ROOT)
   _SPI_write
   ___fladd
     ___fldiv (ARG)
       ___flmul (ARG)
         ___xxtofl (ARG)
       ___xxtofl (ARG)
     ___flmul (ARG)
     ___xxtofl (ARG)
   ___fldiv
   ___flmul
   ___fltol
     ___fladd (ARG)
     ___fldiv (ARG)
     ___flmul (ARG)
     ___xxtofl (ARG)
   ___xxtofl
   _printf
     _vfprintf
       _vfpfcnvrt
         ___awdiv
         ___awmod
         _abs
           ___awmod (ARG)
         _fputc
           _putch
   _sinf
     ___cosdf
       ___fladd
       ___flmul
     ___fladd
     ___fldiv (ARG)
     ___flneg (ARG)
       ___cosdf (ARG)
       ___fladd (ARG)
     ___rem_pio2f (ARG)
       ___fladd
       ___flmul
       ___flneg
       ___flsub
         ___fladd
         ___flmul (ARG)
       ___fltol
       ___xxtofl
       _fabsf
     ___sindf (ARG)
       ___fladd
       ___flmul

 Address spaces:
Name               Size   Autos  Total    Cost      Usage
BIGRAM             F37      0       0      53        0.0%
EEDATA             400      0       0       0        0.0%
BITBANK14          100      0       0      34        0.0%
BANK14             100      0       0      32        0.0%
BITBANK13          100      0       0      30        0.0%
BANK13             100      0       0      31        0.0%
BITBANK12          100      0       0      28        0.0%
BANK12             100      0       0      29        0.0%
BITBANK11          100      0       0      26        0.0%
BANK11             100      0       0      27        0.0%
BITBANK10          100      0       0      24        0.0%
BANK10             100      0       0      25        0.0%
BITBANK9           100      0       0      22        0.0%
BANK9              100      0       0      23        0.0%
BITBANK8           100      0       0      20        0.0%
BANK8              100      0       0      21        0.0%
BITBANK7           100      0       0      18        0.0%
BANK7              100      0       0      19        0.0%
BITBANK6           100      0       0      16        0.0%
BANK6              100      0       0      17        0.0%
BITBANK5           100      0       0      14        0.0%
BANK5              100      0       0      15        0.0%
BITBANK4           100      0       0      12        0.0%
BANK4              100      0       0      13        0.0%
BITBANK3           100      0       0      10        0.0%
BANK3              100      0       0      11        0.0%
BITBANK2           100      0       0       8        0.0%
BANK2              100      0       0       9        0.0%
BITBANK1           100      0       0       6        0.0%
BANK1              100      0       0       7        0.0%
BITBANK0            A0      0       0       4        0.0%
BANK0               A0     5E      8A       5       86.2%
BITCOMRAM           5F      0       0       0        0.0%
COMRAM              5F     5D      5E       1       98.9%
BITBANK15           38      0       0      35        0.0%
BANK15              38      0       0      36        0.0%
BITBIGSFRhhh        36      0       0      37        0.0%
BITBIGSFRlllllh     2F      0       0      51        0.0%
BITBIGSFRlllllh     10      0       0      50        0.0%
BITBIGSFRhllh       10      0       0      42        0.0%
BITBIGSFRhlllll      8      0       0      46        0.0%
BITBIGSFRllh         7      0       0      47        0.0%
BITBIGSFRhllllh      6      0       0      44        0.0%
BITBIGSFRlllh        6      0       0      48        0.0%
BITBIGSFRhllllh      5      0       0      45        0.0%
BITBIGSFRllllh       1      0       0      49        0.0%
BITBIGSFRhlhhh       1      0       0      39        0.0%
BITBIGSFRhlllh       1      0       0      43        0.0%
BITBIGSFRhlhhl       1      0       0      40        0.0%
BITBIGSFRhlhl        1      0       0      41        0.0%
BITBIGSFRhhl         1      0       0      38        0.0%
BITBIGSFRllllll      1      0       0      52        0.0%
BIGSFR               0      0       0     200        0.0%
BITSFR_1             0      0       0     200        0.0%
SFR_1                0      0       0     200        0.0%
BITSFR               0      0       0     200        0.0%
SFR                  0      0       0     200        0.0%
STACK                0      0       0       2        0.0%
NULL                 0      0       0       0        0.0%
ABS                  0      0      E8      33        0.0%
DATA                 0      0      E8       3        0.0%
CODE                 0      0       0       0        0.0%


Microchip Technology PIC18 Macro Assembler V2.46 build 20240104201356 
Symbol Table                                                                                   Sat Apr 27 21:59:08 2024

           ___fldiv@aexp 0040             ___fldiv@bexp 003F             ___fldiv@sign 0038  
                     _C0 102D                       _C1 1029                       _C2 1025  
                     _C3 1021                       l62 27D4                       l55 25E8  
                     l80 33E6                       l65 27D6                       l82 33F4  
                     l83 33F8                       _S1 100D                       _S2 1009  
                     l77 33D2                       _S3 1005                       l86 34D0  
                     _S4 1001                       l79 33E0                       l89 34E2  
           ___awdiv@sign 0006                      l404 3332                      l434 3432  
                    l391 3282                      l705 185A                      l457 30F4  
                    l714 192A                      l730 3378                      l715 1918  
                    l901 31BE                      l742 2596                      l822 2F2A  
                    l815 2E92                      l744 23F6                      l753 243C  
                    l690 16F4                      l818 2FEE                      l755 24B4  
                    l747 23BA                      l756 24A2                      l781 1CCC  
                    l829 2F86                      l838 34B4                      l774 1AD6  
                    l791 1DFC                      l783 1D44                      l688 1740  
                    l784 1D32                      l928 1550                      l697 1A10  
                    l689 172E                      l882 33BA                      l778 1E3A  
                    l962 2C78                      l876 2E3A                      l886 3482  
                    l991 2A7A                      l889 349A                      l978 205E  
                    l979 21FC                      l996 3466                      _abs 3468  
           ___awmod@sign 0006                      wreg 0FE8               _TXSTA1bits 0FAC  
           ___flmul@aexp 0020             ___flmul@bexp 0021             ___flmul@sign 001B  
           ___flmul@temp 0026             ___flmul@prod 0022             ___fltol@exp1 005A  
                   ?_abs 0007                     l2100 1676                     l2110 168A  
                   l2102 167A                     l2032 34D0                     l2200 18FA  
                   l2120 16DC                     l2112 168E                     l2104 167E  
                   l2040 156C                     l3000 2814                     l2034 34DE  
                   l2210 1954                     l2202 1910                     l2130 1720  
                   l2122 16EC                     l2106 1682                     l2114 1692  
                   l2050 15A0                     l2042 156E                     l3002 281A  
                   l2300 32DA                     l2220 19D0                     l2212 198E  
                   l2132 1722                     l2124 1702                     l2116 1696  
                   l2108 1686                     l2060 15D2                     l2044 157E  
                   l2052 15A8                     l2036 1552                     l3004 2828  
                   l2302 32E8                     l2310 3312                     l2230 19F0  
                   l2222 19D4                     l2206 193A                     l2214 1990  
                   l2150 17AA                     l2142 1772                     l2134 172C  
                   l2126 170E                     l2118 16C0                     l2070 1608  
                   l2062 15D8                     l2054 15B8                     l2046 158E  
                   l2038 155E                     l3006 282E                     l2240 31C4  
                   l2312 3322                     l2304 32FE                     l2320 3108  
                   l2232 19FE                     l2224 19E2                     l2216 19A0  
                   l2208 1946                     l2152 17AE                     l2144 1782  
                   l2136 174E                     l2160 17CE                     l2128 1712  
                   l2080 1644                     l2072 1618                     l2064 15E6  
                   l2056 15BE                     l2048 159E                     l2400 1BB8  
                   l3008 283E                     l2250 31F4                     l2242 31D2  
                   l2314 332A                     l2306 3306                     l2322 311A  
                   l2234 1A00                     l2226 19E8                     l2218 19B0  
                   l2162 17F4                     l2170 184A                     l2154 17BC  
                   l2146 1790                     l2138 175E                     l2090 1662  
                   l2082 1652                     l2074 161A                     l2066 15E8  
                   l2058 15D0                     l2410 1C26                     l2402 1BD2  
                   l2260 3222                     l2252 31F8                     l2244 31DA  
                   l2308 330C                     l2332 3468                     l2324 3124  
                   l2228 19EA                     l2180 189E                     l2172 1870  
                   l2164 1828                     l2156 17BE                     l2148 179E  
                   l2092 1666                     l2084 1656                     l2068 15F8  
                   l2076 1622                     l2420 1CBC                     l2412 1C50  
                   l2404 1BE2                     l2340 1A2C                     l2270 3256  
                   l2262 3230                     l2254 3200                     l2246 31DE  
                   l2238 31C0                     l2334 3476                     l2326 3142  
                   l2318 30F6                     l2190 18C8                     l2182 18AC  
                   l2174 1880                     l2166 182A                     l2158 17C8  
                   l2094 166A                     l2086 165A                     l2078 1632  
                   l2430 1CFC                     l2422 1CCA                     l2414 1C86  
                   l2406 1BFE                     l2350 1A64                     l2342 1A2E  
                   l2502 3080                     l2272 325C                     l2264 3236  
                   l2256 3212                     l2248 31EC                     l2328 3178  
                   l2600 2DB0                     l2192 18D8                     l2184 18AE  
                   l2168 183A                     l2096 166E                     l2088 165E  
                   l2440 1D6E                     l2432 1D2A                     l2424 1CDC  
                   l2416 1C94                     l2408 1C0A                     l2360 1A90  
                   l2352 1A74                     l2344 1A3E                     l2336 1A12  
                   l2520 30E4                     l2512 30A8                     l2504 308A  
                   l2266 324C                     l2258 321A                     l2274 3262  
                   l2290 32A2                     l2282 3284                     l2602 2DC0  
                   l2610 2E08                     l2186 18BC                     l2178 1894  
                   l2194 18DA                     l2098 1672                     l2450 1DE4  
                   l2442 1D98                     l2426 1CEA                     l2418 1CB2  
                   l2370 1AE6                     l2362 1AA0                     l2354 1A7A  
                   l2346 1A4E                     l2338 1A1E                     l2514 30B4  
                   l2506 3094                     l2530 2EA2                     l2276 3272  
                   l2268 3254                     l2292 32B0                     l2284 3288  
                   l2604 2DD2                     l2188 18C4                     l2196 18E8  
                   l2452 1E00                     l2460 1E26                     l2436 1D54  
                   l2444 1D9C                     l2428 1CEE                     l2380 1B20  
                   l2372 1AF6                     l2364 1AB0                     l2356 1A80  
                   l2348 1A5E                     l2516 30C4                     l2540 2EE0  
                   l2532 2EB8                     l2524 2E3E                     l2620 3434  
                   l2700 1058                     l2278 327A                     l2294 32B8  
                   l2286 3296                     l2606 2DF0                     l2614 2E14  
                   l2630 3382                     l2198 18EC                     l2462 1E2A  
                   l2454 1E10                     l2446 1DB6                     l2438 1D60  
                   l2390 1B72                     l2382 1B36                     l2366 1AC0  
                   l2358 1A8E                     l2518 30D4                     l2550 2F68  
                   l2542 2F12                     l2526 2E4E                     l2622 3454  
                   l2710 10B8                     l2702 106E                     l2296 32CA  
                   l2288 329E                     l2608 2DF2                     l2632 3396  
                   l2456 1E1E                     l2448 1DCA                     l2392 1B80  
                   l2384 1B42                     l2376 1B0A                     l2368 1AC6  
                   l2472 33FA                     l2480 2FF0                     l2560 2FBE  
                   l2552 2F76                     l2544 2F14                     l2536 2ECC  
                   l2528 2E5C                     l2624 3456                     l2800 1532  
                   l2720 112C                     l2704 1070                     l2810 220A  
                   l2298 32D2                     l2570 2C7A                     l2634 33B2  
                   l2802 349C                     l2458 1E20                     l2394 1B8C  
                   l2386 1B5A                     l2378 1B16                     l2642 2A7C  
                   l2474 3412                     l2466 3334                     l2490 3046  
                   l2482 3006                     l2562 2FCE                     l2554 2F94  
                   l2546 2F20                     l2538 2ED4                     l2650 1E72  
                   l2730 11D0                     l2722 1160                     l2706 108E  
                   l2714 10E0                     l2900 243A                     l2820 224A  
                   l2812 2218                     l2580 2CC0                     l2572 2C9C  
                   l2628 337A                     l2804 34A0                     l2396 1B9C  
                   l2388 1B66                     l2476 3422                     l2468 3344  
                   l2492 3056                     l2564 2FDC                     l2556 2F96  
                   l2548 2F5C                     l2660 1F48                     l2652 1E74  
                   l2740 129C                     l2716 10FE                     l2708 10A4  
                   l2910 249A                     l2902 244C                     l2830 2270  
                   l2822 224C                     l2814 221A                     l2590 2D32  
                   l2582 2CDC                     l2574 2CA4                     l2398 1BA8  
                   l2494 305A                     l2486 301A                     l2566 2FDE  
                   l2558 2F9A                     l2662 1FA0                     l2654 1E92  
                   l2646 1E3C                     l2638 284A                     l2750 1310  
                   l2718 111C                     l2734 11F8                     l2920 2508  
                   l2904 245A                     l2840 22B0                     l2832 227E  
                   l2816 222A                     l2824 2254                     l2808 21FE  
                   l2592 2D62                     l2584 2CF8                     l2576 2CB2  
                   l2496 3068                     l2488 3044                     l2680 2178  
                   l2664 2000                     l2656 1EB6                     l2672 206A  
                   l2648 1E5C                     l2736 1208                     l2728 119C  
                   l2744 12C4                     l2930 2572                     l2914 24C4  
                   l2922 250C                     l2906 245E                     l2850 22F0  
                   l2842 22B2                     l2834 2280                     l2826 2264  
                   l2818 223A                     l2594 2D7E                     l2586 2D10  
                   l2578 2CB6                     l2682 21D0                     l2674 208E  
                   l2666 2010                     l2658 1F22                     l2770 13FC  
                   l2746 12E2                     l2738 1254                     l2692 33BE  
                   l2932 2576                     l2924 2526                     l2916 24D0  
                   l2908 246C                     l2860 2320                     l2852 22F8  
                   l2836 2290                     l2844 22BA                     l2828 226A  
                   l2596 2D90                     l2588 2D1A                     l2684 21E8  
                   l2676 20FA                     l2668 2042                     l2748 1300  
                   l2764 1380                     l2694 33CC                     l2934 2584  
                   l2926 253C                     l2918 24DE                     l2870 235E  
                   l2862 2320                     l2854 22FC                     l2846 22CA  
                   l2838 22A0                     l2598 2DA0                     l2678 2120  
                   l2790 14CE                     l2782 145E                     l2766 1390  
                   l2758 1348                     l2774 1424                     l2950 25B0  
                   l2696 33CE                     l2936 258A                     l2928 2556  
                   l2880 23AA                     l2872 236E                     l2848 22E0  
                   l2784 1482                     l2776 143A                     l2768 13C8  
                   l2960 25CA                     l2952 25B2                     l2938 258C  
                   l2890 23F4                     l2882 23B8                     l2874 237E  
                   l2866 2334                     l2858 2310                     l2794 14F6  
                   l2786 14A6                     l2778 144A                     l2698 1048  
                   l2970 25D8                     l2962 25D0                     l2954 25B4  
                   l2946 2598                     l2892 2406                     l2884 23C4  
                   l2876 2386                     l2868 234E                     l2980 26B8  
                   l2972 25F0                     l2964 25D2                     l2956 25B6  
                   l2948 25A8                     l2894 241C                     l2886 23E2  
                   l2878 2396                     l2982 2720                     l2974 2600  
                   l2990 27B6                     l2966 25D4                     l2958 25B8  
                   l2896 2422                     l2888 23E4                     l2992 27E4  
                   l2984 2744                     l2976 264E                     l2968 25D6  
                   l2898 242C                     l2994 27F2                     l2986 27AA  
                   l2978 2660                     l2996 2800                     l2998 2806  
                   STR_1 1041                     u2000 198E                     u2001 198A  
                   u2010 19A0                     u2011 199C                     u2100 324C  
                   u2020 19B0                     u2101 3248                     u2021 19AC  
                   u2110 3272                     u2030 19D0                     u2111 326E  
                   u2031 19CC                     u3000 23B8                     u2120 3296  
                   u2200 3142                     u2040 19E2                     u3001 23B4  
                   u2121 3292                     u2201 313E                     u2041 19DE  
                   u3010 23E2                     u2130 32B0                     u2210 3178  
                   u2050 19FE                     u3011 23DE                     u2131 32AC  
                   u2211 3174                     u2051 19FA                     u3100 24DE  
                   u3020 2406                     u2060 31D2                     u2140 32CA  
                   u2220 3476                     u2300 1AF6                     u3101 24DA  
                   u3021 2402                     u2061 31CE                     u2141 32C6  
                   u2221 3472                     u2301 1AF2                     u3110 2526  
                   u3030 241C                     u2070 31EC                     u2150 32E8  
                   u2310 1C70                     u2230 1A2C                     u3111 2522  
                   u3031 2418                     u2071 31E8                     u2151 32E4  
                   u2231 1A28                     u3120 2556                     u3040 243A  
                   u2080 3212                     u2160 32FE                     u2400 1DE4  
                   u2320 1CCA                     u2240 1A3E                     u3121 2552  
                   u3041 2436                     u2081 320E                     u2161 32FA  
                   u2401 1DE0                     u2321 1CC6                     u2241 1A3A  
                   u3130 2584                     u3050 245A                     u2090 3230  
                   u2170 3322                     u2410 1E1E                     u2330 1CEA  
                   u2250 1A4E                     u3131 2580                     u3051 2456  
                   u2091 322C                     u2171 331E                     u2411 1E1A  
                   u2331 1CE6                     u2315 1C66                     u2251 1A4A  
                   u3060 246C                     u2180 3108                     u1700 15D0  
                   u2340 1CFC                     u2260 1A8E                     u2420 3412  
                   u2500 2E4E                     u3140 2600                     u3061 2468  
                   u2181 3104                     u1701 15CC                     u2341 1CF8  
                   u2261 1A8A                     u2421 340E                     u2501 2E4A  
                   u3141 25FC                     u3070 249A                     u2190 311A  
                   u1710 15E6                     u2350 1D2A                     u2270 1AA0  
                   u2430 3006                     u2510 2E5C                     u3150 2660  
                   u3071 2496                     u2191 3116                     u1711 15E2  
                   u2351 1D26                     u2271 1A9C                     u2431 3002  
                   u2511 2E58                     u3207 2834                     u3151 265C  
                   u3080 24B0                     u2600 2C9C                     u1800 1720  
                   u1720 15F8                     u2360 1D40                     u2280 1AB0  
                   u2440 303A                     u2520 2EB8                     u3160 27E4  
                   u3081 24AC                     u2601 2C98                     u1801 171C  
                   u1721 15F4                     u2361 1D3C                     u2281 1AAC  
                   u2521 2EB4                     u3161 27E0                     u3090 24C4  
                   u2610 2CDC                     u1810 1740                     u1730 1608  
                   u2370 1D54                     u2290 1AE6                     u2450 3068  
                   u2530 2F0E                     u3170 2800                     u3091 24C0  
                   u2611 2CD8                     u1811 173C                     u1731 1604  
                   u2371 1D50                     u2291 1AE2                     u2451 3064  
                   u2531 2F0A                     u3171 27FC                     u1660 34DE  
                   u2620 2CF8                     u2700 33B2                     u1900 1880  
                   u1820 174E                     u1740 1644                     u2380 1D6E  
                   u2460 307C                     u2540 2F58                     u3180 2814  
                   u1661 34DA                     u2621 2CF4                     u2701 33AE  
                   u1901 187C                     u1821 174A                     u1741 1640  
                   u2381 1D6A                     u2461 3078                     u2445 3030  
                   u2541 2F54                     u3181 2810                     u2630 2D2E  
                   u1910 18AC                     u1830 175E                     u1750 1652  
                   u1670 156C                     u2390 1DB6                     u2470 30A4  
                   u2550 2F76                     u2710 1E6E                     u3190 2828  
                   u2631 2D28                     u1911 18A8                     u1831 175A  
                   u1751 164E                     u1671 1568                     u2391 1DB2  
                   u2471 30A0                     u2551 2F72                     u2711 1E68  
                   u3191 2824                     u2640 2D30                     u1920 18BC  
                   u1840 1790                     u1760 16C0                     u1680 157E  
                   u2480 30C4                     u2560 2F86                     u2720 1E70  
                   u2800 108E                     u1921 18B8                     u1841 178C  
                   u1761 16BC                     u1681 157A                     u2481 30C0  
                   u2561 2F82                     u2801 108A                     u2650 2D90  
                   u1930 18D8                     u1850 179E                     u1770 16D8  
                   u1690 158E                     u2490 30D4                     u2570 2F94  
                   u2730 1E92                     u2810 10A4                     u2651 2D8C  
                   u1931 18D4                     u1851 179A                     u1771 16D2  
                   u1691 158A                     u2491 30D0                     u2571 2F90  
                   u2731 1E8E                     u2811 10A0                     u2660 2DA0  
                   u1940 18E8                     u1860 17BC                     u1780 16DA  
                   u2580 2FCE                     u2740 2010                     u2900 143A  
                   u2820 10FE                     u2661 2D9C                     u1941 18E4  
                   u1861 17B8                     u2581 2FCA                     u2741 200C  
                   u2901 1436                     u2821 10FA                     u2910 2218  
                   u2670 2DB0                     u1950 18FA                     u1870 17F4  
                   u1790 1702                     u2590 2FDC                     u2750 21F8  
                   u2830 111C                     u2911 2214                     u2671 2DAC  
                   u1951 18F6                     u1871 17F0                     u1791 16FE  
                   u2591 2FD8                     u2751 21F4                     u2831 1118  
                   u2760 33E0                     u2920 222A                     u2680 2DC0  
                   u1960 1910                     u1880 183A                     u2840 112C  
                   u2761 33DC                     u2921 2226                     u2681 2DBC  
                   u1961 190C                     u1881 1836                     u2841 1128  
                   u2770 33F4                     u2930 223A                     u2690 2E04  
                   u1970 1926                     u1890 1870                     u2850 1208  
                   u2771 33F0                     u2931 2236                     u2691 2E00  
                   u1971 1922                     u1891 186C                     u2851 1204  
                   u2940 227E                     u1980 193A                     u2860 12E2  
                   u2780 106A                     u2941 227A                     u1981 1936  
                   u2861 12DE                     u2781 1064                     u2950 2290  
                   u1990 1954                     u2870 1300                     u2790 106C  
                   u2951 228C                     u1991 1950                     u2871 12FC  
                   u2960 22A0                     u2880 1310                     u2961 229C  
                   u2881 130C                     u2970 22E0                     u2890 1390  
                   u2971 22DC                     u2891 138C                     u2980 2320  
                   u2981 231C                     u2990 2396                     u2991 2392  
                   abs@a 0007                     _dbuf 00BE                     _half 101D  
                   _main 2598                     _prec 00E8                     _sinf 1048  
                   fsr1h 0FE2                     fsr2h 0FDA                     indf2 0FDF  
                   fsr1l 0FE1                     fsr2l 0FD9                     prodh 0FF4  
                   prodl 0FF3                     start 0000          ___fldiv@new_exp 0039  
           ___param_bank 0000                    ??_abs 0009            ___fltol@sign1 0059  
        __end_of___fladd 1A12                    ?_main 0001          __end_of___fldiv 2598  
        __end_of___awdiv 3284          __end_of___cosdf 2C7A          __end_of___flneg 3434  
        __end_of___awmod 3334                    ?_sinf 009A          __end_of___flmul 1E3C  
        __end_of___flsub 337A          __end_of___fltol 30F6          ___awdiv@divisor 0003  
        __end_of___sindf 2A7C             ___sindf$2430 0068             ___sindf$2431 006C  
           ___sindf$2432 0070          ___awdiv@counter 0005             vfpfcnvrt@fmt 000D  
                  _TX1IF 7CF4          __end_of_pio2_1t 1015                    _fabsf 3434  
                  _flags 005E                    _fputc 30F6                    _width 00E6  
        __end_of_invpio2 101D                    _putch 34CE                    main@i 00BD  
                  tablat 0FF5                    sinf@n 00A6                    sinf@x 009A  
                  sinf@y 00AC                    status 0FD8          __initialization 34B6  
           __end_of_half 1021             __end_of_main 284A             __end_of_sinf 1552  
                 ??_main 005D                   ??_sinf 005D            __activetblptr 0002  
                 ?_fabsf 0001                   ?_fputc 0002                   _ADRESH 0FC4  
       ___awdiv@dividend 0001                   ?_putch 0001                   _GODONE 7E11  
          ___rem_pio2f@n 0096            ___rem_pio2f@t 0092            ___rem_pio2f@x 007C  
          ___rem_pio2f@y 0080            vfpfcnvrt@done 0010                   _SPBRG1 0FAF  
                 _SSP1IF 7CF3                   _SSP2IF 7D27                   _TXREG1 0FAD  
       __end_of___xxtofl 2FF0             vfprintf@cfmt 001B                   _s1pio2 103D  
                 _s2pio2 1039                   _s3pio2 1035                   _s4pio2 1031  
              ??___fladd 0049                ??___fldiv 0030                ??___awdiv 0005  
              ??___cosdf 0055                ??___flneg 0055                ??___awmod 0005  
              ??___flmul 0017                ??___flsub 0059                ??___fltol 0055  
              ??___sindf 0055                   _pio2_1 1015                   fabsf@u 0005  
                 fabsf@x 0001                   clear_0 34BC         ___awdiv@quotient 0007  
        ___awmod@divisor 0003                   isa$std 0001          ___awmod@counter 0005  
                 _printf 349C                   fputc@c 0002             __mediumconst 0000  
                 sinf@ux 00B0                   tblptrh 0FF7                   tblptrl 0FF6  
                 tblptru 0FF8        __end_of_SPI_write 33FA         __end_of_vfprintf 33BC  
           ___xxtofl@arg 000B             ___xxtofl@exp 000A             ___xxtofl@val 0001  
             __accesstop 0060  __end_of__initialization 34C4               ___flneg@f1 0078  
          ___rparam_used 0001               ___fltol@f1 0051           __pcstackCOMRAM 0001  
          __end_of_fabsf 3468            __end_of_fputc 31C0            __end_of_putch 34E4  
             __end_of_C0 1031               __end_of_C1 102D               __end_of_C2 1029  
             __end_of_C3 1025               __end_of_S1 1011               __end_of_S2 100D  
             __end_of_S3 1009               __end_of_S4 1005                  ??_fabsf 0005  
                ??_fputc 0006                  ??_putch 0001               __pbssBANK0 00BE  
           SPI_write@LSB 0002             SPI_write@MSB 0001            ??___rem_pio2f 005B  
                ?_printf 001C                ?___xxtofl 0001           ___rem_pio2f@fn 008E  
         ___rem_pio2f@ty 0081           ___rem_pio2f@ux 008A                  _SSP2ADD 0F6E  
                _SSP1BUF 0FC9                  _SSP2BUF 0F6F                  __Hparam 0000  
                __Lparam 0000                  ___fladd 1552                  ___fldiv 21FE  
                ___awdiv 31C0                  ___cosdf 2A7C                  ___flneg 33FA  
                ___awmod 3284                  ___flmul 1A12                  ___flsub 3334  
                ___fltol 2FF0                  ___sindf 284A                ?_vfprintf 0017  
           __psmallconst 1000                  __pcinit 34B6                  __ramtop 1000  
         main@selectMode 00BC                  __ptext0 2598                  __ptext1 1048  
                __ptext2 284A                  __ptext3 1E3C                  __ptext4 3434  
                __ptext5 2E3C                  __ptext6 2FF0                  __ptext7 3334  
                __ptext8 33FA                  __ptext9 2A7C                  _pio2_1t 1011  
             ??___xxtofl 0005      __end_of___rem_pio2f 21FE         ___awmod@dividend 0001  
                _invpio2 1019         ___rem_pio2f$2429 0085     end_of_initialization 34C4  
                fputc@fp 0004         ___rem_pio2f@F526 00E2            __Lmediumconst 0000  
       ___rem_pio2f@sign 0089        __end_of_vfpfcnvrt 2E3C                  postdec2 0FDD  
                postinc0 0FEE                  postinc1 0FE6                  postinc2 0FDE  
       vfpfcnvrt@convarg 0012               ??_vfprintf 001B                _PORTAbits 0F80  
              _PORTCbits 0F82              ___fladd@grs 0050            ___xxtofl@sign 0009  
              _TRISAbits 0F92                _TRISBbits 0F93                _TRISCbits 0F94  
              _TRISDbits 0F95              ___fldiv@grs 003B              ___fldiv@rem 0034  
              _SPI_write 33BC              ___flmul@grs 001C           __end_of_s1pio2 1041  
         __end_of_s2pio2 103D           __end_of_s3pio2 1039           __end_of_s4pio2 1035  
            vfpfcnvrt@ap 000E              vfpfcnvrt@cp 0011              ___rem_pio2f 1E3C  
            vfpfcnvrt@fp 000B           __end_of_pio2_1 1019           __end_of_printf 34B6  
    start_initialization 34B6              __end_of_abs 349C               ?_SPI_write 0001  
            vfprintf@fmt 0019                 ??_printf 001F                ___fladd@a 0045  
              ___fladd@b 0041                ___fldiv@a 002C                ___fldiv@b 0028  
              ___cosdf@r 0060                ___cosdf@w 0070                ___cosdf@x 0051  
              ___cosdf@z 0074                ___flmul@a 0013                ___flmul@b 000F  
            __pbssCOMRAM 005E                ___flsub@a 0055                ___flsub@b 0051  
          __pcstackBANK0 0060                ___sindf@r 0060                ___sindf@s 0074  
              ___sindf@w 0064                ___sindf@x 0051                ___sindf@z 0078  
              _main$2423 00B4                _main$2424 00B8            SPI_write@data 0003  
               ?___fladd 0041                 ?___fldiv 0028                 ?___awdiv 0001  
               ?___cosdf 0051                 ?___flneg 0078                 ?___awmod 0001  
               ?___flmul 000F                 ?___flsub 0051                 ?___fltol 0051  
               ?___sindf 0051                fabsf@F465 00DE              __smallconst 1000  
              _sinf$2425 00A8                _sinf$2177 009E                _sinf$2178 00A2  
            ??_SPI_write 0001                 _LATAbits 0F89                 _LATBbits 0F8A  
              _vfpfcnvrt 2C7A               _ADCON0bits 0FC2               _ADCON2bits 0FC0  
             vfpfcnvrt@c 0016                 __Hrparam 0000               vfprintf@ap 001A  
               __Lrparam 0000               vfprintf@fp 0017             ?___rem_pio2f 007C  
             ?_vfpfcnvrt 000B               _ANSELAbits 0F38               _ANSELBbits 0F39  
             _ANSELDbits 0F3B                 ___xxtofl 2E3C                 __ptext10 1A12  
               __ptext11 1552                 __ptext20 21FE                 __ptext12 349C  
               __ptext21 33BC                 __ptext13 337A                 __ptext14 2C7A  
               __ptext15 30F6                 __ptext16 34CE                 __ptext17 3468  
               __ptext18 3284                 __ptext19 31C0             _SSP1CON1bits 0FC6  
           _SSP2CON1bits 0F6C             _SSP2CON2bits 0F6B                 isa$xinst 0000  
               _vfprintf 337A                printf@fmt 001C             _SSP1STATbits 0FC7  
           _SSP2STATbits 0F6D                putch@data 0001               _RCSTA1bits 0FAB  
               sinf@sign 00A7                 printf@ap 001F              ??_vfpfcnvrt 000F  
          ___fladd@signs 004D             ___fladd@aexp 004E             ___fladd@bexp 004F  
           ___cosdf$2426 0064             ___cosdf$2427 0068             ___cosdf$2428 006C  
