

Microchip MPLAB XC8 Assembler V2.46 build 20240104201356 
                                                                                               Sat Apr 27 20:58:39 2024

Microchip MPLAB XC8 C Compiler v2.46 (Free license) build 20240104201356 Og1 
     1                           	processor	18F46K22
     2                           	fnconf	rparam,??,?,0
     3                           	pagewidth 120
     4                           	opt	flic
     5                           	psect	smallconst,global,reloc=2,class=SMALLCONST,delta=1,noexec
     6                           	psect	cinit,global,reloc=2,class=CODE,delta=1
     7                           	psect	bssCOMRAM,global,class=COMRAM,space=1,delta=1,lowdata,noexec
     8                           	psect	bssBANK0,global,class=BANK0,space=1,delta=1,lowdata,noexec
     9                           	psect	cstackBANK0,global,class=BANK0,space=1,delta=1,lowdata,noexec
    10                           	psect	cstackCOMRAM,global,class=COMRAM,space=1,delta=1,lowdata,noexec
    11                           	psect	text0,global,reloc=2,class=CODE,delta=1
    12                           	psect	text1,global,reloc=2,class=CODE,delta=1,group=3
    13                           	psect	text2,global,reloc=2,class=CODE,delta=1,group=3
    14                           	psect	text3,global,reloc=2,class=CODE,delta=1,group=3
    15                           	psect	text4,global,reloc=2,class=CODE,delta=1,group=3
    16                           	psect	text5,global,reloc=2,class=CODE,delta=1,group=2
    17                           	psect	text6,global,reloc=2,class=CODE,delta=1,group=2
    18                           	psect	text7,global,reloc=2,class=CODE,delta=1,group=2
    19                           	psect	text8,global,reloc=2,class=CODE,delta=1,group=2
    20                           	psect	text9,global,reloc=2,class=CODE,delta=1,group=3
    21                           	psect	text10,global,reloc=2,class=CODE,delta=1,group=2
    22                           	psect	text11,global,reloc=2,class=CODE,delta=1,group=2
    23                           	psect	text12,global,reloc=2,class=CODE,delta=1,group=3
    24                           	psect	text13,global,reloc=2,class=CODE,delta=1,group=1
    25                           	psect	text14,global,reloc=2,class=CODE,delta=1,group=1
    26                           	psect	text15,global,reloc=2,class=CODE,delta=1,group=3
    27                           	psect	text16,global,reloc=2,class=CODE,delta=1
    28                           	psect	text17,global,reloc=2,class=CODE,delta=1,group=3
    29                           	psect	text18,global,reloc=2,class=CODE,delta=1,group=2
    30                           	psect	text19,global,reloc=2,class=CODE,delta=1,group=2
    31                           	psect	text20,global,reloc=2,class=CODE,delta=1,group=2
    32                           	psect	text21,global,reloc=2,class=CODE,delta=1
    33                           	psect	intsave_regs,global,class=BIGRAM,space=1,delta=1,noexec
    34                           	psect	rparam,global,class=COMRAM,space=1,delta=1,noexec
    35                           	psect	config,global,abs,ovrld,class=CONFIG,space=4,delta=1,noexec
    36   000000                     
    37                           ; Generated 12/10/2023 GMT
    38                           ; 
    39                           ; Copyright © 2023, Microchip Technology Inc. and its subsidiaries ("Microchip")
    40                           ; All rights reserved.
    41                           ; 
    42                           ; This software is developed by Microchip Technology Inc. and its subsidiaries ("Microch
      +                          ip").
    43                           ; 
    44                           ; Redistribution and use in source and binary forms, with or without modification, are
    45                           ; permitted provided that the following conditions are met:
    46                           ; 
    47                           ;     1. Redistributions of source code must retain the above copyright notice, this lis
      +                          t of
    48                           ;        conditions and the following disclaimer.
    49                           ; 
    50                           ;     2. Redistributions in binary form must reproduce the above copyright notice, this 
      +                          list
    51                           ;        of conditions and the following disclaimer in the documentation and/or other
    52                           ;        materials provided with the distribution. Publication is not required when
    53                           ;        this file is used in an embedded application.
    54                           ; 
    55                           ;     3. Microchip's name may not be used to endorse or promote products derived from th
      +                          is
    56                           ;        software without specific prior written permission.
    57                           ; 
    58                           ; THIS SOFTWARE IS PROVIDED BY MICROCHIP "AS IS" AND ANY EXPRESS OR IMPLIED WARRANTIES,
    59                           ; INCLUDING, BUT NOT LIMITED TO, THE IMPLIED WARRANTIES OF MERCHANTABILITY AND FITNESS F
      +                          OR
    60                           ; PURPOSE ARE DISCLAIMED.  IN NO EVENT SHALL MICROCHIP BE LIABLE FOR ANY DIRECT, INDIREC
      +                          T,
    61                           ; INCIDENTAL, SPECIAL, EXEMPLARY, OR CONSEQUENTIAL DAMAGES (INCLUDING BUT NOT LIMITED TO
    62                           ; PROCUREMENT OF SUBSTITUTE GOODS OR SERVICES; LOSS OF USE, DATA OR PROFITS; OR BUSINESS
    63                           ; INTERRUPTION) HOWSOEVER CAUSED AND ON ANY THEORY OF LIABILITY, WHETHER IN CONTRACT, ST
      +                          RICT
    64                           ; LIABILITY, OR TORT (INCLUDING NEGLIGENCE OR OTHERWISE) ARISING IN ANY WAY OUT OF THE U
      +                          SE OF
    65                           ; THIS SOFTWARE, EVEN IF ADVISED OF THE POSSIBILITY OF SUCH DAMAGE.
    66                           ; 
    67                           ; 
    68                           ; Code-generator required, PIC18F46K22 Definitions
    69                           ; 
    70                           ; SFR Addresses
    71   000000                     
    72                           	psect	smallconst
    73   001000                     __psmallconst:
    74                           	callstack 0
    75   001000  00                 	db	0
    76   001001  6C3C               	dw	27708
    77   001003  3636               	dw	13878
    78   001005                     __end_of_S4:
    79                           	callstack 0
    80   001005  07CF               	dw	1999
    81   001007  B950               	dw	47440
    82   001009                     __end_of_S3:
    83                           	callstack 0
    84   001009  8884               	dw	34948
    85   00100B  3C08               	dw	15368
    86   00100D                     __end_of_S2:
    87                           	callstack 0
    88   00100D  AAAB               	dw	43691
    89   00100F  BE2A               	dw	48682
    90   001011                     __end_of_S1:
    91                           	callstack 0
    92   001011  85A3               	dw	34211
    93   001013  3288               	dw	12936
    94   001015                     __end_of_pio2_1t:
    95                           	callstack 0
    96   001015  0FDA               	dw	4058
    97   001017  3FC9               	dw	16329
    98   001019                     __end_of_pio2_1:
    99                           	callstack 0
   100   001019  F983               	dw	63875
   101   00101B  3F22               	dw	16162
   102   00101D                     __end_of_invpio2:
   103                           	callstack 0
   104   00101D  0000               	dw	0
   105   00101F  3F00               	dw	16128
   106   001021                     __end_of_half:
   107                           	callstack 0
   108   001021  9A17               	dw	39447
   109   001023  37CC               	dw	14284
   110   001025                     __end_of_C3:
   111                           	callstack 0
   112   001025  043F               	dw	1087
   113   001027  BAB6               	dw	47798
   114   001029                     __end_of_C2:
   115                           	callstack 0
   116   001029  AA9F               	dw	43679
   117   00102B  3D2A               	dw	15658
   118   00102D                     __end_of_C1:
   119                           	callstack 0
   120   00102D  0000               	dw	0
   121   00102F  BF00               	dw	48896
   122   001031                     __end_of_C0:
   123                           	callstack 0
   124   001031  0FDB               	dw	4059
   125   001033  40C9               	dw	16585
   126   001035                     __end_of_s4pio2:
   127                           	callstack 0
   128   001035  CBE4               	dw	52196
   129   001037  4096               	dw	16534
   130   001039                     __end_of_s3pio2:
   131                           	callstack 0
   132   001039  0FDB               	dw	4059
   133   00103B  4049               	dw	16457
   134   00103D                     __end_of_s2pio2:
   135                           	callstack 0
   136   00103D  0FDB               	dw	4059
   137   00103F  3FC9               	dw	16329
   138   001041                     __end_of_s1pio2:
   139                           	callstack 0
   140   000000                     _TRISBbits	set	3987
   141   000000                     _TX1IF	set	31988
   142   000000                     _GODONE	set	32273
   143   000000                     _PORTAbits	set	3968
   144   000000                     _PORTCbits	set	3970
   145   000000                     _LATBbits	set	3978
   146   000000                     _ANSELBbits	set	3897
   147   000000                     _ANSELAbits	set	3896
   148   000000                     _TRISAbits	set	3986
   149   000000                     _TRISCbits	set	3988
   150   000000                     _RCSTA1bits	set	4011
   151   000000                     _SPBRG1	set	4015
   152   000000                     _ADCON2bits	set	4032
   153   000000                     _SSP1CON1bits	set	4038
   154   000000                     _SSP1IF	set	31987
   155   000000                     _SSP1BUF	set	4041
   156   000000                     _SSP1STATbits	set	4039
   157   000000                     _ADCON0bits	set	4034
   158   000000                     _ADRESH	set	4036
   159   000000                     _TXREG1	set	4013
   160   000000                     _TXSTA1bits	set	4012
   161   001041                     STR_1:
   162   001041  25                 	db	37
   163   001042  64                 	db	100	;'d'
   164   001043  20                 	db	32
   165   001044  0D                 	db	13
   166   001045  00                 	db	0
   167   001046  00                 	db	0	; dummy byte at the end
   168   000000                     
   169                           ; #config settings
   170                           
   171                           	psect	cinit
   172   0034B6                     __pcinit:
   173                           	callstack 0
   174   0034B6                     start_initialization:
   175                           	callstack 0
   176   0034B6                     __initialization:
   177                           	callstack 0
   178                           
   179                           ; Clear objects allocated to BANK0 (44 bytes)
   180   0034B6  EE00  F0BE         	lfsr	0,__pbssBANK0
   181   0034BA  0E2C               	movlw	44
   182   0034BC                     clear_0:
   183   0034BC  6AEE               	clrf	postinc0,c
   184   0034BE  06E8               	decf	wreg,f,c
   185   0034C0  E1FD               	bnz	clear_0
   186                           
   187                           ; Clear objects allocated to COMRAM (1 bytes)
   188   0034C2  6A5E               	clrf	__pbssCOMRAM& (0+255),c
   189   0034C4                     end_of_initialization:
   190                           	callstack 0
   191   0034C4                     __end_of__initialization:
   192                           	callstack 0
   193   0034C4  0E00               	movlw	low (__Lmediumconst shr (0+16))
   194   0034C6  6EF8               	movwf	tblptru,c
   195   0034C8  0100               	movlb	0
   196   0034CA  EFCC  F012         	goto	_main	;jump to C main() function
   197                           
   198                           	psect	bssCOMRAM
   199   00005E                     __pbssCOMRAM:
   200                           	callstack 0
   201   00005E                     _flags:
   202                           	callstack 0
   203   00005E                     	ds	1
   204                           
   205                           	psect	bssBANK0
   206   0000BE                     __pbssBANK0:
   207                           	callstack 0
   208   0000BE                     _dbuf:
   209                           	callstack 0
   210   0000BE                     	ds	32
   211   0000DE                     fabsf@F465:
   212                           	callstack 0
   213   0000DE                     	ds	4
   214   0000E2                     ___rem_pio2f@F526:
   215                           	callstack 0
   216   0000E2                     	ds	4
   217   0000E6                     _width:
   218                           	callstack 0
   219   0000E6                     	ds	2
   220   0000E8                     _prec:
   221                           	callstack 0
   222   0000E8                     	ds	2
   223                           
   224                           	psect	cstackBANK0
   225   000060                     __pcstackBANK0:
   226                           	callstack 0
   227   000060                     ___cosdf@r:
   228                           	callstack 0
   229   000060                     ___sindf@r:
   230                           	callstack 0
   231                           
   232                           ; 4 bytes @ 0x0
   233   000060                     	ds	4
   234   000064                     ___sindf@w:
   235                           	callstack 0
   236   000064                     ___cosdf$1884:
   237                           	callstack 0
   238                           
   239                           ; 4 bytes @ 0x4
   240   000064                     	ds	4
   241   000068                     ___cosdf$1885:
   242                           	callstack 0
   243   000068                     ___sindf$1888:
   244                           	callstack 0
   245                           
   246                           ; 4 bytes @ 0x8
   247   000068                     	ds	4
   248   00006C                     ___cosdf$1886:
   249                           	callstack 0
   250   00006C                     ___sindf$1889:
   251                           	callstack 0
   252                           
   253                           ; 4 bytes @ 0xC
   254   00006C                     	ds	4
   255   000070                     ___cosdf@w:
   256                           	callstack 0
   257   000070                     ___sindf$1890:
   258                           	callstack 0
   259                           
   260                           ; 4 bytes @ 0x10
   261   000070                     	ds	4
   262   000074                     ___cosdf@z:
   263                           	callstack 0
   264   000074                     ___sindf@s:
   265                           	callstack 0
   266                           
   267                           ; 4 bytes @ 0x14
   268   000074                     	ds	4
   269   000078                     ?___flneg:
   270                           	callstack 0
   271   000078                     ___flneg@f1:
   272                           	callstack 0
   273   000078                     ___sindf@z:
   274                           	callstack 0
   275                           
   276                           ; 4 bytes @ 0x18
   277   000078                     	ds	4
   278   00007C                     ?___rem_pio2f:
   279                           	callstack 0
   280   00007C                     ___rem_pio2f@x:
   281                           	callstack 0
   282                           
   283                           ; 4 bytes @ 0x1C
   284   00007C                     	ds	4
   285   000080                     ___rem_pio2f@y:
   286                           	callstack 0
   287                           
   288                           ; 1 bytes @ 0x20
   289   000080                     	ds	1
   290   000081                     ___rem_pio2f@ty:
   291                           	callstack 0
   292                           
   293                           ; 4 bytes @ 0x21
   294   000081                     	ds	4
   295   000085                     ___rem_pio2f$1887:
   296                           	callstack 0
   297                           
   298                           ; 4 bytes @ 0x25
   299   000085                     	ds	4
   300   000089                     ___rem_pio2f@sign:
   301                           	callstack 0
   302                           
   303                           ; 1 bytes @ 0x29
   304   000089                     	ds	1
   305   00008A                     ___rem_pio2f@ux:
   306                           	callstack 0
   307                           
   308                           ; 4 bytes @ 0x2A
   309   00008A                     	ds	4
   310   00008E                     ___rem_pio2f@fn:
   311                           	callstack 0
   312                           
   313                           ; 4 bytes @ 0x2E
   314   00008E                     	ds	4
   315   000092                     ___rem_pio2f@t:
   316                           	callstack 0
   317                           
   318                           ; 4 bytes @ 0x32
   319   000092                     	ds	4
   320   000096                     ___rem_pio2f@n:
   321                           	callstack 0
   322                           
   323                           ; 4 bytes @ 0x36
   324   000096                     	ds	4
   325   00009A                     ?_sinf:
   326                           	callstack 0
   327   00009A                     sinf@x:
   328                           	callstack 0
   329                           
   330                           ; 4 bytes @ 0x3A
   331   00009A                     	ds	4
   332   00009E                     _sinf$1647:
   333                           	callstack 0
   334                           
   335                           ; 4 bytes @ 0x3E
   336   00009E                     	ds	4
   337   0000A2                     _sinf$1648:
   338                           	callstack 0
   339                           
   340                           ; 4 bytes @ 0x42
   341   0000A2                     	ds	4
   342   0000A6                     sinf@n:
   343                           	callstack 0
   344                           
   345                           ; 1 bytes @ 0x46
   346   0000A6                     	ds	1
   347   0000A7                     sinf@sign:
   348                           	callstack 0
   349                           
   350                           ; 1 bytes @ 0x47
   351   0000A7                     	ds	1
   352   0000A8                     _sinf$1883:
   353                           	callstack 0
   354                           
   355                           ; 4 bytes @ 0x48
   356   0000A8                     	ds	4
   357   0000AC                     sinf@y:
   358                           	callstack 0
   359                           
   360                           ; 4 bytes @ 0x4C
   361   0000AC                     	ds	4
   362   0000B0                     sinf@ux:
   363                           	callstack 0
   364                           
   365                           ; 4 bytes @ 0x50
   366   0000B0                     	ds	4
   367   0000B4                     _main$1881:
   368                           	callstack 0
   369                           
   370                           ; 4 bytes @ 0x54
   371   0000B4                     	ds	4
   372   0000B8                     _main$1882:
   373                           	callstack 0
   374                           
   375                           ; 4 bytes @ 0x58
   376   0000B8                     	ds	4
   377   0000BC                     main@selectMode:
   378                           	callstack 0
   379                           
   380                           ; 1 bytes @ 0x5C
   381   0000BC                     	ds	1
   382   0000BD                     main@i:
   383                           	callstack 0
   384                           
   385                           ; 1 bytes @ 0x5D
   386   0000BD                     	ds	1
   387                           
   388                           	psect	cstackCOMRAM
   389   000001                     __pcstackCOMRAM:
   390                           	callstack 0
   391   000001                     ?___awdiv:
   392                           	callstack 0
   393   000001                     ?___awmod:
   394                           	callstack 0
   395   000001                     ?_fabsf:
   396                           	callstack 0
   397   000001                     ?___xxtofl:
   398                           	callstack 0
   399   000001                     SPI_write@MSB:
   400                           	callstack 0
   401   000001                     putch@data:
   402                           	callstack 0
   403   000001                     ___awdiv@dividend:
   404                           	callstack 0
   405   000001                     ___awmod@dividend:
   406                           	callstack 0
   407   000001                     ___xxtofl@val:
   408                           	callstack 0
   409   000001                     fabsf@x:
   410                           	callstack 0
   411                           
   412                           ; 4 bytes @ 0x0
   413   000001                     	ds	1
   414   000002                     SPI_write@LSB:
   415                           	callstack 0
   416   000002                     fputc@c:
   417                           	callstack 0
   418                           
   419                           ; 2 bytes @ 0x1
   420   000002                     	ds	1
   421   000003                     SPI_write@data:
   422                           	callstack 0
   423   000003                     ___awdiv@divisor:
   424                           	callstack 0
   425   000003                     ___awmod@divisor:
   426                           	callstack 0
   427                           
   428                           ; 2 bytes @ 0x2
   429   000003                     	ds	1
   430   000004                     fputc@fp:
   431                           	callstack 0
   432                           
   433                           ; 2 bytes @ 0x3
   434   000004                     	ds	1
   435   000005                     ??___xxtofl:
   436   000005                     ___awdiv@counter:
   437                           	callstack 0
   438   000005                     ___awmod@counter:
   439                           	callstack 0
   440   000005                     fabsf@u:
   441                           	callstack 0
   442                           
   443                           ; 4 bytes @ 0x4
   444   000005                     	ds	1
   445   000006                     ??_fputc:
   446   000006                     ___awdiv@sign:
   447                           	callstack 0
   448   000006                     ___awmod@sign:
   449                           	callstack 0
   450                           
   451                           ; 1 bytes @ 0x5
   452   000006                     	ds	1
   453   000007                     ?_abs:
   454                           	callstack 0
   455   000007                     ___awdiv@quotient:
   456                           	callstack 0
   457   000007                     abs@a:
   458                           	callstack 0
   459                           
   460                           ; 2 bytes @ 0x6
   461   000007                     	ds	2
   462   000009                     ??_abs:
   463   000009                     ___xxtofl@sign:
   464                           	callstack 0
   465                           
   466                           ; 1 bytes @ 0x8
   467   000009                     	ds	1
   468   00000A                     ___xxtofl@exp:
   469                           	callstack 0
   470                           
   471                           ; 1 bytes @ 0x9
   472   00000A                     	ds	1
   473   00000B                     vfpfcnvrt@fp:
   474                           	callstack 0
   475   00000B                     ___xxtofl@arg:
   476                           	callstack 0
   477                           
   478                           ; 4 bytes @ 0xA
   479   00000B                     	ds	2
   480   00000D                     vfpfcnvrt@fmt:
   481                           	callstack 0
   482                           
   483                           ; 1 bytes @ 0xC
   484   00000D                     	ds	1
   485   00000E                     vfpfcnvrt@ap:
   486                           	callstack 0
   487                           
   488                           ; 1 bytes @ 0xD
   489   00000E                     	ds	1
   490   00000F                     ??_vfpfcnvrt:
   491   00000F                     ?___flmul:
   492                           	callstack 0
   493   00000F                     ___flmul@b:
   494                           	callstack 0
   495                           
   496                           ; 4 bytes @ 0xE
   497   00000F                     	ds	1
   498   000010                     vfpfcnvrt@done:
   499                           	callstack 0
   500                           
   501                           ; 1 bytes @ 0xF
   502   000010                     	ds	1
   503   000011                     vfpfcnvrt@cp:
   504                           	callstack 0
   505                           
   506                           ; 1 bytes @ 0x10
   507   000011                     	ds	1
   508   000012                     vfpfcnvrt@convarg:
   509                           	callstack 0
   510                           
   511                           ; 4 bytes @ 0x11
   512   000012                     	ds	1
   513   000013                     ___flmul@a:
   514                           	callstack 0
   515                           
   516                           ; 4 bytes @ 0x12
   517   000013                     	ds	3
   518   000016                     vfpfcnvrt@c:
   519                           	callstack 0
   520                           
   521                           ; 1 bytes @ 0x15
   522   000016                     	ds	1
   523   000017                     ??___flmul:
   524   000017                     ?_vfprintf:
   525                           	callstack 0
   526   000017                     vfprintf@fp:
   527                           	callstack 0
   528                           
   529                           ; 2 bytes @ 0x16
   530   000017                     	ds	2
   531   000019                     vfprintf@fmt:
   532                           	callstack 0
   533                           
   534                           ; 1 bytes @ 0x18
   535   000019                     	ds	1
   536   00001A                     vfprintf@ap:
   537                           	callstack 0
   538                           
   539                           ; 1 bytes @ 0x19
   540   00001A                     	ds	1
   541   00001B                     ___flmul@sign:
   542                           	callstack 0
   543   00001B                     vfprintf@cfmt:
   544                           	callstack 0
   545                           
   546                           ; 1 bytes @ 0x1A
   547   00001B                     	ds	1
   548   00001C                     ?_printf:
   549                           	callstack 0
   550   00001C                     printf@fmt:
   551                           	callstack 0
   552   00001C                     ___flmul@grs:
   553                           	callstack 0
   554                           
   555                           ; 4 bytes @ 0x1B
   556   00001C                     	ds	3
   557   00001F                     printf@ap:
   558                           	callstack 0
   559                           
   560                           ; 1 bytes @ 0x1E
   561   00001F                     	ds	1
   562   000020                     ___flmul@aexp:
   563                           	callstack 0
   564                           
   565                           ; 1 bytes @ 0x1F
   566   000020                     	ds	1
   567   000021                     ___flmul@bexp:
   568                           	callstack 0
   569                           
   570                           ; 1 bytes @ 0x20
   571   000021                     	ds	1
   572   000022                     ___flmul@prod:
   573                           	callstack 0
   574                           
   575                           ; 4 bytes @ 0x21
   576   000022                     	ds	4
   577   000026                     ___flmul@temp:
   578                           	callstack 0
   579                           
   580                           ; 2 bytes @ 0x25
   581   000026                     	ds	2
   582   000028                     ?___fldiv:
   583                           	callstack 0
   584   000028                     ___fldiv@b:
   585                           	callstack 0
   586                           
   587                           ; 4 bytes @ 0x27
   588   000028                     	ds	4
   589   00002C                     ___fldiv@a:
   590                           	callstack 0
   591                           
   592                           ; 4 bytes @ 0x2B
   593   00002C                     	ds	4
   594   000030                     ??___fldiv:
   595                           
   596                           ; 1 bytes @ 0x2F
   597   000030                     	ds	4
   598   000034                     ___fldiv@rem:
   599                           	callstack 0
   600                           
   601                           ; 4 bytes @ 0x33
   602   000034                     	ds	4
   603   000038                     ___fldiv@sign:
   604                           	callstack 0
   605                           
   606                           ; 1 bytes @ 0x37
   607   000038                     	ds	1
   608   000039                     ___fldiv@new_exp:
   609                           	callstack 0
   610                           
   611                           ; 2 bytes @ 0x38
   612   000039                     	ds	2
   613   00003B                     ___fldiv@grs:
   614                           	callstack 0
   615                           
   616                           ; 4 bytes @ 0x3A
   617   00003B                     	ds	4
   618   00003F                     ___fldiv@bexp:
   619                           	callstack 0
   620                           
   621                           ; 1 bytes @ 0x3E
   622   00003F                     	ds	1
   623   000040                     ___fldiv@aexp:
   624                           	callstack 0
   625                           
   626                           ; 1 bytes @ 0x3F
   627   000040                     	ds	1
   628   000041                     ?___fladd:
   629                           	callstack 0
   630   000041                     ___fladd@b:
   631                           	callstack 0
   632                           
   633                           ; 4 bytes @ 0x40
   634   000041                     	ds	4
   635   000045                     ___fladd@a:
   636                           	callstack 0
   637                           
   638                           ; 4 bytes @ 0x44
   639   000045                     	ds	4
   640   000049                     ??___fladd:
   641                           
   642                           ; 1 bytes @ 0x48
   643   000049                     	ds	4
   644   00004D                     ___fladd@signs:
   645                           	callstack 0
   646                           
   647                           ; 1 bytes @ 0x4C
   648   00004D                     	ds	1
   649   00004E                     ___fladd@aexp:
   650                           	callstack 0
   651                           
   652                           ; 1 bytes @ 0x4D
   653   00004E                     	ds	1
   654   00004F                     ___fladd@bexp:
   655                           	callstack 0
   656                           
   657                           ; 1 bytes @ 0x4E
   658   00004F                     	ds	1
   659   000050                     ___fladd@grs:
   660                           	callstack 0
   661                           
   662                           ; 1 bytes @ 0x4F
   663   000050                     	ds	1
   664   000051                     ?___flsub:
   665                           	callstack 0
   666   000051                     ?___sindf:
   667                           	callstack 0
   668   000051                     ?___cosdf:
   669                           	callstack 0
   670   000051                     ?___fltol:
   671                           	callstack 0
   672   000051                     ___fltol@f1:
   673                           	callstack 0
   674   000051                     ___flsub@b:
   675                           	callstack 0
   676   000051                     ___cosdf@x:
   677                           	callstack 0
   678   000051                     ___sindf@x:
   679                           	callstack 0
   680                           
   681                           ; 4 bytes @ 0x50
   682   000051                     	ds	4
   683   000055                     ??___fltol:
   684   000055                     ___flsub@a:
   685                           	callstack 0
   686                           
   687                           ; 4 bytes @ 0x54
   688   000055                     	ds	4
   689   000059                     ___fltol@sign1:
   690                           	callstack 0
   691                           
   692                           ; 1 bytes @ 0x58
   693   000059                     	ds	1
   694   00005A                     ___fltol@exp1:
   695                           	callstack 0
   696                           
   697                           ; 1 bytes @ 0x59
   698   00005A                     	ds	1
   699   00005B                     ??___rem_pio2f:
   700                           
   701                           ; 1 bytes @ 0x5A
   702   00005B                     	ds	2
   703   00005D                     ??_main:
   704                           
   705                           ; 1 bytes @ 0x5C
   706   00005D                     	ds	1
   707                           
   708 ;;
   709 ;;Main: autosize = 0, tempsize = 1, incstack = 0, save=0
   710 ;;
   711 ;; *************** function _main *****************
   712 ;; Defined at:
   713 ;;		line 22 in file "main.c"
   714 ;; Parameters:    Size  Location     Type
   715 ;;		None
   716 ;; Auto vars:     Size  Location     Type
   717 ;;  i               1   93[BANK0 ] unsigned char 
   718 ;;  selectMode      1   92[BANK0 ] unsigned char 
   719 ;; Return value:  Size  Location     Type
   720 ;;                  1    wreg      void 
   721 ;; Registers used:
   722 ;;		wreg, fsr1l, fsr1h, fsr2l, fsr2h, status,2, status,0, tblptrl, tblptrh, tblptru, prodl, prodh, cstack
   723 ;; Tracked objects:
   724 ;;		On entry : 0/0
   725 ;;		On exit  : 0/0
   726 ;;		Unchanged: 0/0
   727 ;; Data sizes:     COMRAM   BANK0   BANK1   BANK2   BANK3   BANK4   BANK5   BANK6   BANK7   BANK8   BANK9  BANK10  BANK1
      +1  BANK12  BANK13  BANK14  BANK15
   728 ;;      Params:         0       0       0       0       0       0       0       0       0       0       0       0       
      +0       0       0       0       0
   729 ;;      Locals:         0      10       0       0       0       0       0       0       0       0       0       0       
      +0       0       0       0       0
   730 ;;      Temps:          1       0       0       0       0       0       0       0       0       0       0       0       
      +0       0       0       0       0
   731 ;;      Totals:         1      10       0       0       0       0       0       0       0       0       0       0       
      +0       0       0       0       0
   732 ;;Total ram usage:       11 bytes
   733 ;; Hardware stack levels required when called: 5
   734 ;; This function calls:
   735 ;;		_SPI_write
   736 ;;		___fladd
   737 ;;		___fldiv
   738 ;;		___flmul
   739 ;;		___fltol
   740 ;;		___xxtofl
   741 ;;		_printf
   742 ;;		_sinf
   743 ;; This function is called by:
   744 ;;		Startup code after reset
   745 ;; This function uses a non-reentrant model
   746 ;;
   747                           
   748                           	psect	text0
   749   002598                     __ptext0:
   750                           	callstack 0
   751   002598                     _main:
   752                           	callstack 26
   753   002598                     
   754                           ;main.c: 24:     TRISCbits.RC0 = 1;
   755   002598  8094               	bsf	148,0,c	;volatile
   756                           
   757                           ;main.c: 25:     TRISAbits.RA4 = 1;
   758   00259A  8892               	bsf	146,4,c	;volatile
   759                           
   760                           ;main.c: 26:     TRISAbits.RA3 = 1;
   761   00259C  8692               	bsf	146,3,c	;volatile
   762                           
   763                           ;main.c: 27:     ANSELAbits.ANSA3 = 0;
   764   00259E  010F               	movlb	15	; () banked
   765   0025A0  9738               	bcf	56,3,b	;volatile
   766                           
   767                           ;main.c: 30:     TRISBbits.RB3 = 0;
   768   0025A2  9693               	bcf	147,3,c	;volatile
   769                           
   770                           ;main.c: 31:     TRISCbits.RC3 = 0;
   771   0025A4  9694               	bcf	148,3,c	;volatile
   772                           
   773                           ;main.c: 32:     TRISCbits.RC5 = 0;
   774   0025A6  9A94               	bcf	148,5,c	;volatile
   775   0025A8                     
   776                           ; BSR set to: 15
   777                           ;main.c: 34:     SSP1CON1bits.SSPM = 0b0010;
   778   0025A8  50C6               	movf	198,w,c	;volatile
   779   0025AA  0BF0               	andlw	-16
   780   0025AC  0902               	iorlw	2
   781   0025AE  6EC6               	movwf	198,c	;volatile
   782   0025B0                     
   783                           ; BSR set to: 15
   784                           ;main.c: 35:     SSP1CON1bits.CKP = 0;
   785   0025B0  98C6               	bcf	198,4,c	;volatile
   786   0025B2                     
   787                           ; BSR set to: 15
   788                           ;main.c: 36:     SSP1STATbits.CKE = 1;
   789   0025B2  8CC7               	bsf	199,6,c	;volatile
   790   0025B4                     
   791                           ; BSR set to: 15
   792                           ;main.c: 37:     SSP1CON1bits.SSPEN = 1;
   793   0025B4  8AC6               	bsf	198,5,c	;volatile
   794   0025B6                     
   795                           ; BSR set to: 15
   796                           ;main.c: 40:     ANSELBbits.ANSB0 = 1;
   797   0025B6  8139               	bsf	57,0,b	;volatile
   798   0025B8                     
   799                           ; BSR set to: 15
   800                           ;main.c: 42:     ADCON2bits.ADFM = 0;
   801   0025B8  9EC0               	bcf	192,7,c	;volatile
   802                           
   803                           ;main.c: 43:     ADCON2bits.ADCS = 0b110;
   804   0025BA  50C0               	movf	192,w,c	;volatile
   805   0025BC  0BF8               	andlw	-8
   806   0025BE  0906               	iorlw	6
   807   0025C0  6EC0               	movwf	192,c	;volatile
   808                           
   809                           ;main.c: 44:     ADCON2bits.ACQT = 0b110;
   810   0025C2  50C0               	movf	192,w,c	;volatile
   811   0025C4  0BC7               	andlw	-57
   812   0025C6  0930               	iorlw	48
   813   0025C8  6EC0               	movwf	192,c	;volatile
   814   0025CA                     
   815                           ; BSR set to: 15
   816                           ;main.c: 45:     ADCON0bits.ADON = 1;
   817   0025CA  80C2               	bsf	194,0,c	;volatile
   818                           
   819                           ;main.c: 48:     SPBRG1 = 51;
   820   0025CC  0E33               	movlw	51
   821   0025CE  6EAF               	movwf	175,c	;volatile
   822   0025D0                     
   823                           ; BSR set to: 15
   824                           ;main.c: 49:     RCSTA1bits.SPEN = 1;
   825   0025D0  8EAB               	bsf	171,7,c	;volatile
   826   0025D2                     
   827                           ; BSR set to: 15
   828                           ;main.c: 50:     TXSTA1bits.SYNC = 0;
   829   0025D2  98AC               	bcf	172,4,c	;volatile
   830   0025D4                     
   831                           ; BSR set to: 15
   832                           ;main.c: 51:     TXSTA1bits.TXEN = 1;
   833   0025D4  8AAC               	bsf	172,5,c	;volatile
   834   0025D6                     
   835                           ; BSR set to: 15
   836                           ;main.c: 52:     RCSTA1bits.CREN = 1;
   837   0025D6  88AB               	bsf	171,4,c	;volatile
   838   0025D8                     
   839                           ; BSR set to: 15
   840                           ;main.c: 55:     LATBbits.LB3 = 1;
   841   0025D8  868A               	bsf	138,3,c	;volatile
   842                           
   843                           ;main.c: 57:     ADCON0bits.CHS = 12;
   844   0025DA  50C2               	movf	194,w,c	;volatile
   845   0025DC  0B83               	andlw	-125
   846   0025DE  0930               	iorlw	48
   847   0025E0  6EC2               	movwf	194,c	;volatile
   848                           
   849                           ;main.c: 59:     uint8_t selectMode = 1;
   850   0025E2  0E01               	movlw	1
   851   0025E4  0100               	movlb	0	; () banked
   852   0025E6  6FBC               	movwf	main@selectMode& (0+255),b
   853   0025E8                     
   854                           ; BSR set to: 0
   855                           ;main.c: 62:         for(uint8_t i = 0; 1; i++){
   856   0025E8  0E00               	movlw	0
   857   0025EA  6FBD               	movwf	main@i& (0+255),b
   858   0025EC  EFDB  F013         	goto	l2866
   859   0025F0                     l2848:
   860                           
   861                           ; BSR set to: 0
   862                           ;main.c: 65:                 if(i<255/2){
   863   0025F0  0E7F               	movlw	127
   864   0025F2  61BD               	cpfslt	main@i& (0+255),b
   865   0025F4  EFFE  F012         	goto	u3031
   866   0025F8  EF00  F013         	goto	u3030
   867   0025FC                     u3031:
   868   0025FC  EF27  F013         	goto	l2852
   869   002600                     u3030:
   870   002600                     
   871                           ; BSR set to: 0
   872                           ;main.c: 66:                     SPI_write(1.9*i);
   873   002600  0E33               	movlw	51
   874   002602  6E13               	movwf	___flmul@a^0,c
   875   002604  0E33               	movlw	51
   876   002606  6E14               	movwf	(___flmul@a+1)^0,c
   877   002608  0EF3               	movlw	243
   878   00260A  6E15               	movwf	(___flmul@a+2)^0,c
   879   00260C  0E3F               	movlw	63
   880   00260E  6E16               	movwf	(___flmul@a+3)^0,c
   881   002610  51BD               	movf	main@i& (0+255),w,b
   882   002612  6E01               	movwf	___xxtofl@val^0,c
   883   002614  6A02               	clrf	(___xxtofl@val+1)^0,c
   884   002616  6A03               	clrf	(___xxtofl@val+2)^0,c
   885   002618  6A04               	clrf	(___xxtofl@val+3)^0,c
   886   00261A  0E01               	movlw	1
   887   00261C  EC1E  F017         	call	___xxtofl
   888   002620  C001  F00F         	movff	?___xxtofl,___flmul@b
   889   002624  C002  F010         	movff	?___xxtofl+1,___flmul@b+1
   890   002628  C003  F011         	movff	?___xxtofl+2,___flmul@b+2
   891   00262C  C004  F012         	movff	?___xxtofl+3,___flmul@b+3
   892   002630  EC09  F00D         	call	___flmul	;wreg free
   893   002634  C00F  F051         	movff	?___flmul,___fltol@f1
   894   002638  C010  F052         	movff	?___flmul+1,___fltol@f1+1
   895   00263C  C011  F053         	movff	?___flmul+2,___fltol@f1+2
   896   002640  C012  F054         	movff	?___flmul+3,___fltol@f1+3
   897   002644  ECF8  F017         	call	___fltol	;wreg free
   898   002648  5051               	movf	?___fltol^0,w,c
   899   00264A  ECDE  F019         	call	_SPI_write
   900   00264E                     l2852:
   901                           
   902                           ;main.c: 68:                 if(i>=255/2){
   903   00264E  0E7E               	movlw	126
   904   002650  0100               	movlb	0	; () banked
   905   002652  65BD               	cpfsgt	main@i& (0+255),b
   906   002654  EF2E  F013         	goto	u3041
   907   002658  EF30  F013         	goto	u3040
   908   00265C                     u3041:
   909   00265C  EFEA  F013         	goto	l62
   910   002660                     u3040:
   911   002660                     
   912                           ; BSR set to: 0
   913                           ;main.c: 69:                     SPI_write(1.9*(255-i));
   914   002660  0E33               	movlw	51
   915   002662  6E13               	movwf	___flmul@a^0,c
   916   002664  0E33               	movlw	51
   917   002666  6E14               	movwf	(___flmul@a+1)^0,c
   918   002668  0EF3               	movlw	243
   919   00266A  6E15               	movwf	(___flmul@a+2)^0,c
   920   00266C  0E3F               	movlw	63
   921   00266E  6E16               	movwf	(___flmul@a+3)^0,c
   922   002670  51BD               	movf	main@i& (0+255),w,b
   923   002672  0AFF               	xorlw	255
   924   002674  6E5D               	movwf	??_main^0,c
   925   002676  505D               	movf	??_main^0,w,c
   926   002678  6E01               	movwf	___xxtofl@val^0,c
   927   00267A  6A02               	clrf	(___xxtofl@val+1)^0,c
   928   00267C  6A03               	clrf	(___xxtofl@val+2)^0,c
   929   00267E  6A04               	clrf	(___xxtofl@val+3)^0,c
   930   002680  0E01               	movlw	1
   931   002682  EC1E  F017         	call	___xxtofl
   932   002686  C001  F00F         	movff	?___xxtofl,___flmul@b
   933   00268A  C002  F010         	movff	?___xxtofl+1,___flmul@b+1
   934   00268E  C003  F011         	movff	?___xxtofl+2,___flmul@b+2
   935   002692  C004  F012         	movff	?___xxtofl+3,___flmul@b+3
   936   002696  EC09  F00D         	call	___flmul	;wreg free
   937   00269A  C00F  F051         	movff	?___flmul,___fltol@f1
   938   00269E  C010  F052         	movff	?___flmul+1,___fltol@f1+1
   939   0026A2  C011  F053         	movff	?___flmul+2,___fltol@f1+2
   940   0026A6  C012  F054         	movff	?___flmul+3,___fltol@f1+3
   941   0026AA  ECF8  F017         	call	___fltol	;wreg free
   942   0026AE  5051               	movf	?___fltol^0,w,c
   943   0026B0  ECDE  F019         	call	_SPI_write
   944   0026B4  EFEA  F013         	goto	l62
   945   0026B8                     l2856:
   946                           
   947                           ; BSR set to: 0
   948                           ;main.c: 73:                 SPI_write((255/2*sinf(2*3.14*i/255)+255/2));
   949   0026B8  0E00               	movlw	0
   950   0026BA  6E2C               	movwf	___fldiv@a^0,c
   951   0026BC  0E00               	movlw	0
   952   0026BE  6E2D               	movwf	(___fldiv@a+1)^0,c
   953   0026C0  0E7F               	movlw	127
   954   0026C2  6E2E               	movwf	(___fldiv@a+2)^0,c
   955   0026C4  0E43               	movlw	67
   956   0026C6  6E2F               	movwf	(___fldiv@a+3)^0,c
   957   0026C8  0EC3               	movlw	195
   958   0026CA  6E13               	movwf	___flmul@a^0,c
   959   0026CC  0EF5               	movlw	245
   960   0026CE  6E14               	movwf	(___flmul@a+1)^0,c
   961   0026D0  0EC8               	movlw	200
   962   0026D2  6E15               	movwf	(___flmul@a+2)^0,c
   963   0026D4  0E40               	movlw	64
   964   0026D6  6E16               	movwf	(___flmul@a+3)^0,c
   965   0026D8  51BD               	movf	main@i& (0+255),w,b
   966   0026DA  6E01               	movwf	___xxtofl@val^0,c
   967   0026DC  6A02               	clrf	(___xxtofl@val+1)^0,c
   968   0026DE  6A03               	clrf	(___xxtofl@val+2)^0,c
   969   0026E0  6A04               	clrf	(___xxtofl@val+3)^0,c
   970   0026E2  0E01               	movlw	1
   971   0026E4  EC1E  F017         	call	___xxtofl
   972   0026E8  C001  F00F         	movff	?___xxtofl,___flmul@b
   973   0026EC  C002  F010         	movff	?___xxtofl+1,___flmul@b+1
   974   0026F0  C003  F011         	movff	?___xxtofl+2,___flmul@b+2
   975   0026F4  C004  F012         	movff	?___xxtofl+3,___flmul@b+3
   976   0026F8  EC09  F00D         	call	___flmul	;wreg free
   977   0026FC  C00F  F028         	movff	?___flmul,___fldiv@b
   978   002700  C010  F029         	movff	?___flmul+1,___fldiv@b+1
   979   002704  C011  F02A         	movff	?___flmul+2,___fldiv@b+2
   980   002708  C012  F02B         	movff	?___flmul+3,___fldiv@b+3
   981   00270C  ECFF  F010         	call	___fldiv	;wreg free
   982   002710  C028  F0B4         	movff	?___fldiv,_main$1881
   983   002714  C029  F0B5         	movff	?___fldiv+1,_main$1881+1
   984   002718  C02A  F0B6         	movff	?___fldiv+2,_main$1881+2
   985   00271C  C02B  F0B7         	movff	?___fldiv+3,_main$1881+3
   986   002720                     
   987                           ;main.c: 73:                 SPI_write((255/2*sinf(2*3.14*i/255)+255/2));
   988   002720  C0B4  F09A         	movff	_main$1881,sinf@x
   989   002724  C0B5  F09B         	movff	_main$1881+1,sinf@x+1
   990   002728  C0B6  F09C         	movff	_main$1881+2,sinf@x+2
   991   00272C  C0B7  F09D         	movff	_main$1881+3,sinf@x+3
   992   002730  EC24  F008         	call	_sinf	;wreg free
   993   002734  C09A  F0B8         	movff	?_sinf,_main$1882
   994   002738  C09B  F0B9         	movff	?_sinf+1,_main$1882+1
   995   00273C  C09C  F0BA         	movff	?_sinf+2,_main$1882+2
   996   002740  C09D  F0BB         	movff	?_sinf+3,_main$1882+3
   997   002744                     
   998                           ;main.c: 73:                 SPI_write((255/2*sinf(2*3.14*i/255)+255/2));
   999   002744  0E00               	movlw	0
  1000   002746  6E45               	movwf	___fladd@a^0,c
  1001   002748  0E00               	movlw	0
  1002   00274A  6E46               	movwf	(___fladd@a+1)^0,c
  1003   00274C  0EFE               	movlw	254
  1004   00274E  6E47               	movwf	(___fladd@a+2)^0,c
  1005   002750  0E42               	movlw	66
  1006   002752  6E48               	movwf	(___fladd@a+3)^0,c
  1007   002754  0E00               	movlw	0
  1008   002756  6E13               	movwf	___flmul@a^0,c
  1009   002758  0E00               	movlw	0
  1010   00275A  6E14               	movwf	(___flmul@a+1)^0,c
  1011   00275C  0EFE               	movlw	254
  1012   00275E  6E15               	movwf	(___flmul@a+2)^0,c
  1013   002760  0E42               	movlw	66
  1014   002762  6E16               	movwf	(___flmul@a+3)^0,c
  1015   002764  C0B8  F00F         	movff	_main$1882,___flmul@b
  1016   002768  C0B9  F010         	movff	_main$1882+1,___flmul@b+1
  1017   00276C  C0BA  F011         	movff	_main$1882+2,___flmul@b+2
  1018   002770  C0BB  F012         	movff	_main$1882+3,___flmul@b+3
  1019   002774  EC09  F00D         	call	___flmul	;wreg free
  1020   002778  C00F  F041         	movff	?___flmul,___fladd@b
  1021   00277C  C010  F042         	movff	?___flmul+1,___fladd@b+1
  1022   002780  C011  F043         	movff	?___flmul+2,___fladd@b+2
  1023   002784  C012  F044         	movff	?___flmul+3,___fladd@b+3
  1024   002788  ECA9  F00A         	call	___fladd	;wreg free
  1025   00278C  C041  F051         	movff	?___fladd,___fltol@f1
  1026   002790  C042  F052         	movff	?___fladd+1,___fltol@f1+1
  1027   002794  C043  F053         	movff	?___fladd+2,___fltol@f1+2
  1028   002798  C044  F054         	movff	?___fladd+3,___fltol@f1+3
  1029   00279C  ECF8  F017         	call	___fltol	;wreg free
  1030   0027A0  5051               	movf	?___fltol^0,w,c
  1031   0027A2  ECDE  F019         	call	_SPI_write
  1032                           
  1033                           ;main.c: 74:                 break;
  1034   0027A6  EFEA  F013         	goto	l62
  1035   0027AA                     l2862:
  1036                           
  1037                           ; BSR set to: 0
  1038                           ;main.c: 76:                 SPI_write(255 - i);
  1039   0027AA  51BD               	movf	main@i& (0+255),w,b
  1040   0027AC  0AFF               	xorlw	255
  1041   0027AE  ECDE  F019         	call	_SPI_write
  1042                           
  1043                           ;main.c: 77:                 break;
  1044   0027B2  EFEA  F013         	goto	l62
  1045   0027B6                     l2866:
  1046                           
  1047                           ; BSR set to: 0
  1048   0027B6  51BC               	movf	main@selectMode& (0+255),w,b
  1049                           
  1050                           ; Switch size 1, requested type "simple"
  1051                           ; Number of cases is 3, Range of values is 1 to 3
  1052                           ; switch strategies available:
  1053                           ; Name         Instructions Cycles
  1054                           ; simple_byte           10     6 (average)
  1055                           ;	Chosen strategy is simple_byte
  1056   0027B8  0A01               	xorlw	1	; case 1
  1057   0027BA  B4D8               	btfsc	status,2,c
  1058   0027BC  EFF8  F012         	goto	l2848
  1059   0027C0  0A03               	xorlw	3	; case 2
  1060   0027C2  B4D8               	btfsc	status,2,c
  1061   0027C4  EF5C  F013         	goto	l2856
  1062   0027C8  0A01               	xorlw	1	; case 3
  1063   0027CA  B4D8               	btfsc	status,2,c
  1064   0027CC  EFD5  F013         	goto	l2862
  1065   0027D0  EFEA  F013         	goto	l62
  1066   0027D4                     l62:
  1067                           
  1068                           ;main.c: 79:         GODONE = 1;
  1069   0027D4  82C2               	bsf	4034,1,c	;volatile
  1070   0027D6                     l65:
  1071   0027D6  B2C2               	btfsc	4034,1,c	;volatile
  1072   0027D8  EFF0  F013         	goto	u3051
  1073   0027DC  EFF2  F013         	goto	u3050
  1074   0027E0                     u3051:
  1075   0027E0  EFEB  F013         	goto	l65
  1076   0027E4                     u3050:
  1077   0027E4                     
  1078                           ;main.c: 82:         printf("%d \r", ADRESH);
  1079   0027E4  0E41               	movlw	low STR_1
  1080   0027E6  6E1C               	movwf	printf@fmt^0,c
  1081   0027E8  CFC4 F01D          	movff	4036,?_printf+1	;volatile
  1082   0027EC  6A1E               	clrf	(?_printf+2)^0,c
  1083   0027EE  EC4E  F01A         	call	_printf	;wreg free
  1084   0027F2                     
  1085                           ;main.c: 83:         if(PORTCbits.RC0){
  1086   0027F2  A082               	btfss	130,0,c	;volatile
  1087   0027F4  EFFE  F013         	goto	u3061
  1088   0027F8  EF00  F014         	goto	u3060
  1089   0027FC                     u3061:
  1090   0027FC  EF03  F014         	goto	l2874
  1091   002800                     u3060:
  1092   002800                     
  1093                           ;main.c: 84:             selectMode = 1;
  1094   002800  0E01               	movlw	1
  1095   002802  0100               	movlb	0	; () banked
  1096   002804  6FBC               	movwf	main@selectMode& (0+255),b
  1097   002806                     l2874:
  1098                           
  1099                           ;main.c: 86:         if(PORTAbits.RA4){
  1100   002806  A880               	btfss	128,4,c	;volatile
  1101   002808  EF08  F014         	goto	u3071
  1102   00280C  EF0A  F014         	goto	u3070
  1103   002810                     u3071:
  1104   002810  EF0D  F014         	goto	l2878
  1105   002814                     u3070:
  1106   002814                     
  1107                           ;main.c: 87:             selectMode = 2;
  1108   002814  0E02               	movlw	2
  1109   002816  0100               	movlb	0	; () banked
  1110   002818  6FBC               	movwf	main@selectMode& (0+255),b
  1111   00281A                     l2878:
  1112                           
  1113                           ;main.c: 89:         if(PORTAbits.RA3){
  1114   00281A  A680               	btfss	128,3,c	;volatile
  1115   00281C  EF12  F014         	goto	u3081
  1116   002820  EF14  F014         	goto	u3080
  1117   002824                     u3081:
  1118   002824  EF17  F014         	goto	l2882
  1119   002828                     u3080:
  1120   002828                     
  1121                           ;main.c: 90:             selectMode = 3;
  1122   002828  0E03               	movlw	3
  1123   00282A  0100               	movlb	0	; () banked
  1124   00282C  6FBC               	movwf	main@selectMode& (0+255),b
  1125   00282E                     l2882:
  1126                           
  1127                           ;main.c: 93:         _delay((unsigned long)((10)*(32E6/4000.0)));
  1128   00282E  0E68               	movlw	104
  1129   002830  6E5D               	movwf	??_main^0,c
  1130   002832  0EE4               	movlw	228
  1131   002834                     u3097:
  1132   002834  2EE8               	decfsz	wreg,f,c
  1133   002836  D7FE               	bra	u3097
  1134   002838  2E5D               	decfsz	??_main^0,f,c
  1135   00283A  D7FC               	bra	u3097
  1136   00283C  D000               	nop2	
  1137   00283E                     
  1138                           ;main.c: 94:         }
  1139   00283E  0100               	movlb	0	; () banked
  1140   002840  2BBD               	incf	main@i& (0+255),f,b
  1141   002842  EFDB  F013         	goto	l2866
  1142   002846  EF00  F000         	goto	start
  1143   00284A                     __end_of_main:
  1144                           	callstack 0
  1145                           
  1146 ;; *************** function _sinf *****************
  1147 ;; Defined at:
  1148 ;;		line 27 in file "C:\Program Files\Microchip\xc8\v2.46\pic\sources\c99\common\sinf.c"
  1149 ;; Parameters:    Size  Location     Type
  1150 ;;  x               4   58[BANK0 ] float 
  1151 ;; Auto vars:     Size  Location     Type
  1152 ;;  ux              4   80[BANK0 ] struct .
  1153 ;;  y               4   76[BANK0 ] struct .
  1154 ;;  sign            1   71[BANK0 ] _Bool 
  1155 ;;  n               1   70[BANK0 ] unsigned char 
  1156 ;; Return value:  Size  Location     Type
  1157 ;;                  4   58[BANK0 ] float 
  1158 ;; Registers used:
  1159 ;;		wreg, fsr2l, fsr2h, status,2, status,0, prodl, prodh, cstack
  1160 ;; Tracked objects:
  1161 ;;		On entry : 0/0
  1162 ;;		On exit  : 0/0
  1163 ;;		Unchanged: 0/0
  1164 ;; Data sizes:     COMRAM   BANK0   BANK1   BANK2   BANK3   BANK4   BANK5   BANK6   BANK7   BANK8   BANK9  BANK10  BANK1
      +1  BANK12  BANK13  BANK14  BANK15
  1165 ;;      Params:         0       4       0       0       0       0       0       0       0       0       0       0       
      +0       0       0       0       0
  1166 ;;      Locals:         0      22       0       0       0       0       0       0       0       0       0       0       
      +0       0       0       0       0
  1167 ;;      Temps:          0       0       0       0       0       0       0       0       0       0       0       0       
      +0       0       0       0       0
  1168 ;;      Totals:         0      26       0       0       0       0       0       0       0       0       0       0       
      +0       0       0       0       0
  1169 ;;Total ram usage:       26 bytes
  1170 ;; Hardware stack levels used: 1
  1171 ;; Hardware stack levels required when called: 3
  1172 ;; This function calls:
  1173 ;;		___cosdf
  1174 ;;		___fladd
  1175 ;;		___flneg
  1176 ;;		___rem_pio2f
  1177 ;;		___sindf
  1178 ;; This function is called by:
  1179 ;;		_main
  1180 ;; This function uses a non-reentrant model
  1181 ;;
  1182                           
  1183                           	psect	text1
  1184   001048                     __ptext1:
  1185                           	callstack 0
  1186   001048                     _sinf:
  1187                           	callstack 27
  1188   001048  C09A  F0B0         	movff	sinf@x,sinf@ux
  1189   00104C  C09B  F0B1         	movff	sinf@x+1,sinf@ux+1
  1190   001050  C09C  F0B2         	movff	sinf@x+2,sinf@ux+2
  1191   001054  C09D  F0B3         	movff	sinf@x+3,sinf@ux+3
  1192   001058  0100               	movlb	0	; () banked
  1193   00105A  BFB3               	btfsc	(sinf@ux+3)& (0+255),7,b
  1194   00105C  EF32  F008         	goto	u2671
  1195   001060  EF35  F008         	goto	u2670
  1196   001064                     u2671:
  1197   001064  0E01               	movlw	1
  1198   001066  EF36  F008         	goto	u2680
  1199   00106A                     u2670:
  1200   00106A  0E00               	movlw	0
  1201   00106C                     u2680:
  1202   00106C  6FA7               	movwf	sinf@sign& (0+255),b
  1203   00106E                     
  1204                           ; BSR set to: 0
  1205   00106E  9FB3               	bcf	(sinf@ux+3)& (0+255),7,b
  1206   001070                     
  1207                           ; BSR set to: 0
  1208   001070  0EDB               	movlw	219
  1209   001072  5DB0               	subwf	sinf@ux& (0+255),w,b
  1210   001074  0E0F               	movlw	15
  1211   001076  59B1               	subwfb	(sinf@ux+1)& (0+255),w,b
  1212   001078  0E49               	movlw	73
  1213   00107A  59B2               	subwfb	(sinf@ux+2)& (0+255),w,b
  1214   00107C  0E3F               	movlw	63
  1215   00107E  59B3               	subwfb	(sinf@ux+3)& (0+255),w,b
  1216   001080  B0D8               	btfsc	status,0,c
  1217   001082  EF45  F008         	goto	u2691
  1218   001086  EF47  F008         	goto	u2690
  1219   00108A                     u2691:
  1220   00108A  EF70  F008         	goto	l2590
  1221   00108E                     u2690:
  1222   00108E                     
  1223                           ; BSR set to: 0
  1224   00108E  0E80               	movlw	128
  1225   001090  5DB2               	subwf	(sinf@ux+2)& (0+255),w,b
  1226   001092  0E39               	movlw	57
  1227   001094  59B3               	subwfb	(sinf@ux+3)& (0+255),w,b
  1228   001096  B0D8               	btfsc	status,0,c
  1229   001098  EF50  F008         	goto	u2701
  1230   00109C  EF52  F008         	goto	u2700
  1231   0010A0                     u2701:
  1232   0010A0  EF5C  F008         	goto	l2586
  1233   0010A4                     u2700:
  1234   0010A4                     
  1235                           ; BSR set to: 0
  1236   0010A4  C09A  F09A         	movff	sinf@x,?_sinf
  1237   0010A8  C09B  F09B         	movff	sinf@x+1,?_sinf+1
  1238   0010AC  C09C  F09C         	movff	sinf@x+2,?_sinf+2
  1239   0010B0  C09D  F09D         	movff	sinf@x+3,?_sinf+3
  1240   0010B4  EFA8  F00A         	goto	l860
  1241   0010B8                     l2586:
  1242                           
  1243                           ; BSR set to: 0
  1244   0010B8  C09A  F051         	movff	sinf@x,___sindf@x
  1245   0010BC  C09B  F052         	movff	sinf@x+1,___sindf@x+1
  1246   0010C0  C09C  F053         	movff	sinf@x+2,___sindf@x+2
  1247   0010C4  C09D  F054         	movff	sinf@x+3,___sindf@x+3
  1248   0010C8  EC25  F014         	call	___sindf	;wreg free
  1249   0010CC  C051  F09A         	movff	?___sindf,?_sinf
  1250   0010D0  C052  F09B         	movff	?___sindf+1,?_sinf+1
  1251   0010D4  C053  F09C         	movff	?___sindf+2,?_sinf+2
  1252   0010D8  C054  F09D         	movff	?___sindf+3,?_sinf+3
  1253   0010DC  EFA8  F00A         	goto	l860
  1254   0010E0                     l2590:
  1255                           
  1256                           ; BSR set to: 0
  1257   0010E0  0ED2               	movlw	210
  1258   0010E2  5DB0               	subwf	sinf@ux& (0+255),w,b
  1259   0010E4  0E53               	movlw	83
  1260   0010E6  59B1               	subwfb	(sinf@ux+1)& (0+255),w,b
  1261   0010E8  0E7B               	movlw	123
  1262   0010EA  59B2               	subwfb	(sinf@ux+2)& (0+255),w,b
  1263   0010EC  0E40               	movlw	64
  1264   0010EE  59B3               	subwfb	(sinf@ux+3)& (0+255),w,b
  1265   0010F0  B0D8               	btfsc	status,0,c
  1266   0010F2  EF7D  F008         	goto	u2711
  1267   0010F6  EF7F  F008         	goto	u2710
  1268   0010FA                     u2711:
  1269   0010FA  EF62  F009         	goto	l2620
  1270   0010FE                     u2710:
  1271   0010FE                     
  1272                           ; BSR set to: 0
  1273   0010FE  0EE4               	movlw	228
  1274   001100  5DB0               	subwf	sinf@ux& (0+255),w,b
  1275   001102  0ECB               	movlw	203
  1276   001104  59B1               	subwfb	(sinf@ux+1)& (0+255),w,b
  1277   001106  0E16               	movlw	22
  1278   001108  59B2               	subwfb	(sinf@ux+2)& (0+255),w,b
  1279   00110A  0E40               	movlw	64
  1280   00110C  59B3               	subwfb	(sinf@ux+3)& (0+255),w,b
  1281   00110E  B0D8               	btfsc	status,0,c
  1282   001110  EF8C  F008         	goto	u2721
  1283   001114  EF8E  F008         	goto	u2720
  1284   001118                     u2721:
  1285   001118  EFFC  F008         	goto	l2610
  1286   00111C                     u2720:
  1287   00111C                     
  1288                           ; BSR set to: 0
  1289   00111C  51A7               	movf	sinf@sign& (0+255),w,b
  1290   00111E  B4D8               	btfsc	status,2,c
  1291   001120  EF94  F008         	goto	u2731
  1292   001124  EF96  F008         	goto	u2730
  1293   001128                     u2731:
  1294   001128  EFCE  F008         	goto	l2604
  1295   00112C                     u2730:
  1296   00112C                     
  1297                           ; BSR set to: 0
  1298   00112C  0EDB               	movlw	219
  1299   00112E  6E45               	movwf	___fladd@a^0,c
  1300   001130  0E0F               	movlw	15
  1301   001132  6E46               	movwf	(___fladd@a+1)^0,c
  1302   001134  0EC9               	movlw	201
  1303   001136  6E47               	movwf	(___fladd@a+2)^0,c
  1304   001138  0E3F               	movlw	63
  1305   00113A  6E48               	movwf	(___fladd@a+3)^0,c
  1306   00113C  C09A  F041         	movff	sinf@x,___fladd@b
  1307   001140  C09B  F042         	movff	sinf@x+1,___fladd@b+1
  1308   001144  C09C  F043         	movff	sinf@x+2,___fladd@b+2
  1309   001148  C09D  F044         	movff	sinf@x+3,___fladd@b+3
  1310   00114C  ECA9  F00A         	call	___fladd	;wreg free
  1311   001150  C041  F0A8         	movff	?___fladd,_sinf$1883
  1312   001154  C042  F0A9         	movff	?___fladd+1,_sinf$1883+1
  1313   001158  C043  F0AA         	movff	?___fladd+2,_sinf$1883+2
  1314   00115C  C044  F0AB         	movff	?___fladd+3,_sinf$1883+3
  1315   001160                     l2598:
  1316   001160  C0A8  F051         	movff	_sinf$1883,___cosdf@x
  1317   001164  C0A9  F052         	movff	_sinf$1883+1,___cosdf@x+1
  1318   001168  C0AA  F053         	movff	_sinf$1883+2,___cosdf@x+2
  1319   00116C  C0AB  F054         	movff	_sinf$1883+3,___cosdf@x+3
  1320   001170  EC3E  F015         	call	___cosdf	;wreg free
  1321   001174  C051  F078         	movff	?___cosdf,___flneg@f1
  1322   001178  C052  F079         	movff	?___cosdf+1,___flneg@f1+1
  1323   00117C  C053  F07A         	movff	?___cosdf+2,___flneg@f1+2
  1324   001180  C054  F07B         	movff	?___cosdf+3,___flneg@f1+3
  1325   001184  ECFD  F019         	call	___flneg	;wreg free
  1326   001188  C078  F09A         	movff	?___flneg,?_sinf
  1327   00118C  C079  F09B         	movff	?___flneg+1,?_sinf+1
  1328   001190  C07A  F09C         	movff	?___flneg+2,?_sinf+2
  1329   001194  C07B  F09D         	movff	?___flneg+3,?_sinf+3
  1330   001198  EFA8  F00A         	goto	l860
  1331   00119C                     l2604:
  1332                           
  1333                           ; BSR set to: 0
  1334   00119C  C09A  F041         	movff	sinf@x,___fladd@b
  1335   0011A0  C09B  F042         	movff	sinf@x+1,___fladd@b+1
  1336   0011A4  C09C  F043         	movff	sinf@x+2,___fladd@b+2
  1337   0011A8  C09D  F044         	movff	sinf@x+3,___fladd@b+3
  1338   0011AC  0EDB               	movlw	219
  1339   0011AE  6E45               	movwf	___fladd@a^0,c
  1340   0011B0  0E0F               	movlw	15
  1341   0011B2  6E46               	movwf	(___fladd@a+1)^0,c
  1342   0011B4  0EC9               	movlw	201
  1343   0011B6  6E47               	movwf	(___fladd@a+2)^0,c
  1344   0011B8  0EBF               	movlw	191
  1345   0011BA  6E48               	movwf	(___fladd@a+3)^0,c
  1346   0011BC  ECA9  F00A         	call	___fladd	;wreg free
  1347   0011C0  C041  F0A8         	movff	?___fladd,_sinf$1883
  1348   0011C4  C042  F0A9         	movff	?___fladd+1,_sinf$1883+1
  1349   0011C8  C043  F0AA         	movff	?___fladd+2,_sinf$1883+2
  1350   0011CC  C044  F0AB         	movff	?___fladd+3,_sinf$1883+3
  1351   0011D0                     l2606:
  1352   0011D0  C0A8  F051         	movff	_sinf$1883,___cosdf@x
  1353   0011D4  C0A9  F052         	movff	_sinf$1883+1,___cosdf@x+1
  1354   0011D8  C0AA  F053         	movff	_sinf$1883+2,___cosdf@x+2
  1355   0011DC  C0AB  F054         	movff	_sinf$1883+3,___cosdf@x+3
  1356   0011E0  EC3E  F015         	call	___cosdf	;wreg free
  1357   0011E4  C051  F09A         	movff	?___cosdf,?_sinf
  1358   0011E8  C052  F09B         	movff	?___cosdf+1,?_sinf+1
  1359   0011EC  C053  F09C         	movff	?___cosdf+2,?_sinf+2
  1360   0011F0  C054  F09D         	movff	?___cosdf+3,?_sinf+3
  1361   0011F4  EFA8  F00A         	goto	l860
  1362   0011F8                     l2610:
  1363                           
  1364                           ; BSR set to: 0
  1365   0011F8  51A7               	movf	sinf@sign& (0+255),w,b
  1366   0011FA  A4D8               	btfss	status,2,c
  1367   0011FC  EF02  F009         	goto	u2741
  1368   001200  EF04  F009         	goto	u2740
  1369   001204                     u2741:
  1370   001204  EF2A  F009         	goto	l2614
  1371   001208                     u2740:
  1372   001208                     
  1373                           ; BSR set to: 0
  1374   001208  0EDB               	movlw	219
  1375   00120A  6E45               	movwf	___fladd@a^0,c
  1376   00120C  0E0F               	movlw	15
  1377   00120E  6E46               	movwf	(___fladd@a+1)^0,c
  1378   001210  0E49               	movlw	73
  1379   001212  6E47               	movwf	(___fladd@a+2)^0,c
  1380   001214  0EC0               	movlw	192
  1381   001216  6E48               	movwf	(___fladd@a+3)^0,c
  1382   001218  C09A  F041         	movff	sinf@x,___fladd@b
  1383   00121C  C09B  F042         	movff	sinf@x+1,___fladd@b+1
  1384   001220  C09C  F043         	movff	sinf@x+2,___fladd@b+2
  1385   001224  C09D  F044         	movff	sinf@x+3,___fladd@b+3
  1386   001228  ECA9  F00A         	call	___fladd	;wreg free
  1387   00122C  C041  F078         	movff	?___fladd,___flneg@f1
  1388   001230  C042  F079         	movff	?___fladd+1,___flneg@f1+1
  1389   001234  C043  F07A         	movff	?___fladd+2,___flneg@f1+2
  1390   001238  C044  F07B         	movff	?___fladd+3,___flneg@f1+3
  1391   00123C  ECFD  F019         	call	___flneg	;wreg free
  1392   001240  C078  F09E         	movff	?___flneg,_sinf$1647
  1393   001244  C079  F09F         	movff	?___flneg+1,_sinf$1647+1
  1394   001248  C07A  F0A0         	movff	?___flneg+2,_sinf$1647+2
  1395   00124C  C07B  F0A1         	movff	?___flneg+3,_sinf$1647+3
  1396   001250  EF4E  F009         	goto	l2616
  1397   001254                     l2614:
  1398                           
  1399                           ; BSR set to: 0
  1400   001254  0EDB               	movlw	219
  1401   001256  6E45               	movwf	___fladd@a^0,c
  1402   001258  0E0F               	movlw	15
  1403   00125A  6E46               	movwf	(___fladd@a+1)^0,c
  1404   00125C  0E49               	movlw	73
  1405   00125E  6E47               	movwf	(___fladd@a+2)^0,c
  1406   001260  0E40               	movlw	64
  1407   001262  6E48               	movwf	(___fladd@a+3)^0,c
  1408   001264  C09A  F041         	movff	sinf@x,___fladd@b
  1409   001268  C09B  F042         	movff	sinf@x+1,___fladd@b+1
  1410   00126C  C09C  F043         	movff	sinf@x+2,___fladd@b+2
  1411   001270  C09D  F044         	movff	sinf@x+3,___fladd@b+3
  1412   001274  ECA9  F00A         	call	___fladd	;wreg free
  1413   001278  C041  F078         	movff	?___fladd,___flneg@f1
  1414   00127C  C042  F079         	movff	?___fladd+1,___flneg@f1+1
  1415   001280  C043  F07A         	movff	?___fladd+2,___flneg@f1+2
  1416   001284  C044  F07B         	movff	?___fladd+3,___flneg@f1+3
  1417   001288  ECFD  F019         	call	___flneg	;wreg free
  1418   00128C  C078  F09E         	movff	?___flneg,_sinf$1647
  1419   001290  C079  F09F         	movff	?___flneg+1,_sinf$1647+1
  1420   001294  C07A  F0A0         	movff	?___flneg+2,_sinf$1647+2
  1421   001298  C07B  F0A1         	movff	?___flneg+3,_sinf$1647+3
  1422   00129C                     l2616:
  1423   00129C  C09E  F051         	movff	_sinf$1647,___sindf@x
  1424   0012A0  C09F  F052         	movff	_sinf$1647+1,___sindf@x+1
  1425   0012A4  C0A0  F053         	movff	_sinf$1647+2,___sindf@x+2
  1426   0012A8  C0A1  F054         	movff	_sinf$1647+3,___sindf@x+3
  1427   0012AC  EC25  F014         	call	___sindf	;wreg free
  1428   0012B0  C051  F09A         	movff	?___sindf,?_sinf
  1429   0012B4  C052  F09B         	movff	?___sindf+1,?_sinf+1
  1430   0012B8  C053  F09C         	movff	?___sindf+2,?_sinf+2
  1431   0012BC  C054  F09D         	movff	?___sindf+3,?_sinf+3
  1432   0012C0  EFA8  F00A         	goto	l860
  1433   0012C4                     l2620:
  1434                           
  1435                           ; BSR set to: 0
  1436   0012C4  0ED6               	movlw	214
  1437   0012C6  5DB0               	subwf	sinf@ux& (0+255),w,b
  1438   0012C8  0E31               	movlw	49
  1439   0012CA  59B1               	subwfb	(sinf@ux+1)& (0+255),w,b
  1440   0012CC  0EE2               	movlw	226
  1441   0012CE  59B2               	subwfb	(sinf@ux+2)& (0+255),w,b
  1442   0012D0  0E40               	movlw	64
  1443   0012D2  59B3               	subwfb	(sinf@ux+3)& (0+255),w,b
  1444   0012D4  B0D8               	btfsc	status,0,c
  1445   0012D6  EF6F  F009         	goto	u2751
  1446   0012DA  EF71  F009         	goto	u2750
  1447   0012DE                     u2751:
  1448   0012DE  EF12  F00A         	goto	l2650
  1449   0012E2                     u2750:
  1450   0012E2                     
  1451                           ; BSR set to: 0
  1452   0012E2  0EE0               	movlw	224
  1453   0012E4  5DB0               	subwf	sinf@ux& (0+255),w,b
  1454   0012E6  0EED               	movlw	237
  1455   0012E8  59B1               	subwfb	(sinf@ux+1)& (0+255),w,b
  1456   0012EA  0EAF               	movlw	175
  1457   0012EC  59B2               	subwfb	(sinf@ux+2)& (0+255),w,b
  1458   0012EE  0E40               	movlw	64
  1459   0012F0  59B3               	subwfb	(sinf@ux+3)& (0+255),w,b
  1460   0012F2  B0D8               	btfsc	status,0,c
  1461   0012F4  EF7E  F009         	goto	u2761
  1462   0012F8  EF80  F009         	goto	u2760
  1463   0012FC                     u2761:
  1464   0012FC  EFC0  F009         	goto	l2640
  1465   001300                     u2760:
  1466   001300                     
  1467                           ; BSR set to: 0
  1468   001300  51A7               	movf	sinf@sign& (0+255),w,b
  1469   001302  B4D8               	btfsc	status,2,c
  1470   001304  EF86  F009         	goto	u2771
  1471   001308  EF88  F009         	goto	u2770
  1472   00130C                     u2771:
  1473   00130C  EFA4  F009         	goto	l2634
  1474   001310                     u2770:
  1475   001310                     
  1476                           ; BSR set to: 0
  1477   001310  C09A  F041         	movff	sinf@x,___fladd@b
  1478   001314  C09B  F042         	movff	sinf@x+1,___fladd@b+1
  1479   001318  C09C  F043         	movff	sinf@x+2,___fladd@b+2
  1480   00131C  C09D  F044         	movff	sinf@x+3,___fladd@b+3
  1481   001320  0EE4               	movlw	228
  1482   001322  6E45               	movwf	___fladd@a^0,c
  1483   001324  0ECB               	movlw	203
  1484   001326  6E46               	movwf	(___fladd@a+1)^0,c
  1485   001328  0E96               	movlw	150
  1486   00132A  6E47               	movwf	(___fladd@a+2)^0,c
  1487   00132C  0E40               	movlw	64
  1488   00132E  6E48               	movwf	(___fladd@a+3)^0,c
  1489   001330  ECA9  F00A         	call	___fladd	;wreg free
  1490   001334  C041  F0A8         	movff	?___fladd,_sinf$1883
  1491   001338  C042  F0A9         	movff	?___fladd+1,_sinf$1883+1
  1492   00133C  C043  F0AA         	movff	?___fladd+2,_sinf$1883+2
  1493   001340  C044  F0AB         	movff	?___fladd+3,_sinf$1883+3
  1494   001344  EFE8  F008         	goto	l2606
  1495   001348                     l2634:
  1496                           
  1497                           ; BSR set to: 0
  1498   001348  0EE4               	movlw	228
  1499   00134A  6E45               	movwf	___fladd@a^0,c
  1500   00134C  0ECB               	movlw	203
  1501   00134E  6E46               	movwf	(___fladd@a+1)^0,c
  1502   001350  0E96               	movlw	150
  1503   001352  6E47               	movwf	(___fladd@a+2)^0,c
  1504   001354  0EC0               	movlw	192
  1505   001356  6E48               	movwf	(___fladd@a+3)^0,c
  1506   001358  C09A  F041         	movff	sinf@x,___fladd@b
  1507   00135C  C09B  F042         	movff	sinf@x+1,___fladd@b+1
  1508   001360  C09C  F043         	movff	sinf@x+2,___fladd@b+2
  1509   001364  C09D  F044         	movff	sinf@x+3,___fladd@b+3
  1510   001368  ECA9  F00A         	call	___fladd	;wreg free
  1511   00136C  C041  F0A8         	movff	?___fladd,_sinf$1883
  1512   001370  C042  F0A9         	movff	?___fladd+1,_sinf$1883+1
  1513   001374  C043  F0AA         	movff	?___fladd+2,_sinf$1883+2
  1514   001378  C044  F0AB         	movff	?___fladd+3,_sinf$1883+3
  1515   00137C  EFB0  F008         	goto	l2598
  1516   001380                     l2640:
  1517                           
  1518                           ; BSR set to: 0
  1519   001380  51A7               	movf	sinf@sign& (0+255),w,b
  1520   001382  A4D8               	btfss	status,2,c
  1521   001384  EFC6  F009         	goto	u2781
  1522   001388  EFC8  F009         	goto	u2780
  1523   00138C                     u2781:
  1524   00138C  EFE4  F009         	goto	l2644
  1525   001390                     u2780:
  1526   001390                     
  1527                           ; BSR set to: 0
  1528   001390  C09A  F041         	movff	sinf@x,___fladd@b
  1529   001394  C09B  F042         	movff	sinf@x+1,___fladd@b+1
  1530   001398  C09C  F043         	movff	sinf@x+2,___fladd@b+2
  1531   00139C  C09D  F044         	movff	sinf@x+3,___fladd@b+3
  1532   0013A0  0EDB               	movlw	219
  1533   0013A2  6E45               	movwf	___fladd@a^0,c
  1534   0013A4  0E0F               	movlw	15
  1535   0013A6  6E46               	movwf	(___fladd@a+1)^0,c
  1536   0013A8  0EC9               	movlw	201
  1537   0013AA  6E47               	movwf	(___fladd@a+2)^0,c
  1538   0013AC  0EC0               	movlw	192
  1539   0013AE  6E48               	movwf	(___fladd@a+3)^0,c
  1540   0013B0  ECA9  F00A         	call	___fladd	;wreg free
  1541   0013B4  C041  F0A2         	movff	?___fladd,_sinf$1648
  1542   0013B8  C042  F0A3         	movff	?___fladd+1,_sinf$1648+1
  1543   0013BC  C043  F0A4         	movff	?___fladd+2,_sinf$1648+2
  1544   0013C0  C044  F0A5         	movff	?___fladd+3,_sinf$1648+3
  1545   0013C4  EFFE  F009         	goto	l2646
  1546   0013C8                     l2644:
  1547                           
  1548                           ; BSR set to: 0
  1549   0013C8  C09A  F041         	movff	sinf@x,___fladd@b
  1550   0013CC  C09B  F042         	movff	sinf@x+1,___fladd@b+1
  1551   0013D0  C09C  F043         	movff	sinf@x+2,___fladd@b+2
  1552   0013D4  C09D  F044         	movff	sinf@x+3,___fladd@b+3
  1553   0013D8  0EDB               	movlw	219
  1554   0013DA  6E45               	movwf	___fladd@a^0,c
  1555   0013DC  0E0F               	movlw	15
  1556   0013DE  6E46               	movwf	(___fladd@a+1)^0,c
  1557   0013E0  0EC9               	movlw	201
  1558   0013E2  6E47               	movwf	(___fladd@a+2)^0,c
  1559   0013E4  0E40               	movlw	64
  1560   0013E6  6E48               	movwf	(___fladd@a+3)^0,c
  1561   0013E8  ECA9  F00A         	call	___fladd	;wreg free
  1562   0013EC  C041  F0A2         	movff	?___fladd,_sinf$1648
  1563   0013F0  C042  F0A3         	movff	?___fladd+1,_sinf$1648+1
  1564   0013F4  C043  F0A4         	movff	?___fladd+2,_sinf$1648+2
  1565   0013F8  C044  F0A5         	movff	?___fladd+3,_sinf$1648+3
  1566   0013FC                     l2646:
  1567   0013FC  C0A2  F051         	movff	_sinf$1648,___sindf@x
  1568   001400  C0A3  F052         	movff	_sinf$1648+1,___sindf@x+1
  1569   001404  C0A4  F053         	movff	_sinf$1648+2,___sindf@x+2
  1570   001408  C0A5  F054         	movff	_sinf$1648+3,___sindf@x+3
  1571   00140C  EC25  F014         	call	___sindf	;wreg free
  1572   001410  C051  F09A         	movff	?___sindf,?_sinf
  1573   001414  C052  F09B         	movff	?___sindf+1,?_sinf+1
  1574   001418  C053  F09C         	movff	?___sindf+2,?_sinf+2
  1575   00141C  C054  F09D         	movff	?___sindf+3,?_sinf+3
  1576   001420  EFA8  F00A         	goto	l860
  1577   001424                     l2650:
  1578                           
  1579                           ; BSR set to: 0
  1580   001424  0E80               	movlw	128
  1581   001426  5DB2               	subwf	(sinf@ux+2)& (0+255),w,b
  1582   001428  0E7F               	movlw	127
  1583   00142A  59B3               	subwfb	(sinf@ux+3)& (0+255),w,b
  1584   00142C  A0D8               	btfss	status,0,c
  1585   00142E  EF1B  F00A         	goto	u2791
  1586   001432  EF1D  F00A         	goto	u2790
  1587   001436                     u2791:
  1588   001436  EF2F  F00A         	goto	l2658
  1589   00143A                     u2790:
  1590   00143A                     
  1591                           ; BSR set to: 0
  1592   00143A  0EFF               	movlw	255
  1593   00143C  13B0               	iorwf	sinf@ux& (0+255),f,b
  1594   00143E  0EFF               	movlw	255
  1595   001440  13B1               	iorwf	(sinf@ux+1)& (0+255),f,b
  1596   001442  0EFF               	movlw	255
  1597   001444  13B2               	iorwf	(sinf@ux+2)& (0+255),f,b
  1598   001446  0E00               	movlw	0
  1599   001448  13B3               	iorwf	(sinf@ux+3)& (0+255),f,b
  1600   00144A                     
  1601                           ; BSR set to: 0
  1602   00144A  C0B0  F09A         	movff	sinf@ux,?_sinf
  1603   00144E  C0B1  F09B         	movff	sinf@ux+1,?_sinf+1
  1604   001452  C0B2  F09C         	movff	sinf@ux+2,?_sinf+2
  1605   001456  C0B3  F09D         	movff	sinf@ux+3,?_sinf+3
  1606   00145A  EFA8  F00A         	goto	l860
  1607   00145E                     l2658:
  1608                           
  1609                           ; BSR set to: 0
  1610   00145E  C09A  F07C         	movff	sinf@x,___rem_pio2f@x
  1611   001462  C09B  F07D         	movff	sinf@x+1,___rem_pio2f@x+1
  1612   001466  C09C  F07E         	movff	sinf@x+2,___rem_pio2f@x+2
  1613   00146A  C09D  F07F         	movff	sinf@x+3,___rem_pio2f@x+3
  1614   00146E  0EAC               	movlw	low sinf@y
  1615   001470  6F80               	movwf	___rem_pio2f@y& (0+255),b
  1616   001472  EC1E  F00F         	call	___rem_pio2f	;wreg free
  1617   001476  0100               	movlb	0	; () banked
  1618   001478  517C               	movf	?___rem_pio2f& (0+255),w,b
  1619   00147A  0B03               	andlw	3
  1620   00147C  6FA6               	movwf	sinf@n& (0+255),b
  1621   00147E  EF99  F00A         	goto	l2676
  1622   001482                     l2660:
  1623                           
  1624                           ; BSR set to: 0
  1625   001482  C0AC  F078         	movff	sinf@y,___flneg@f1
  1626   001486  C0AD  F079         	movff	sinf@y+1,___flneg@f1+1
  1627   00148A  C0AE  F07A         	movff	sinf@y+2,___flneg@f1+2
  1628   00148E  C0AF  F07B         	movff	sinf@y+3,___flneg@f1+3
  1629   001492  ECFD  F019         	call	___flneg	;wreg free
  1630   001496  C078  F0AC         	movff	?___flneg,sinf@y
  1631   00149A  C079  F0AD         	movff	?___flneg+1,sinf@y+1
  1632   00149E  C07A  F0AE         	movff	?___flneg+2,sinf@y+2
  1633   0014A2  C07B  F0AF         	movff	?___flneg+3,sinf@y+3
  1634   0014A6                     l2662:
  1635   0014A6  C0AC  F051         	movff	sinf@y,___sindf@x
  1636   0014AA  C0AD  F052         	movff	sinf@y+1,___sindf@x+1
  1637   0014AE  C0AE  F053         	movff	sinf@y+2,___sindf@x+2
  1638   0014B2  C0AF  F054         	movff	sinf@y+3,___sindf@x+3
  1639   0014B6  EC25  F014         	call	___sindf	;wreg free
  1640   0014BA  C051  F09A         	movff	?___sindf,?_sinf
  1641   0014BE  C052  F09B         	movff	?___sindf+1,?_sinf+1
  1642   0014C2  C053  F09C         	movff	?___sindf+2,?_sinf+2
  1643   0014C6  C054  F09D         	movff	?___sindf+3,?_sinf+3
  1644   0014CA  EFA8  F00A         	goto	l860
  1645   0014CE                     l2666:
  1646                           
  1647                           ; BSR set to: 0
  1648   0014CE  C0AC  F051         	movff	sinf@y,___cosdf@x
  1649   0014D2  C0AD  F052         	movff	sinf@y+1,___cosdf@x+1
  1650   0014D6  C0AE  F053         	movff	sinf@y+2,___cosdf@x+2
  1651   0014DA  C0AF  F054         	movff	sinf@y+3,___cosdf@x+3
  1652   0014DE  EC3E  F015         	call	___cosdf	;wreg free
  1653   0014E2  C051  F09A         	movff	?___cosdf,?_sinf
  1654   0014E6  C052  F09B         	movff	?___cosdf+1,?_sinf+1
  1655   0014EA  C053  F09C         	movff	?___cosdf+2,?_sinf+2
  1656   0014EE  C054  F09D         	movff	?___cosdf+3,?_sinf+3
  1657   0014F2  EFA8  F00A         	goto	l860
  1658   0014F6                     l2670:
  1659                           
  1660                           ; BSR set to: 0
  1661   0014F6  C0AC  F051         	movff	sinf@y,___cosdf@x
  1662   0014FA  C0AD  F052         	movff	sinf@y+1,___cosdf@x+1
  1663   0014FE  C0AE  F053         	movff	sinf@y+2,___cosdf@x+2
  1664   001502  C0AF  F054         	movff	sinf@y+3,___cosdf@x+3
  1665   001506  EC3E  F015         	call	___cosdf	;wreg free
  1666   00150A  C051  F078         	movff	?___cosdf,___flneg@f1
  1667   00150E  C052  F079         	movff	?___cosdf+1,___flneg@f1+1
  1668   001512  C053  F07A         	movff	?___cosdf+2,___flneg@f1+2
  1669   001516  C054  F07B         	movff	?___cosdf+3,___flneg@f1+3
  1670   00151A  ECFD  F019         	call	___flneg	;wreg free
  1671   00151E  C078  F09A         	movff	?___flneg,?_sinf
  1672   001522  C079  F09B         	movff	?___flneg+1,?_sinf+1
  1673   001526  C07A  F09C         	movff	?___flneg+2,?_sinf+2
  1674   00152A  C07B  F09D         	movff	?___flneg+3,?_sinf+3
  1675   00152E  EFA8  F00A         	goto	l860
  1676   001532                     l2676:
  1677                           
  1678                           ; BSR set to: 0
  1679   001532  51A6               	movf	sinf@n& (0+255),w,b
  1680                           
  1681                           ; Switch size 1, requested type "simple"
  1682                           ; Number of cases is 3, Range of values is 0 to 2
  1683                           ; switch strategies available:
  1684                           ; Name         Instructions Cycles
  1685                           ; simple_byte           10     6 (average)
  1686                           ;	Chosen strategy is simple_byte
  1687   001534  0A00               	xorlw	0	; case 0
  1688   001536  B4D8               	btfsc	status,2,c
  1689   001538  EF53  F00A         	goto	l2662
  1690   00153C  0A01               	xorlw	1	; case 1
  1691   00153E  B4D8               	btfsc	status,2,c
  1692   001540  EF67  F00A         	goto	l2666
  1693   001544  0A03               	xorlw	3	; case 2
  1694   001546  B4D8               	btfsc	status,2,c
  1695   001548  EF41  F00A         	goto	l2660
  1696   00154C  EF7B  F00A         	goto	l2670
  1697   001550                     l860:
  1698   001550  0012               	return		;funcret
  1699   001552                     __end_of_sinf:
  1700                           	callstack 0
  1701                           
  1702 ;; *************** function ___sindf *****************
  1703 ;; Defined at:
  1704 ;;		line 26 in file "C:\Program Files\Microchip\xc8\v2.46\pic\sources\c99\common\__sindf.c"
  1705 ;; Parameters:    Size  Location     Type
  1706 ;;  x               4   80[COMRAM] float 
  1707 ;; Auto vars:     Size  Location     Type
  1708 ;;  z               4   24[BANK0 ] float 
  1709 ;;  s               4   20[BANK0 ] float 
  1710 ;;  w               4    4[BANK0 ] float 
  1711 ;;  r               4    0[BANK0 ] float 
  1712 ;; Return value:  Size  Location     Type
  1713 ;;                  4   80[COMRAM] float 
  1714 ;; Registers used:
  1715 ;;		wreg, status,2, status,0, prodl, prodh, cstack
  1716 ;; Tracked objects:
  1717 ;;		On entry : 0/0
  1718 ;;		On exit  : 0/0
  1719 ;;		Unchanged: 0/0
  1720 ;; Data sizes:     COMRAM   BANK0   BANK1   BANK2   BANK3   BANK4   BANK5   BANK6   BANK7   BANK8   BANK9  BANK10  BANK1
      +1  BANK12  BANK13  BANK14  BANK15
  1721 ;;      Params:         4       0       0       0       0       0       0       0       0       0       0       0       
      +0       0       0       0       0
  1722 ;;      Locals:         0      28       0       0       0       0       0       0       0       0       0       0       
      +0       0       0       0       0
  1723 ;;      Temps:          0       0       0       0       0       0       0       0       0       0       0       0       
      +0       0       0       0       0
  1724 ;;      Totals:         4      28       0       0       0       0       0       0       0       0       0       0       
      +0       0       0       0       0
  1725 ;;Total ram usage:       32 bytes
  1726 ;; Hardware stack levels used: 1
  1727 ;; Hardware stack levels required when called: 1
  1728 ;; This function calls:
  1729 ;;		___fladd
  1730 ;;		___flmul
  1731 ;; This function is called by:
  1732 ;;		_sinf
  1733 ;; This function uses a non-reentrant model
  1734 ;;
  1735                           
  1736                           	psect	text2
  1737   00284A                     __ptext2:
  1738                           	callstack 0
  1739   00284A                     ___sindf:
  1740                           	callstack 28
  1741   00284A  C051  F00F         	movff	___sindf@x,___flmul@b
  1742   00284E  C052  F010         	movff	___sindf@x+1,___flmul@b+1
  1743   002852  C053  F011         	movff	___sindf@x+2,___flmul@b+2
  1744   002856  C054  F012         	movff	___sindf@x+3,___flmul@b+3
  1745   00285A  C051  F013         	movff	___sindf@x,___flmul@a
  1746   00285E  C052  F014         	movff	___sindf@x+1,___flmul@a+1
  1747   002862  C053  F015         	movff	___sindf@x+2,___flmul@a+2
  1748   002866  C054  F016         	movff	___sindf@x+3,___flmul@a+3
  1749   00286A  EC09  F00D         	call	___flmul	;wreg free
  1750   00286E  C00F  F078         	movff	?___flmul,___sindf@z
  1751   002872  C010  F079         	movff	?___flmul+1,___sindf@z+1
  1752   002876  C011  F07A         	movff	?___flmul+2,___sindf@z+2
  1753   00287A  C012  F07B         	movff	?___flmul+3,___sindf@z+3
  1754   00287E  C078  F00F         	movff	___sindf@z,___flmul@b
  1755   002882  C079  F010         	movff	___sindf@z+1,___flmul@b+1
  1756   002886  C07A  F011         	movff	___sindf@z+2,___flmul@b+2
  1757   00288A  C07B  F012         	movff	___sindf@z+3,___flmul@b+3
  1758   00288E  C078  F013         	movff	___sindf@z,___flmul@a
  1759   002892  C079  F014         	movff	___sindf@z+1,___flmul@a+1
  1760   002896  C07A  F015         	movff	___sindf@z+2,___flmul@a+2
  1761   00289A  C07B  F016         	movff	___sindf@z+3,___flmul@a+3
  1762   00289E  EC09  F00D         	call	___flmul	;wreg free
  1763   0028A2  C00F  F064         	movff	?___flmul,___sindf@w
  1764   0028A6  C010  F065         	movff	?___flmul+1,___sindf@w+1
  1765   0028AA  C011  F066         	movff	?___flmul+2,___sindf@w+2
  1766   0028AE  C012  F067         	movff	?___flmul+3,___sindf@w+3
  1767   0028B2  0E3C               	movlw	60
  1768   0028B4  6E13               	movwf	___flmul@a^0,c
  1769   0028B6  0E6C               	movlw	108
  1770   0028B8  6E14               	movwf	(___flmul@a+1)^0,c
  1771   0028BA  0E36               	movlw	54
  1772   0028BC  6E15               	movwf	(___flmul@a+2)^0,c
  1773   0028BE  0E36               	movlw	54
  1774   0028C0  6E16               	movwf	(___flmul@a+3)^0,c
  1775   0028C2  C078  F00F         	movff	___sindf@z,___flmul@b
  1776   0028C6  C079  F010         	movff	___sindf@z+1,___flmul@b+1
  1777   0028CA  C07A  F011         	movff	___sindf@z+2,___flmul@b+2
  1778   0028CE  C07B  F012         	movff	___sindf@z+3,___flmul@b+3
  1779   0028D2  EC09  F00D         	call	___flmul	;wreg free
  1780   0028D6  C00F  F041         	movff	?___flmul,___fladd@b
  1781   0028DA  C010  F042         	movff	?___flmul+1,___fladd@b+1
  1782   0028DE  C011  F043         	movff	?___flmul+2,___fladd@b+2
  1783   0028E2  C012  F044         	movff	?___flmul+3,___fladd@b+3
  1784   0028E6  0ECF               	movlw	207
  1785   0028E8  6E45               	movwf	___fladd@a^0,c
  1786   0028EA  0E07               	movlw	7
  1787   0028EC  6E46               	movwf	(___fladd@a+1)^0,c
  1788   0028EE  0E50               	movlw	80
  1789   0028F0  6E47               	movwf	(___fladd@a+2)^0,c
  1790   0028F2  0EB9               	movlw	185
  1791   0028F4  6E48               	movwf	(___fladd@a+3)^0,c
  1792   0028F6  ECA9  F00A         	call	___fladd	;wreg free
  1793   0028FA  C041  F060         	movff	?___fladd,___sindf@r
  1794   0028FE  C042  F061         	movff	?___fladd+1,___sindf@r+1
  1795   002902  C043  F062         	movff	?___fladd+2,___sindf@r+2
  1796   002906  C044  F063         	movff	?___fladd+3,___sindf@r+3
  1797   00290A  C078  F00F         	movff	___sindf@z,___flmul@b
  1798   00290E  C079  F010         	movff	___sindf@z+1,___flmul@b+1
  1799   002912  C07A  F011         	movff	___sindf@z+2,___flmul@b+2
  1800   002916  C07B  F012         	movff	___sindf@z+3,___flmul@b+3
  1801   00291A  C051  F013         	movff	___sindf@x,___flmul@a
  1802   00291E  C052  F014         	movff	___sindf@x+1,___flmul@a+1
  1803   002922  C053  F015         	movff	___sindf@x+2,___flmul@a+2
  1804   002926  C054  F016         	movff	___sindf@x+3,___flmul@a+3
  1805   00292A  EC09  F00D         	call	___flmul	;wreg free
  1806   00292E  C00F  F074         	movff	?___flmul,___sindf@s
  1807   002932  C010  F075         	movff	?___flmul+1,___sindf@s+1
  1808   002936  C011  F076         	movff	?___flmul+2,___sindf@s+2
  1809   00293A  C012  F077         	movff	?___flmul+3,___sindf@s+3
  1810   00293E  0EAB               	movlw	171
  1811   002940  6E45               	movwf	___fladd@a^0,c
  1812   002942  0EAA               	movlw	170
  1813   002944  6E46               	movwf	(___fladd@a+1)^0,c
  1814   002946  0E2A               	movlw	42
  1815   002948  6E47               	movwf	(___fladd@a+2)^0,c
  1816   00294A  0EBE               	movlw	190
  1817   00294C  6E48               	movwf	(___fladd@a+3)^0,c
  1818   00294E  0E84               	movlw	132
  1819   002950  6E13               	movwf	___flmul@a^0,c
  1820   002952  0E88               	movlw	136
  1821   002954  6E14               	movwf	(___flmul@a+1)^0,c
  1822   002956  0E08               	movlw	8
  1823   002958  6E15               	movwf	(___flmul@a+2)^0,c
  1824   00295A  0E3C               	movlw	60
  1825   00295C  6E16               	movwf	(___flmul@a+3)^0,c
  1826   00295E  C078  F00F         	movff	___sindf@z,___flmul@b
  1827   002962  C079  F010         	movff	___sindf@z+1,___flmul@b+1
  1828   002966  C07A  F011         	movff	___sindf@z+2,___flmul@b+2
  1829   00296A  C07B  F012         	movff	___sindf@z+3,___flmul@b+3
  1830   00296E  EC09  F00D         	call	___flmul	;wreg free
  1831   002972  C00F  F041         	movff	?___flmul,___fladd@b
  1832   002976  C010  F042         	movff	?___flmul+1,___fladd@b+1
  1833   00297A  C011  F043         	movff	?___flmul+2,___fladd@b+2
  1834   00297E  C012  F044         	movff	?___flmul+3,___fladd@b+3
  1835   002982  ECA9  F00A         	call	___fladd	;wreg free
  1836   002986  C041  F068         	movff	?___fladd,___sindf$1888
  1837   00298A  C042  F069         	movff	?___fladd+1,___sindf$1888+1
  1838   00298E  C043  F06A         	movff	?___fladd+2,___sindf$1888+2
  1839   002992  C044  F06B         	movff	?___fladd+3,___sindf$1888+3
  1840   002996  C064  F013         	movff	___sindf@w,___flmul@a
  1841   00299A  C065  F014         	movff	___sindf@w+1,___flmul@a+1
  1842   00299E  C066  F015         	movff	___sindf@w+2,___flmul@a+2
  1843   0029A2  C067  F016         	movff	___sindf@w+3,___flmul@a+3
  1844   0029A6  C074  F00F         	movff	___sindf@s,___flmul@b
  1845   0029AA  C075  F010         	movff	___sindf@s+1,___flmul@b+1
  1846   0029AE  C076  F011         	movff	___sindf@s+2,___flmul@b+2
  1847   0029B2  C077  F012         	movff	___sindf@s+3,___flmul@b+3
  1848   0029B6  EC09  F00D         	call	___flmul	;wreg free
  1849   0029BA  C00F  F06C         	movff	?___flmul,___sindf$1889
  1850   0029BE  C010  F06D         	movff	?___flmul+1,___sindf$1889+1
  1851   0029C2  C011  F06E         	movff	?___flmul+2,___sindf$1889+2
  1852   0029C6  C012  F06F         	movff	?___flmul+3,___sindf$1889+3
  1853   0029CA  C051  F045         	movff	___sindf@x,___fladd@a
  1854   0029CE  C052  F046         	movff	___sindf@x+1,___fladd@a+1
  1855   0029D2  C053  F047         	movff	___sindf@x+2,___fladd@a+2
  1856   0029D6  C054  F048         	movff	___sindf@x+3,___fladd@a+3
  1857   0029DA  C074  F013         	movff	___sindf@s,___flmul@a
  1858   0029DE  C075  F014         	movff	___sindf@s+1,___flmul@a+1
  1859   0029E2  C076  F015         	movff	___sindf@s+2,___flmul@a+2
  1860   0029E6  C077  F016         	movff	___sindf@s+3,___flmul@a+3
  1861   0029EA  C068  F00F         	movff	___sindf$1888,___flmul@b
  1862   0029EE  C069  F010         	movff	___sindf$1888+1,___flmul@b+1
  1863   0029F2  C06A  F011         	movff	___sindf$1888+2,___flmul@b+2
  1864   0029F6  C06B  F012         	movff	___sindf$1888+3,___flmul@b+3
  1865   0029FA  EC09  F00D         	call	___flmul	;wreg free
  1866   0029FE  C00F  F041         	movff	?___flmul,___fladd@b
  1867   002A02  C010  F042         	movff	?___flmul+1,___fladd@b+1
  1868   002A06  C011  F043         	movff	?___flmul+2,___fladd@b+2
  1869   002A0A  C012  F044         	movff	?___flmul+3,___fladd@b+3
  1870   002A0E  ECA9  F00A         	call	___fladd	;wreg free
  1871   002A12  C041  F070         	movff	?___fladd,___sindf$1890
  1872   002A16  C042  F071         	movff	?___fladd+1,___sindf$1890+1
  1873   002A1A  C043  F072         	movff	?___fladd+2,___sindf$1890+2
  1874   002A1E  C044  F073         	movff	?___fladd+3,___sindf$1890+3
  1875   002A22  C070  F041         	movff	___sindf$1890,___fladd@b
  1876   002A26  C071  F042         	movff	___sindf$1890+1,___fladd@b+1
  1877   002A2A  C072  F043         	movff	___sindf$1890+2,___fladd@b+2
  1878   002A2E  C073  F044         	movff	___sindf$1890+3,___fladd@b+3
  1879   002A32  C060  F013         	movff	___sindf@r,___flmul@a
  1880   002A36  C061  F014         	movff	___sindf@r+1,___flmul@a+1
  1881   002A3A  C062  F015         	movff	___sindf@r+2,___flmul@a+2
  1882   002A3E  C063  F016         	movff	___sindf@r+3,___flmul@a+3
  1883   002A42  C06C  F00F         	movff	___sindf$1889,___flmul@b
  1884   002A46  C06D  F010         	movff	___sindf$1889+1,___flmul@b+1
  1885   002A4A  C06E  F011         	movff	___sindf$1889+2,___flmul@b+2
  1886   002A4E  C06F  F012         	movff	___sindf$1889+3,___flmul@b+3
  1887   002A52  EC09  F00D         	call	___flmul	;wreg free
  1888   002A56  C00F  F045         	movff	?___flmul,___fladd@a
  1889   002A5A  C010  F046         	movff	?___flmul+1,___fladd@a+1
  1890   002A5E  C011  F047         	movff	?___flmul+2,___fladd@a+2
  1891   002A62  C012  F048         	movff	?___flmul+3,___fladd@a+3
  1892   002A66  ECA9  F00A         	call	___fladd	;wreg free
  1893   002A6A  C041  F051         	movff	?___fladd,?___sindf
  1894   002A6E  C042  F052         	movff	?___fladd+1,?___sindf+1
  1895   002A72  C043  F053         	movff	?___fladd+2,?___sindf+2
  1896   002A76  C044  F054         	movff	?___fladd+3,?___sindf+3
  1897   002A7A  0012               	return		;funcret
  1898   002A7C                     __end_of___sindf:
  1899                           	callstack 0
  1900                           
  1901 ;; *************** function ___rem_pio2f *****************
  1902 ;; Defined at:
  1903 ;;		line 44 in file "C:\Program Files\Microchip\xc8\v2.46\pic\sources\c99\common\__rem_pio2f.c"
  1904 ;; Parameters:    Size  Location     Type
  1905 ;;  x               4   28[BANK0 ] float 
  1906 ;;  y               1   32[BANK0 ] PTR 
  1907 ;;		 -> sinf@y(4), 
  1908 ;; Auto vars:     Size  Location     Type
  1909 ;;  n               4   54[BANK0 ] long 
  1910 ;;  t               4   50[BANK0 ] float 
  1911 ;;  fn              4   46[BANK0 ] float 
  1912 ;;  ux              4   42[BANK0 ] struct .
  1913 ;;  ty              4   33[BANK0 ] [1]
  1914 ;;  sign            1   41[BANK0 ] _Bool 
  1915 ;; Return value:  Size  Location     Type
  1916 ;;                  2   28[BANK0 ] int 
  1917 ;; Registers used:
  1918 ;;		wreg, fsr2l, fsr2h, status,2, status,0, prodl, prodh, cstack
  1919 ;; Tracked objects:
  1920 ;;		On entry : 0/0
  1921 ;;		On exit  : 0/0
  1922 ;;		Unchanged: 0/0
  1923 ;; Data sizes:     COMRAM   BANK0   BANK1   BANK2   BANK3   BANK4   BANK5   BANK6   BANK7   BANK8   BANK9  BANK10  BANK1
      +1  BANK12  BANK13  BANK14  BANK15
  1924 ;;      Params:         0       5       0       0       0       0       0       0       0       0       0       0       
      +0       0       0       0       0
  1925 ;;      Locals:         0      25       0       0       0       0       0       0       0       0       0       0       
      +0       0       0       0       0
  1926 ;;      Temps:          2       0       0       0       0       0       0       0       0       0       0       0       
      +0       0       0       0       0
  1927 ;;      Totals:         2      30       0       0       0       0       0       0       0       0       0       0       
      +0       0       0       0       0
  1928 ;;Total ram usage:       32 bytes
  1929 ;; Hardware stack levels used: 1
  1930 ;; Hardware stack levels required when called: 2
  1931 ;; This function calls:
  1932 ;;		___fladd
  1933 ;;		___flmul
  1934 ;;		___flneg
  1935 ;;		___flsub
  1936 ;;		___fltol
  1937 ;;		___xxtofl
  1938 ;;		_fabsf
  1939 ;; This function is called by:
  1940 ;;		_sinf
  1941 ;; This function uses a non-reentrant model
  1942 ;;
  1943                           
  1944                           	psect	text3
  1945   001E3C                     __ptext3:
  1946                           	callstack 0
  1947   001E3C                     ___rem_pio2f:
  1948                           	callstack 27
  1949   001E3C  C0E2  F08A         	movff	___rem_pio2f@F526,___rem_pio2f@ux
  1950   001E40  C0E3  F08B         	movff	___rem_pio2f@F526+1,___rem_pio2f@ux+1
  1951   001E44  C0E4  F08C         	movff	___rem_pio2f@F526+2,___rem_pio2f@ux+2
  1952   001E48  C0E5  F08D         	movff	___rem_pio2f@F526+3,___rem_pio2f@ux+3
  1953   001E4C  C07C  F08A         	movff	___rem_pio2f@x,___rem_pio2f@ux
  1954   001E50  C07D  F08B         	movff	___rem_pio2f@x+1,___rem_pio2f@ux+1
  1955   001E54  C07E  F08C         	movff	___rem_pio2f@x+2,___rem_pio2f@ux+2
  1956   001E58  C07F  F08D         	movff	___rem_pio2f@x+3,___rem_pio2f@ux+3
  1957   001E5C  0100               	movlb	0	; () banked
  1958   001E5E  BF8D               	btfsc	(___rem_pio2f@ux+3)& (0+255),7,b
  1959   001E60  EF34  F00F         	goto	u2601
  1960   001E64  EF37  F00F         	goto	u2600
  1961   001E68                     u2601:
  1962   001E68  0E01               	movlw	1
  1963   001E6A  EF38  F00F         	goto	u2610
  1964   001E6E                     u2600:
  1965   001E6E  0E00               	movlw	0
  1966   001E70                     u2610:
  1967   001E70  6F89               	movwf	___rem_pio2f@sign& (0+255),b
  1968   001E72                     
  1969                           ; BSR set to: 0
  1970   001E72  9F8D               	bcf	(___rem_pio2f@ux+3)& (0+255),7,b
  1971   001E74                     
  1972                           ; BSR set to: 0
  1973   001E74  0EDB               	movlw	219
  1974   001E76  5D8A               	subwf	___rem_pio2f@ux& (0+255),w,b
  1975   001E78  0E0F               	movlw	15
  1976   001E7A  598B               	subwfb	(___rem_pio2f@ux+1)& (0+255),w,b
  1977   001E7C  0EC9               	movlw	201
  1978   001E7E  598C               	subwfb	(___rem_pio2f@ux+2)& (0+255),w,b
  1979   001E80  0E4D               	movlw	77
  1980   001E82  598D               	subwfb	(___rem_pio2f@ux+3)& (0+255),w,b
  1981   001E84  B0D8               	btfsc	status,0,c
  1982   001E86  EF47  F00F         	goto	u2621
  1983   001E8A  EF49  F00F         	goto	u2620
  1984   001E8E                     u2621:
  1985   001E8E  EF35  F010         	goto	l2548
  1986   001E92                     u2620:
  1987   001E92                     
  1988                           ; BSR set to: 0
  1989   001E92  C07C  F001         	movff	___rem_pio2f@x,fabsf@x
  1990   001E96  C07D  F002         	movff	___rem_pio2f@x+1,fabsf@x+1
  1991   001E9A  C07E  F003         	movff	___rem_pio2f@x+2,fabsf@x+2
  1992   001E9E  C07F  F004         	movff	___rem_pio2f@x+3,fabsf@x+3
  1993   001EA2  EC1A  F01A         	call	_fabsf	;wreg free
  1994   001EA6  C001  F092         	movff	?_fabsf,___rem_pio2f@t
  1995   001EAA  C002  F093         	movff	?_fabsf+1,___rem_pio2f@t+1
  1996   001EAE  C003  F094         	movff	?_fabsf+2,___rem_pio2f@t+2
  1997   001EB2  C004  F095         	movff	?_fabsf+3,___rem_pio2f@t+3
  1998   001EB6  0E00               	movlw	0
  1999   001EB8  6E45               	movwf	___fladd@a^0,c
  2000   001EBA  0E00               	movlw	0
  2001   001EBC  6E46               	movwf	(___fladd@a+1)^0,c
  2002   001EBE  0E00               	movlw	0
  2003   001EC0  6E47               	movwf	(___fladd@a+2)^0,c
  2004   001EC2  0E3F               	movlw	63
  2005   001EC4  6E48               	movwf	(___fladd@a+3)^0,c
  2006   001EC6  0E83               	movlw	131
  2007   001EC8  6E13               	movwf	___flmul@a^0,c
  2008   001ECA  0EF9               	movlw	249
  2009   001ECC  6E14               	movwf	(___flmul@a+1)^0,c
  2010   001ECE  0E22               	movlw	34
  2011   001ED0  6E15               	movwf	(___flmul@a+2)^0,c
  2012   001ED2  0E3F               	movlw	63
  2013   001ED4  6E16               	movwf	(___flmul@a+3)^0,c
  2014   001ED6  C092  F00F         	movff	___rem_pio2f@t,___flmul@b
  2015   001EDA  C093  F010         	movff	___rem_pio2f@t+1,___flmul@b+1
  2016   001EDE  C094  F011         	movff	___rem_pio2f@t+2,___flmul@b+2
  2017   001EE2  C095  F012         	movff	___rem_pio2f@t+3,___flmul@b+3
  2018   001EE6  EC09  F00D         	call	___flmul	;wreg free
  2019   001EEA  C00F  F041         	movff	?___flmul,___fladd@b
  2020   001EEE  C010  F042         	movff	?___flmul+1,___fladd@b+1
  2021   001EF2  C011  F043         	movff	?___flmul+2,___fladd@b+2
  2022   001EF6  C012  F044         	movff	?___flmul+3,___fladd@b+3
  2023   001EFA  ECA9  F00A         	call	___fladd	;wreg free
  2024   001EFE  C041  F051         	movff	?___fladd,___fltol@f1
  2025   001F02  C042  F052         	movff	?___fladd+1,___fltol@f1+1
  2026   001F06  C043  F053         	movff	?___fladd+2,___fltol@f1+2
  2027   001F0A  C044  F054         	movff	?___fladd+3,___fltol@f1+3
  2028   001F0E  ECF8  F017         	call	___fltol	;wreg free
  2029   001F12  C051  F096         	movff	?___fltol,___rem_pio2f@n
  2030   001F16  C052  F097         	movff	?___fltol+1,___rem_pio2f@n+1
  2031   001F1A  C053  F098         	movff	?___fltol+2,___rem_pio2f@n+2
  2032   001F1E  C054  F099         	movff	?___fltol+3,___rem_pio2f@n+3
  2033   001F22  C096  F001         	movff	___rem_pio2f@n,___xxtofl@val
  2034   001F26  C097  F002         	movff	___rem_pio2f@n+1,___xxtofl@val+1
  2035   001F2A  C098  F003         	movff	___rem_pio2f@n+2,___xxtofl@val+2
  2036   001F2E  C099  F004         	movff	___rem_pio2f@n+3,___xxtofl@val+3
  2037   001F32  0E01               	movlw	1
  2038   001F34  EC1E  F017         	call	___xxtofl
  2039   001F38  C001  F08E         	movff	?___xxtofl,___rem_pio2f@fn
  2040   001F3C  C002  F08F         	movff	?___xxtofl+1,___rem_pio2f@fn+1
  2041   001F40  C003  F090         	movff	?___xxtofl+2,___rem_pio2f@fn+2
  2042   001F44  C004  F091         	movff	?___xxtofl+3,___rem_pio2f@fn+3
  2043   001F48  0EDA               	movlw	218
  2044   001F4A  6E13               	movwf	___flmul@a^0,c
  2045   001F4C  0E0F               	movlw	15
  2046   001F4E  6E14               	movwf	(___flmul@a+1)^0,c
  2047   001F50  0EC9               	movlw	201
  2048   001F52  6E15               	movwf	(___flmul@a+2)^0,c
  2049   001F54  0E3F               	movlw	63
  2050   001F56  6E16               	movwf	(___flmul@a+3)^0,c
  2051   001F58  C08E  F00F         	movff	___rem_pio2f@fn,___flmul@b
  2052   001F5C  C08F  F010         	movff	___rem_pio2f@fn+1,___flmul@b+1
  2053   001F60  C090  F011         	movff	___rem_pio2f@fn+2,___flmul@b+2
  2054   001F64  C091  F012         	movff	___rem_pio2f@fn+3,___flmul@b+3
  2055   001F68  EC09  F00D         	call	___flmul	;wreg free
  2056   001F6C  C00F  F055         	movff	?___flmul,___flsub@a
  2057   001F70  C010  F056         	movff	?___flmul+1,___flsub@a+1
  2058   001F74  C011  F057         	movff	?___flmul+2,___flsub@a+2
  2059   001F78  C012  F058         	movff	?___flmul+3,___flsub@a+3
  2060   001F7C  C092  F051         	movff	___rem_pio2f@t,___flsub@b
  2061   001F80  C093  F052         	movff	___rem_pio2f@t+1,___flsub@b+1
  2062   001F84  C094  F053         	movff	___rem_pio2f@t+2,___flsub@b+2
  2063   001F88  C095  F054         	movff	___rem_pio2f@t+3,___flsub@b+3
  2064   001F8C  EC9A  F019         	call	___flsub	;wreg free
  2065   001F90  C051  F085         	movff	?___flsub,___rem_pio2f$1887
  2066   001F94  C052  F086         	movff	?___flsub+1,___rem_pio2f$1887+1
  2067   001F98  C053  F087         	movff	?___flsub+2,___rem_pio2f$1887+2
  2068   001F9C  C054  F088         	movff	?___flsub+3,___rem_pio2f$1887+3
  2069   001FA0  C085  F051         	movff	___rem_pio2f$1887,___flsub@b
  2070   001FA4  C086  F052         	movff	___rem_pio2f$1887+1,___flsub@b+1
  2071   001FA8  C087  F053         	movff	___rem_pio2f$1887+2,___flsub@b+2
  2072   001FAC  C088  F054         	movff	___rem_pio2f$1887+3,___flsub@b+3
  2073   001FB0  0EA3               	movlw	163
  2074   001FB2  6E13               	movwf	___flmul@a^0,c
  2075   001FB4  0E85               	movlw	133
  2076   001FB6  6E14               	movwf	(___flmul@a+1)^0,c
  2077   001FB8  0E88               	movlw	136
  2078   001FBA  6E15               	movwf	(___flmul@a+2)^0,c
  2079   001FBC  0E32               	movlw	50
  2080   001FBE  6E16               	movwf	(___flmul@a+3)^0,c
  2081   001FC0  C08E  F00F         	movff	___rem_pio2f@fn,___flmul@b
  2082   001FC4  C08F  F010         	movff	___rem_pio2f@fn+1,___flmul@b+1
  2083   001FC8  C090  F011         	movff	___rem_pio2f@fn+2,___flmul@b+2
  2084   001FCC  C091  F012         	movff	___rem_pio2f@fn+3,___flmul@b+3
  2085   001FD0  EC09  F00D         	call	___flmul	;wreg free
  2086   001FD4  C00F  F055         	movff	?___flmul,___flsub@a
  2087   001FD8  C010  F056         	movff	?___flmul+1,___flsub@a+1
  2088   001FDC  C011  F057         	movff	?___flmul+2,___flsub@a+2
  2089   001FE0  C012  F058         	movff	?___flmul+3,___flsub@a+3
  2090   001FE4  EC9A  F019         	call	___flsub	;wreg free
  2091   001FE8  0100               	movlb	0	; () banked
  2092   001FEA  5180               	movf	___rem_pio2f@y& (0+255),w,b
  2093   001FEC  6ED9               	movwf	fsr2l,c
  2094   001FEE  6ADA               	clrf	fsr2h,c
  2095   001FF0  C051  FFDE         	movff	?___flsub,postinc2
  2096   001FF4  C052  FFDE         	movff	?___flsub+1,postinc2
  2097   001FF8  C053  FFDE         	movff	?___flsub+2,postinc2
  2098   001FFC  C054  FFDE         	movff	?___flsub+3,postinc2
  2099   002000                     
  2100                           ; BSR set to: 0
  2101   002000  5189               	movf	___rem_pio2f@sign& (0+255),w,b
  2102   002002  B4D8               	btfsc	status,2,c
  2103   002004  EF06  F010         	goto	u2631
  2104   002008  EF08  F010         	goto	u2630
  2105   00200C                     u2631:
  2106   00200C  EF2F  F010         	goto	l910
  2107   002010                     u2630:
  2108   002010                     l2542:
  2109                           
  2110                           ; BSR set to: 0
  2111   002010  5180               	movf	___rem_pio2f@y& (0+255),w,b
  2112   002012  6ED9               	movwf	fsr2l,c
  2113   002014  6ADA               	clrf	fsr2h,c
  2114   002016  CFDE F078          	movff	postinc2,___flneg@f1
  2115   00201A  CFDE F079          	movff	postinc2,___flneg@f1+1
  2116   00201E  CFDE F07A          	movff	postinc2,___flneg@f1+2
  2117   002022  CFDE F07B          	movff	postinc2,___flneg@f1+3
  2118   002026  ECFD  F019         	call	___flneg	;wreg free
  2119   00202A  0100               	movlb	0	; () banked
  2120   00202C  5180               	movf	___rem_pio2f@y& (0+255),w,b
  2121   00202E  6ED9               	movwf	fsr2l,c
  2122   002030  6ADA               	clrf	fsr2h,c
  2123   002032  C078  FFDE         	movff	?___flneg,postinc2
  2124   002036  C079  FFDE         	movff	?___flneg+1,postinc2
  2125   00203A  C07A  FFDE         	movff	?___flneg+2,postinc2
  2126   00203E  C07B  FFDE         	movff	?___flneg+3,postinc2
  2127   002042                     
  2128                           ; BSR set to: 0
  2129   002042  C096  F05B         	movff	___rem_pio2f@n,??___rem_pio2f
  2130   002046  C097  F05C         	movff	___rem_pio2f@n+1,??___rem_pio2f+1
  2131   00204A  1E5B               	comf	??___rem_pio2f^0,f,c
  2132   00204C  1E5C               	comf	(??___rem_pio2f+1)^0,f,c
  2133   00204E  4A5B               	infsnz	??___rem_pio2f^0,f,c
  2134   002050  2A5C               	incf	(??___rem_pio2f+1)^0,f,c
  2135   002052  C05B  F07C         	movff	??___rem_pio2f,?___rem_pio2f
  2136   002056  C05C  F07D         	movff	??___rem_pio2f+1,?___rem_pio2f+1
  2137   00205A  EFFE  F010         	goto	l911
  2138   00205E                     l910:
  2139                           
  2140                           ; BSR set to: 0
  2141   00205E  C096  F07C         	movff	___rem_pio2f@n,?___rem_pio2f
  2142   002062  C097  F07D         	movff	___rem_pio2f@n+1,?___rem_pio2f+1
  2143   002066  EFFE  F010         	goto	l911
  2144   00206A                     l2548:
  2145                           
  2146                           ; BSR set to: 0
  2147   00206A  C07C  F001         	movff	___rem_pio2f@x,fabsf@x
  2148   00206E  C07D  F002         	movff	___rem_pio2f@x+1,fabsf@x+1
  2149   002072  C07E  F003         	movff	___rem_pio2f@x+2,fabsf@x+2
  2150   002076  C07F  F004         	movff	___rem_pio2f@x+3,fabsf@x+3
  2151   00207A  EC1A  F01A         	call	_fabsf	;wreg free
  2152   00207E  C001  F092         	movff	?_fabsf,___rem_pio2f@t
  2153   002082  C002  F093         	movff	?_fabsf+1,___rem_pio2f@t+1
  2154   002086  C003  F094         	movff	?_fabsf+2,___rem_pio2f@t+2
  2155   00208A  C004  F095         	movff	?_fabsf+3,___rem_pio2f@t+3
  2156   00208E  0E00               	movlw	0
  2157   002090  6E45               	movwf	___fladd@a^0,c
  2158   002092  0E00               	movlw	0
  2159   002094  6E46               	movwf	(___fladd@a+1)^0,c
  2160   002096  0E00               	movlw	0
  2161   002098  6E47               	movwf	(___fladd@a+2)^0,c
  2162   00209A  0E3F               	movlw	63
  2163   00209C  6E48               	movwf	(___fladd@a+3)^0,c
  2164   00209E  0E83               	movlw	131
  2165   0020A0  6E13               	movwf	___flmul@a^0,c
  2166   0020A2  0EF9               	movlw	249
  2167   0020A4  6E14               	movwf	(___flmul@a+1)^0,c
  2168   0020A6  0E22               	movlw	34
  2169   0020A8  6E15               	movwf	(___flmul@a+2)^0,c
  2170   0020AA  0E3F               	movlw	63
  2171   0020AC  6E16               	movwf	(___flmul@a+3)^0,c
  2172   0020AE  C092  F00F         	movff	___rem_pio2f@t,___flmul@b
  2173   0020B2  C093  F010         	movff	___rem_pio2f@t+1,___flmul@b+1
  2174   0020B6  C094  F011         	movff	___rem_pio2f@t+2,___flmul@b+2
  2175   0020BA  C095  F012         	movff	___rem_pio2f@t+3,___flmul@b+3
  2176   0020BE  EC09  F00D         	call	___flmul	;wreg free
  2177   0020C2  C00F  F041         	movff	?___flmul,___fladd@b
  2178   0020C6  C010  F042         	movff	?___flmul+1,___fladd@b+1
  2179   0020CA  C011  F043         	movff	?___flmul+2,___fladd@b+2
  2180   0020CE  C012  F044         	movff	?___flmul+3,___fladd@b+3
  2181   0020D2  ECA9  F00A         	call	___fladd	;wreg free
  2182   0020D6  C041  F051         	movff	?___fladd,___fltol@f1
  2183   0020DA  C042  F052         	movff	?___fladd+1,___fltol@f1+1
  2184   0020DE  C043  F053         	movff	?___fladd+2,___fltol@f1+2
  2185   0020E2  C044  F054         	movff	?___fladd+3,___fltol@f1+3
  2186   0020E6  ECF8  F017         	call	___fltol	;wreg free
  2187   0020EA  C051  F096         	movff	?___fltol,___rem_pio2f@n
  2188   0020EE  C052  F097         	movff	?___fltol+1,___rem_pio2f@n+1
  2189   0020F2  C053  F098         	movff	?___fltol+2,___rem_pio2f@n+2
  2190   0020F6  C054  F099         	movff	?___fltol+3,___rem_pio2f@n+3
  2191   0020FA  C096  F001         	movff	___rem_pio2f@n,___xxtofl@val
  2192   0020FE  C097  F002         	movff	___rem_pio2f@n+1,___xxtofl@val+1
  2193   002102  C098  F003         	movff	___rem_pio2f@n+2,___xxtofl@val+2
  2194   002106  C099  F004         	movff	___rem_pio2f@n+3,___xxtofl@val+3
  2195   00210A  0E01               	movlw	1
  2196   00210C  EC1E  F017         	call	___xxtofl
  2197   002110  C001  F08E         	movff	?___xxtofl,___rem_pio2f@fn
  2198   002114  C002  F08F         	movff	?___xxtofl+1,___rem_pio2f@fn+1
  2199   002118  C003  F090         	movff	?___xxtofl+2,___rem_pio2f@fn+2
  2200   00211C  C004  F091         	movff	?___xxtofl+3,___rem_pio2f@fn+3
  2201   002120  0EDA               	movlw	218
  2202   002122  6E13               	movwf	___flmul@a^0,c
  2203   002124  0E0F               	movlw	15
  2204   002126  6E14               	movwf	(___flmul@a+1)^0,c
  2205   002128  0EC9               	movlw	201
  2206   00212A  6E15               	movwf	(___flmul@a+2)^0,c
  2207   00212C  0E3F               	movlw	63
  2208   00212E  6E16               	movwf	(___flmul@a+3)^0,c
  2209   002130  C08E  F00F         	movff	___rem_pio2f@fn,___flmul@b
  2210   002134  C08F  F010         	movff	___rem_pio2f@fn+1,___flmul@b+1
  2211   002138  C090  F011         	movff	___rem_pio2f@fn+2,___flmul@b+2
  2212   00213C  C091  F012         	movff	___rem_pio2f@fn+3,___flmul@b+3
  2213   002140  EC09  F00D         	call	___flmul	;wreg free
  2214   002144  C00F  F055         	movff	?___flmul,___flsub@a
  2215   002148  C010  F056         	movff	?___flmul+1,___flsub@a+1
  2216   00214C  C011  F057         	movff	?___flmul+2,___flsub@a+2
  2217   002150  C012  F058         	movff	?___flmul+3,___flsub@a+3
  2218   002154  C092  F051         	movff	___rem_pio2f@t,___flsub@b
  2219   002158  C093  F052         	movff	___rem_pio2f@t+1,___flsub@b+1
  2220   00215C  C094  F053         	movff	___rem_pio2f@t+2,___flsub@b+2
  2221   002160  C095  F054         	movff	___rem_pio2f@t+3,___flsub@b+3
  2222   002164  EC9A  F019         	call	___flsub	;wreg free
  2223   002168  C051  F085         	movff	?___flsub,___rem_pio2f$1887
  2224   00216C  C052  F086         	movff	?___flsub+1,___rem_pio2f$1887+1
  2225   002170  C053  F087         	movff	?___flsub+2,___rem_pio2f$1887+2
  2226   002174  C054  F088         	movff	?___flsub+3,___rem_pio2f$1887+3
  2227   002178  C085  F051         	movff	___rem_pio2f$1887,___flsub@b
  2228   00217C  C086  F052         	movff	___rem_pio2f$1887+1,___flsub@b+1
  2229   002180  C087  F053         	movff	___rem_pio2f$1887+2,___flsub@b+2
  2230   002184  C088  F054         	movff	___rem_pio2f$1887+3,___flsub@b+3
  2231   002188  0EA3               	movlw	163
  2232   00218A  6E13               	movwf	___flmul@a^0,c
  2233   00218C  0E85               	movlw	133
  2234   00218E  6E14               	movwf	(___flmul@a+1)^0,c
  2235   002190  0E88               	movlw	136
  2236   002192  6E15               	movwf	(___flmul@a+2)^0,c
  2237   002194  0E32               	movlw	50
  2238   002196  6E16               	movwf	(___flmul@a+3)^0,c
  2239   002198  C08E  F00F         	movff	___rem_pio2f@fn,___flmul@b
  2240   00219C  C08F  F010         	movff	___rem_pio2f@fn+1,___flmul@b+1
  2241   0021A0  C090  F011         	movff	___rem_pio2f@fn+2,___flmul@b+2
  2242   0021A4  C091  F012         	movff	___rem_pio2f@fn+3,___flmul@b+3
  2243   0021A8  EC09  F00D         	call	___flmul	;wreg free
  2244   0021AC  C00F  F055         	movff	?___flmul,___flsub@a
  2245   0021B0  C010  F056         	movff	?___flmul+1,___flsub@a+1
  2246   0021B4  C011  F057         	movff	?___flmul+2,___flsub@a+2
  2247   0021B8  C012  F058         	movff	?___flmul+3,___flsub@a+3
  2248   0021BC  EC9A  F019         	call	___flsub	;wreg free
  2249   0021C0  C051  F081         	movff	?___flsub,___rem_pio2f@ty
  2250   0021C4  C052  F082         	movff	?___flsub+1,___rem_pio2f@ty+1
  2251   0021C8  C053  F083         	movff	?___flsub+2,___rem_pio2f@ty+2
  2252   0021CC  C054  F084         	movff	?___flsub+3,___rem_pio2f@ty+3
  2253   0021D0  0100               	movlb	0	; () banked
  2254   0021D2  5180               	movf	___rem_pio2f@y& (0+255),w,b
  2255   0021D4  6ED9               	movwf	fsr2l,c
  2256   0021D6  6ADA               	clrf	fsr2h,c
  2257   0021D8  C081  FFDE         	movff	___rem_pio2f@ty,postinc2
  2258   0021DC  C082  FFDE         	movff	___rem_pio2f@ty+1,postinc2
  2259   0021E0  C083  FFDE         	movff	___rem_pio2f@ty+2,postinc2
  2260   0021E4  C084  FFDE         	movff	___rem_pio2f@ty+3,postinc2
  2261   0021E8                     
  2262                           ; BSR set to: 0
  2263   0021E8  5189               	movf	___rem_pio2f@sign& (0+255),w,b
  2264   0021EA  B4D8               	btfsc	status,2,c
  2265   0021EC  EFFA  F010         	goto	u2641
  2266   0021F0  EFFC  F010         	goto	u2640
  2267   0021F4                     u2641:
  2268   0021F4  EF2F  F010         	goto	l910
  2269   0021F8                     u2640:
  2270   0021F8  EF08  F010         	goto	l2542
  2271   0021FC                     l911:
  2272                           
  2273                           ; BSR set to: 0
  2274   0021FC  0012               	return		;funcret
  2275   0021FE                     __end_of___rem_pio2f:
  2276                           	callstack 0
  2277                           
  2278 ;; *************** function _fabsf *****************
  2279 ;; Defined at:
  2280 ;;		line 4 in file "C:\Program Files\Microchip\xc8\v2.46\pic\sources\c99\common\fabsf.c"
  2281 ;; Parameters:    Size  Location     Type
  2282 ;;  x               4    0[COMRAM] float 
  2283 ;; Auto vars:     Size  Location     Type
  2284 ;;  u               4    4[COMRAM] struct .
  2285 ;; Return value:  Size  Location     Type
  2286 ;;                  4    0[COMRAM] float 
  2287 ;; Registers used:
  2288 ;;		status,2, status,0
  2289 ;; Tracked objects:
  2290 ;;		On entry : 0/0
  2291 ;;		On exit  : 0/0
  2292 ;;		Unchanged: 0/0
  2293 ;; Data sizes:     COMRAM   BANK0   BANK1   BANK2   BANK3   BANK4   BANK5   BANK6   BANK7   BANK8   BANK9  BANK10  BANK1
      +1  BANK12  BANK13  BANK14  BANK15
  2294 ;;      Params:         4       0       0       0       0       0       0       0       0       0       0       0       
      +0       0       0       0       0
  2295 ;;      Locals:         4       0       0       0       0       0       0       0       0       0       0       0       
      +0       0       0       0       0
  2296 ;;      Temps:          0       0       0       0       0       0       0       0       0       0       0       0       
      +0       0       0       0       0
  2297 ;;      Totals:         8       0       0       0       0       0       0       0       0       0       0       0       
      +0       0       0       0       0
  2298 ;;Total ram usage:        8 bytes
  2299 ;; Hardware stack levels used: 1
  2300 ;; This function calls:
  2301 ;;		Nothing
  2302 ;; This function is called by:
  2303 ;;		___rem_pio2f
  2304 ;; This function uses a non-reentrant model
  2305 ;;
  2306                           
  2307                           	psect	text4
  2308   003434                     __ptext4:
  2309                           	callstack 0
  2310   003434                     _fabsf:
  2311                           	callstack 28
  2312   003434  C0DE  F005         	movff	fabsf@F465,fabsf@u
  2313   003438  C0DF  F006         	movff	fabsf@F465+1,fabsf@u+1
  2314   00343C  C0E0  F007         	movff	fabsf@F465+2,fabsf@u+2
  2315   003440  C0E1  F008         	movff	fabsf@F465+3,fabsf@u+3
  2316   003444  C001  F005         	movff	fabsf@x,fabsf@u
  2317   003448  C002  F006         	movff	fabsf@x+1,fabsf@u+1
  2318   00344C  C003  F007         	movff	fabsf@x+2,fabsf@u+2
  2319   003450  C004  F008         	movff	fabsf@x+3,fabsf@u+3
  2320   003454  9E08               	bcf	(fabsf@u+3)^0,7,c
  2321   003456  C005  F001         	movff	fabsf@u,?_fabsf
  2322   00345A  C006  F002         	movff	fabsf@u+1,?_fabsf+1
  2323   00345E  C007  F003         	movff	fabsf@u+2,?_fabsf+2
  2324   003462  C008  F004         	movff	fabsf@u+3,?_fabsf+3
  2325   003466  0012               	return		;funcret
  2326   003468                     __end_of_fabsf:
  2327                           	callstack 0
  2328                           
  2329 ;; *************** function ___xxtofl *****************
  2330 ;; Defined at:
  2331 ;;		line 10 in file "C:\Program Files\Microchip\xc8\v2.46\pic\sources\c99\common\xxtofl.c"
  2332 ;; Parameters:    Size  Location     Type
  2333 ;;  sign            1    wreg     unsigned char 
  2334 ;;  val             4    0[COMRAM] long 
  2335 ;; Auto vars:     Size  Location     Type
  2336 ;;  sign            1    8[COMRAM] unsigned char 
  2337 ;;  arg             4   10[COMRAM] unsigned long 
  2338 ;;  exp             1    9[COMRAM] unsigned char 
  2339 ;; Return value:  Size  Location     Type
  2340 ;;                  4    0[COMRAM] unsigned char 
  2341 ;; Registers used:
  2342 ;;		wreg, status,2, status,0
  2343 ;; Tracked objects:
  2344 ;;		On entry : 0/0
  2345 ;;		On exit  : 0/0
  2346 ;;		Unchanged: 0/0
  2347 ;; Data sizes:     COMRAM   BANK0   BANK1   BANK2   BANK3   BANK4   BANK5   BANK6   BANK7   BANK8   BANK9  BANK10  BANK1
      +1  BANK12  BANK13  BANK14  BANK15
  2348 ;;      Params:         4       0       0       0       0       0       0       0       0       0       0       0       
      +0       0       0       0       0
  2349 ;;      Locals:         6       0       0       0       0       0       0       0       0       0       0       0       
      +0       0       0       0       0
  2350 ;;      Temps:          4       0       0       0       0       0       0       0       0       0       0       0       
      +0       0       0       0       0
  2351 ;;      Totals:        14       0       0       0       0       0       0       0       0       0       0       0       
      +0       0       0       0       0
  2352 ;;Total ram usage:       14 bytes
  2353 ;; Hardware stack levels used: 1
  2354 ;; This function calls:
  2355 ;;		Nothing
  2356 ;; This function is called by:
  2357 ;;		_main
  2358 ;;		___rem_pio2f
  2359 ;; This function uses a non-reentrant model
  2360 ;;
  2361                           
  2362                           	psect	text5
  2363   002E3C                     __ptext5:
  2364                           	callstack 0
  2365   002E3C                     ___xxtofl:
  2366                           	callstack 28
  2367                           
  2368                           ;incstack = 0
  2369                           ;___xxtofl@sign stored from wreg
  2370   002E3C  6E09               	movwf	___xxtofl@sign^0,c
  2371   002E3E  5009               	movf	___xxtofl@sign^0,w,c
  2372   002E40  B4D8               	btfsc	status,2,c
  2373   002E42  EF25  F017         	goto	u2391
  2374   002E46  EF27  F017         	goto	u2390
  2375   002E4A                     u2391:
  2376   002E4A  EF49  F017         	goto	l747
  2377   002E4E                     u2390:
  2378   002E4E  BE04               	btfsc	(___xxtofl@val+3)^0,7,c
  2379   002E50  EF2E  F017         	goto	u2400
  2380   002E54  EF2C  F017         	goto	u2401
  2381   002E58                     u2401:
  2382   002E58  EF49  F017         	goto	l747
  2383   002E5C                     u2400:
  2384   002E5C  C001  F005         	movff	___xxtofl@val,??___xxtofl
  2385   002E60  C002  F006         	movff	___xxtofl@val+1,??___xxtofl+1
  2386   002E64  C003  F007         	movff	___xxtofl@val+2,??___xxtofl+2
  2387   002E68  C004  F008         	movff	___xxtofl@val+3,??___xxtofl+3
  2388   002E6C  1E05               	comf	??___xxtofl^0,f,c
  2389   002E6E  1E06               	comf	(??___xxtofl+1)^0,f,c
  2390   002E70  1E07               	comf	(??___xxtofl+2)^0,f,c
  2391   002E72  1E08               	comf	(??___xxtofl+3)^0,f,c
  2392   002E74  2A05               	incf	??___xxtofl^0,f,c
  2393   002E76  0E00               	movlw	0
  2394   002E78  2206               	addwfc	(??___xxtofl+1)^0,f,c
  2395   002E7A  2207               	addwfc	(??___xxtofl+2)^0,f,c
  2396   002E7C  2208               	addwfc	(??___xxtofl+3)^0,f,c
  2397   002E7E  C005  F00B         	movff	??___xxtofl,___xxtofl@arg
  2398   002E82  C006  F00C         	movff	??___xxtofl+1,___xxtofl@arg+1
  2399   002E86  C007  F00D         	movff	??___xxtofl+2,___xxtofl@arg+2
  2400   002E8A  C008  F00E         	movff	??___xxtofl+3,___xxtofl@arg+3
  2401   002E8E  EF51  F017         	goto	l2406
  2402   002E92                     l747:
  2403   002E92  C001  F00B         	movff	___xxtofl@val,___xxtofl@arg
  2404   002E96  C002  F00C         	movff	___xxtofl@val+1,___xxtofl@arg+1
  2405   002E9A  C003  F00D         	movff	___xxtofl@val+2,___xxtofl@arg+2
  2406   002E9E  C004  F00E         	movff	___xxtofl@val+3,___xxtofl@arg+3
  2407   002EA2                     l2406:
  2408   002EA2  5001               	movf	___xxtofl@val^0,w,c
  2409   002EA4  1002               	iorwf	(___xxtofl@val+1)^0,w,c
  2410   002EA6  1003               	iorwf	(___xxtofl@val+2)^0,w,c
  2411   002EA8  1004               	iorwf	(___xxtofl@val+3)^0,w,c
  2412   002EAA  A4D8               	btfss	status,2,c
  2413   002EAC  EF5A  F017         	goto	u2411
  2414   002EB0  EF5C  F017         	goto	u2410
  2415   002EB4                     u2411:
  2416   002EB4  EF66  F017         	goto	l2412
  2417   002EB8                     u2410:
  2418   002EB8  0E00               	movlw	0
  2419   002EBA  6E01               	movwf	?___xxtofl^0,c
  2420   002EBC  0E00               	movlw	0
  2421   002EBE  6E02               	movwf	(?___xxtofl+1)^0,c
  2422   002EC0  0E00               	movlw	0
  2423   002EC2  6E03               	movwf	(?___xxtofl+2)^0,c
  2424   002EC4  0E00               	movlw	0
  2425   002EC6  6E04               	movwf	(?___xxtofl+3)^0,c
  2426   002EC8  EFF7  F017         	goto	l750
  2427   002ECC                     l2412:
  2428   002ECC  0E96               	movlw	150
  2429   002ECE  6E0A               	movwf	___xxtofl@exp^0,c
  2430   002ED0  EF70  F017         	goto	l2416
  2431   002ED4                     l2414:
  2432   002ED4  2A0A               	incf	___xxtofl@exp^0,f,c
  2433   002ED6  90D8               	bcf	status,0,c
  2434   002ED8  320E               	rrcf	(___xxtofl@arg+3)^0,f,c
  2435   002EDA  320D               	rrcf	(___xxtofl@arg+2)^0,f,c
  2436   002EDC  320C               	rrcf	(___xxtofl@arg+1)^0,f,c
  2437   002EDE  320B               	rrcf	___xxtofl@arg^0,f,c
  2438   002EE0                     l2416:
  2439   002EE0  0E00               	movlw	0
  2440   002EE2  140B               	andwf	___xxtofl@arg^0,w,c
  2441   002EE4  6E05               	movwf	??___xxtofl^0,c
  2442   002EE6  0E00               	movlw	0
  2443   002EE8  140C               	andwf	(___xxtofl@arg+1)^0,w,c
  2444   002EEA  6E06               	movwf	(??___xxtofl+1)^0,c
  2445   002EEC  0E00               	movlw	0
  2446   002EEE  140D               	andwf	(___xxtofl@arg+2)^0,w,c
  2447   002EF0  6E07               	movwf	(??___xxtofl+2)^0,c
  2448   002EF2  0EFE               	movlw	254
  2449   002EF4  140E               	andwf	(___xxtofl@arg+3)^0,w,c
  2450   002EF6  6E08               	movwf	(??___xxtofl+3)^0,c
  2451   002EF8  5005               	movf	??___xxtofl^0,w,c
  2452   002EFA  1006               	iorwf	(??___xxtofl+1)^0,w,c
  2453   002EFC  1007               	iorwf	(??___xxtofl+2)^0,w,c
  2454   002EFE  1008               	iorwf	(??___xxtofl+3)^0,w,c
  2455   002F00  A4D8               	btfss	status,2,c
  2456   002F02  EF85  F017         	goto	u2421
  2457   002F06  EF87  F017         	goto	u2420
  2458   002F0A                     u2421:
  2459   002F0A  EF6A  F017         	goto	l2414
  2460   002F0E                     u2420:
  2461   002F0E  EF95  F017         	goto	l754
  2462   002F12                     l2418:
  2463   002F12  2A0A               	incf	___xxtofl@exp^0,f,c
  2464   002F14  0E01               	movlw	1
  2465   002F16  260B               	addwf	___xxtofl@arg^0,f,c
  2466   002F18  0E00               	movlw	0
  2467   002F1A  220C               	addwfc	(___xxtofl@arg+1)^0,f,c
  2468   002F1C  220D               	addwfc	(___xxtofl@arg+2)^0,f,c
  2469   002F1E  220E               	addwfc	(___xxtofl@arg+3)^0,f,c
  2470   002F20  90D8               	bcf	status,0,c
  2471   002F22  320E               	rrcf	(___xxtofl@arg+3)^0,f,c
  2472   002F24  320D               	rrcf	(___xxtofl@arg+2)^0,f,c
  2473   002F26  320C               	rrcf	(___xxtofl@arg+1)^0,f,c
  2474   002F28  320B               	rrcf	___xxtofl@arg^0,f,c
  2475   002F2A                     l754:
  2476   002F2A  0E00               	movlw	0
  2477   002F2C  140B               	andwf	___xxtofl@arg^0,w,c
  2478   002F2E  6E05               	movwf	??___xxtofl^0,c
  2479   002F30  0E00               	movlw	0
  2480   002F32  140C               	andwf	(___xxtofl@arg+1)^0,w,c
  2481   002F34  6E06               	movwf	(??___xxtofl+1)^0,c
  2482   002F36  0E00               	movlw	0
  2483   002F38  140D               	andwf	(___xxtofl@arg+2)^0,w,c
  2484   002F3A  6E07               	movwf	(??___xxtofl+2)^0,c
  2485   002F3C  0EFF               	movlw	255
  2486   002F3E  140E               	andwf	(___xxtofl@arg+3)^0,w,c
  2487   002F40  6E08               	movwf	(??___xxtofl+3)^0,c
  2488   002F42  5005               	movf	??___xxtofl^0,w,c
  2489   002F44  1006               	iorwf	(??___xxtofl+1)^0,w,c
  2490   002F46  1007               	iorwf	(??___xxtofl+2)^0,w,c
  2491   002F48  1008               	iorwf	(??___xxtofl+3)^0,w,c
  2492   002F4A  A4D8               	btfss	status,2,c
  2493   002F4C  EFAA  F017         	goto	u2431
  2494   002F50  EFAC  F017         	goto	u2430
  2495   002F54                     u2431:
  2496   002F54  EF89  F017         	goto	l2418
  2497   002F58                     u2430:
  2498   002F58  EFB4  F017         	goto	l2426
  2499   002F5C                     l2424:
  2500   002F5C  060A               	decf	___xxtofl@exp^0,f,c
  2501   002F5E  90D8               	bcf	status,0,c
  2502   002F60  360B               	rlcf	___xxtofl@arg^0,f,c
  2503   002F62  360C               	rlcf	(___xxtofl@arg+1)^0,f,c
  2504   002F64  360D               	rlcf	(___xxtofl@arg+2)^0,f,c
  2505   002F66  360E               	rlcf	(___xxtofl@arg+3)^0,f,c
  2506   002F68                     l2426:
  2507   002F68  BE0D               	btfsc	(___xxtofl@arg+2)^0,7,c
  2508   002F6A  EFB9  F017         	goto	u2441
  2509   002F6E  EFBB  F017         	goto	u2440
  2510   002F72                     u2441:
  2511   002F72  EFC3  F017         	goto	l761
  2512   002F76                     u2440:
  2513   002F76  0E02               	movlw	2
  2514   002F78  600A               	cpfslt	___xxtofl@exp^0,c
  2515   002F7A  EFC1  F017         	goto	u2451
  2516   002F7E  EFC3  F017         	goto	u2450
  2517   002F82                     u2451:
  2518   002F82  EFAE  F017         	goto	l2424
  2519   002F86                     u2450:
  2520   002F86                     l761:
  2521   002F86  B00A               	btfsc	___xxtofl@exp^0,0,c
  2522   002F88  EFC8  F017         	goto	u2461
  2523   002F8C  EFCA  F017         	goto	u2460
  2524   002F90                     u2461:
  2525   002F90  EFCB  F017         	goto	l2432
  2526   002F94                     u2460:
  2527   002F94  9E0D               	bcf	(___xxtofl@arg+2)^0,7,c
  2528   002F96                     l2432:
  2529   002F96  90D8               	bcf	status,0,c
  2530   002F98  320A               	rrcf	___xxtofl@exp^0,f,c
  2531   002F9A  C00A  F005         	movff	___xxtofl@exp,??___xxtofl
  2532   002F9E  6A06               	clrf	(??___xxtofl+1)^0,c
  2533   002FA0  6A07               	clrf	(??___xxtofl+2)^0,c
  2534   002FA2  6A08               	clrf	(??___xxtofl+3)^0,c
  2535   002FA4  C005  F008         	movff	??___xxtofl,??___xxtofl+3
  2536   002FA8  6A07               	clrf	(??___xxtofl+2)^0,c
  2537   002FAA  6A06               	clrf	(??___xxtofl+1)^0,c
  2538   002FAC  6A05               	clrf	??___xxtofl^0,c
  2539   002FAE  5005               	movf	??___xxtofl^0,w,c
  2540   002FB0  120B               	iorwf	___xxtofl@arg^0,f,c
  2541   002FB2  5006               	movf	(??___xxtofl+1)^0,w,c
  2542   002FB4  120C               	iorwf	(___xxtofl@arg+1)^0,f,c
  2543   002FB6  5007               	movf	(??___xxtofl+2)^0,w,c
  2544   002FB8  120D               	iorwf	(___xxtofl@arg+2)^0,f,c
  2545   002FBA  5008               	movf	(??___xxtofl+3)^0,w,c
  2546   002FBC  120E               	iorwf	(___xxtofl@arg+3)^0,f,c
  2547   002FBE  5009               	movf	___xxtofl@sign^0,w,c
  2548   002FC0  B4D8               	btfsc	status,2,c
  2549   002FC2  EFE5  F017         	goto	u2471
  2550   002FC6  EFE7  F017         	goto	u2470
  2551   002FCA                     u2471:
  2552   002FCA  EFEF  F017         	goto	l2442
  2553   002FCE                     u2470:
  2554   002FCE  BE04               	btfsc	(___xxtofl@val+3)^0,7,c
  2555   002FD0  EFEE  F017         	goto	u2480
  2556   002FD4  EFEC  F017         	goto	u2481
  2557   002FD8                     u2481:
  2558   002FD8  EFEF  F017         	goto	l2442
  2559   002FDC                     u2480:
  2560   002FDC  8E0E               	bsf	(___xxtofl@arg+3)^0,7,c
  2561   002FDE                     l2442:
  2562   002FDE  C00B  F001         	movff	___xxtofl@arg,?___xxtofl
  2563   002FE2  C00C  F002         	movff	___xxtofl@arg+1,?___xxtofl+1
  2564   002FE6  C00D  F003         	movff	___xxtofl@arg+2,?___xxtofl+2
  2565   002FEA  C00E  F004         	movff	___xxtofl@arg+3,?___xxtofl+3
  2566   002FEE                     l750:
  2567   002FEE  0012               	return		;funcret
  2568   002FF0                     __end_of___xxtofl:
  2569                           	callstack 0
  2570                           
  2571 ;; *************** function ___fltol *****************
  2572 ;; Defined at:
  2573 ;;		line 43 in file "C:\Program Files\Microchip\xc8\v2.46\pic\sources\c99\common\fltol.c"
  2574 ;; Parameters:    Size  Location     Type
  2575 ;;  f1              4   80[COMRAM] unsigned char 
  2576 ;; Auto vars:     Size  Location     Type
  2577 ;;  exp1            1   89[COMRAM] unsigned char 
  2578 ;;  sign1           1   88[COMRAM] unsigned char 
  2579 ;; Return value:  Size  Location     Type
  2580 ;;                  4   80[COMRAM] long 
  2581 ;; Registers used:
  2582 ;;		wreg, status,2, status,0
  2583 ;; Tracked objects:
  2584 ;;		On entry : 0/0
  2585 ;;		On exit  : 0/0
  2586 ;;		Unchanged: 0/0
  2587 ;; Data sizes:     COMRAM   BANK0   BANK1   BANK2   BANK3   BANK4   BANK5   BANK6   BANK7   BANK8   BANK9  BANK10  BANK1
      +1  BANK12  BANK13  BANK14  BANK15
  2588 ;;      Params:         4       0       0       0       0       0       0       0       0       0       0       0       
      +0       0       0       0       0
  2589 ;;      Locals:         2       0       0       0       0       0       0       0       0       0       0       0       
      +0       0       0       0       0
  2590 ;;      Temps:          4       0       0       0       0       0       0       0       0       0       0       0       
      +0       0       0       0       0
  2591 ;;      Totals:        10       0       0       0       0       0       0       0       0       0       0       0       
      +0       0       0       0       0
  2592 ;;Total ram usage:       10 bytes
  2593 ;; Hardware stack levels used: 1
  2594 ;; This function calls:
  2595 ;;		Nothing
  2596 ;; This function is called by:
  2597 ;;		_main
  2598 ;;		___rem_pio2f
  2599 ;; This function uses a non-reentrant model
  2600 ;;
  2601                           
  2602                           	psect	text6
  2603   002FF0                     __ptext6:
  2604                           	callstack 0
  2605   002FF0                     ___fltol:
  2606                           	callstack 28
  2607   002FF0  3453               	rlcf	(___fltol@f1+2)^0,w,c
  2608   002FF2  3454               	rlcf	(___fltol@f1+3)^0,w,c
  2609   002FF4  6E5A               	movwf	___fltol@exp1^0,c
  2610   002FF6  505A               	movf	___fltol@exp1^0,w,c
  2611   002FF8  A4D8               	btfss	status,2,c
  2612   002FFA  EF01  F018         	goto	u2321
  2613   002FFE  EF03  F018         	goto	u2320
  2614   003002                     u2321:
  2615   003002  EF0D  F018         	goto	l2362
  2616   003006                     u2320:
  2617   003006                     l2358:
  2618   003006  0E00               	movlw	0
  2619   003008  6E51               	movwf	?___fltol^0,c
  2620   00300A  0E00               	movlw	0
  2621   00300C  6E52               	movwf	(?___fltol+1)^0,c
  2622   00300E  0E00               	movlw	0
  2623   003010  6E53               	movwf	(?___fltol+2)^0,c
  2624   003012  0E00               	movlw	0
  2625   003014  6E54               	movwf	(?___fltol+3)^0,c
  2626   003016  EF7A  F018         	goto	l389
  2627   00301A                     l2362:
  2628   00301A  C051  F055         	movff	___fltol@f1,??___fltol
  2629   00301E  C052  F056         	movff	___fltol@f1+1,??___fltol+1
  2630   003022  C053  F057         	movff	___fltol@f1+2,??___fltol+2
  2631   003026  C054  F058         	movff	___fltol@f1+3,??___fltol+3
  2632   00302A  0E20               	movlw	32
  2633   00302C  EF1D  F018         	goto	u2330
  2634   003030                     u2335:
  2635   003030  90D8               	bcf	status,0,c
  2636   003032  3258               	rrcf	(??___fltol+3)^0,f,c
  2637   003034  3257               	rrcf	(??___fltol+2)^0,f,c
  2638   003036  3256               	rrcf	(??___fltol+1)^0,f,c
  2639   003038  3255               	rrcf	??___fltol^0,f,c
  2640   00303A                     u2330:
  2641   00303A  2EE8               	decfsz	wreg,f,c
  2642   00303C  EF18  F018         	goto	u2335
  2643   003040  5055               	movf	??___fltol^0,w,c
  2644   003042  6E59               	movwf	___fltol@sign1^0,c
  2645   003044  8E53               	bsf	(___fltol@f1+2)^0,7,c
  2646   003046  0EFF               	movlw	255
  2647   003048  1651               	andwf	___fltol@f1^0,f,c
  2648   00304A  0EFF               	movlw	255
  2649   00304C  1652               	andwf	(___fltol@f1+1)^0,f,c
  2650   00304E  0EFF               	movlw	255
  2651   003050  1653               	andwf	(___fltol@f1+2)^0,f,c
  2652   003052  0E00               	movlw	0
  2653   003054  1654               	andwf	(___fltol@f1+3)^0,f,c
  2654   003056  0E96               	movlw	150
  2655   003058  5E5A               	subwf	___fltol@exp1^0,f,c
  2656   00305A  BE5A               	btfsc	___fltol@exp1^0,7,c
  2657   00305C  EF34  F018         	goto	u2340
  2658   003060  EF32  F018         	goto	u2341
  2659   003064                     u2341:
  2660   003064  EF4A  F018         	goto	l2382
  2661   003068                     u2340:
  2662   003068  505A               	movf	___fltol@exp1^0,w,c
  2663   00306A  0A80               	xorlw	128
  2664   00306C  0F97               	addlw	151
  2665   00306E  B0D8               	btfsc	status,0,c
  2666   003070  EF3C  F018         	goto	u2351
  2667   003074  EF3E  F018         	goto	u2350
  2668   003078                     u2351:
  2669   003078  EF40  F018         	goto	l2378
  2670   00307C                     u2350:
  2671   00307C  EF03  F018         	goto	l2358
  2672   003080                     l2378:
  2673   003080  90D8               	bcf	status,0,c
  2674   003082  3254               	rrcf	(___fltol@f1+3)^0,f,c
  2675   003084  3253               	rrcf	(___fltol@f1+2)^0,f,c
  2676   003086  3252               	rrcf	(___fltol@f1+1)^0,f,c
  2677   003088  3251               	rrcf	___fltol@f1^0,f,c
  2678   00308A  3E5A               	incfsz	___fltol@exp1^0,f,c
  2679   00308C  EF40  F018         	goto	l2378
  2680   003090  EF62  F018         	goto	l2392
  2681   003094                     l2382:
  2682   003094  0E1F               	movlw	31
  2683   003096  645A               	cpfsgt	___fltol@exp1^0,c
  2684   003098  EF50  F018         	goto	u2361
  2685   00309C  EF52  F018         	goto	u2360
  2686   0030A0                     u2361:
  2687   0030A0  EF5A  F018         	goto	l2390
  2688   0030A4                     u2360:
  2689   0030A4  EF03  F018         	goto	l2358
  2690   0030A8                     l2388:
  2691   0030A8  90D8               	bcf	status,0,c
  2692   0030AA  3651               	rlcf	___fltol@f1^0,f,c
  2693   0030AC  3652               	rlcf	(___fltol@f1+1)^0,f,c
  2694   0030AE  3653               	rlcf	(___fltol@f1+2)^0,f,c
  2695   0030B0  3654               	rlcf	(___fltol@f1+3)^0,f,c
  2696   0030B2  065A               	decf	___fltol@exp1^0,f,c
  2697   0030B4                     l2390:
  2698   0030B4  505A               	movf	___fltol@exp1^0,w,c
  2699   0030B6  A4D8               	btfss	status,2,c
  2700   0030B8  EF60  F018         	goto	u2371
  2701   0030BC  EF62  F018         	goto	u2370
  2702   0030C0                     u2371:
  2703   0030C0  EF54  F018         	goto	l2388
  2704   0030C4                     u2370:
  2705   0030C4                     l2392:
  2706   0030C4  5059               	movf	___fltol@sign1^0,w,c
  2707   0030C6  B4D8               	btfsc	status,2,c
  2708   0030C8  EF68  F018         	goto	u2381
  2709   0030CC  EF6A  F018         	goto	u2380
  2710   0030D0                     u2381:
  2711   0030D0  EF72  F018         	goto	l2396
  2712   0030D4                     u2380:
  2713   0030D4  1E54               	comf	(___fltol@f1+3)^0,f,c
  2714   0030D6  1E53               	comf	(___fltol@f1+2)^0,f,c
  2715   0030D8  1E52               	comf	(___fltol@f1+1)^0,f,c
  2716   0030DA  6C51               	negf	___fltol@f1^0,c
  2717   0030DC  0E00               	movlw	0
  2718   0030DE  2252               	addwfc	(___fltol@f1+1)^0,f,c
  2719   0030E0  2253               	addwfc	(___fltol@f1+2)^0,f,c
  2720   0030E2  2254               	addwfc	(___fltol@f1+3)^0,f,c
  2721   0030E4                     l2396:
  2722   0030E4  C051  F051         	movff	___fltol@f1,?___fltol
  2723   0030E8  C052  F052         	movff	___fltol@f1+1,?___fltol+1
  2724   0030EC  C053  F053         	movff	___fltol@f1+2,?___fltol+2
  2725   0030F0  C054  F054         	movff	___fltol@f1+3,?___fltol+3
  2726   0030F4                     l389:
  2727   0030F4  0012               	return		;funcret
  2728   0030F6                     __end_of___fltol:
  2729                           	callstack 0
  2730                           
  2731 ;; *************** function ___flsub *****************
  2732 ;; Defined at:
  2733 ;;		line 245 in file "C:\Program Files\Microchip\xc8\v2.46\pic\sources\c99\common\sprcadd.c"
  2734 ;; Parameters:    Size  Location     Type
  2735 ;;  b               4   80[COMRAM] long 
  2736 ;;  a               4   84[COMRAM] long 
  2737 ;; Auto vars:     Size  Location     Type
  2738 ;;		None
  2739 ;; Return value:  Size  Location     Type
  2740 ;;                  4   80[COMRAM] long 
  2741 ;; Registers used:
  2742 ;;		wreg, status,2, status,0, cstack
  2743 ;; Tracked objects:
  2744 ;;		On entry : 0/0
  2745 ;;		On exit  : 0/0
  2746 ;;		Unchanged: 0/0
  2747 ;; Data sizes:     COMRAM   BANK0   BANK1   BANK2   BANK3   BANK4   BANK5   BANK6   BANK7   BANK8   BANK9  BANK10  BANK1
      +1  BANK12  BANK13  BANK14  BANK15
  2748 ;;      Params:         8       0       0       0       0       0       0       0       0       0       0       0       
      +0       0       0       0       0
  2749 ;;      Locals:         0       0       0       0       0       0       0       0       0       0       0       0       
      +0       0       0       0       0
  2750 ;;      Temps:          0       0       0       0       0       0       0       0       0       0       0       0       
      +0       0       0       0       0
  2751 ;;      Totals:         8       0       0       0       0       0       0       0       0       0       0       0       
      +0       0       0       0       0
  2752 ;;Total ram usage:        8 bytes
  2753 ;; Hardware stack levels used: 1
  2754 ;; Hardware stack levels required when called: 1
  2755 ;; This function calls:
  2756 ;;		___fladd
  2757 ;; This function is called by:
  2758 ;;		___rem_pio2f
  2759 ;; This function uses a non-reentrant model
  2760 ;;
  2761                           
  2762                           	psect	text7
  2763   003334                     __ptext7:
  2764                           	callstack 0
  2765   003334                     ___flsub:
  2766                           	callstack 27
  2767   003334  0E00               	movlw	0
  2768   003336  1A55               	xorwf	___flsub@a^0,f,c
  2769   003338  0E00               	movlw	0
  2770   00333A  1A56               	xorwf	(___flsub@a+1)^0,f,c
  2771   00333C  0E00               	movlw	0
  2772   00333E  1A57               	xorwf	(___flsub@a+2)^0,f,c
  2773   003340  0E80               	movlw	128
  2774   003342  1A58               	xorwf	(___flsub@a+3)^0,f,c
  2775   003344  C051  F041         	movff	___flsub@b,___fladd@b
  2776   003348  C052  F042         	movff	___flsub@b+1,___fladd@b+1
  2777   00334C  C053  F043         	movff	___flsub@b+2,___fladd@b+2
  2778   003350  C054  F044         	movff	___flsub@b+3,___fladd@b+3
  2779   003354  C055  F045         	movff	___flsub@a,___fladd@a
  2780   003358  C056  F046         	movff	___flsub@a+1,___fladd@a+1
  2781   00335C  C057  F047         	movff	___flsub@a+2,___fladd@a+2
  2782   003360  C058  F048         	movff	___flsub@a+3,___fladd@a+3
  2783   003364  ECA9  F00A         	call	___fladd	;wreg free
  2784   003368  C041  F051         	movff	?___fladd,?___flsub
  2785   00336C  C042  F052         	movff	?___fladd+1,?___flsub+1
  2786   003370  C043  F053         	movff	?___fladd+2,?___flsub+2
  2787   003374  C044  F054         	movff	?___fladd+3,?___flsub+3
  2788   003378  0012               	return		;funcret
  2789   00337A                     __end_of___flsub:
  2790                           	callstack 0
  2791                           
  2792 ;; *************** function ___flneg *****************
  2793 ;; Defined at:
  2794 ;;		line 15 in file "C:\Program Files\Microchip\xc8\v2.46\pic\sources\c99\common\flneg.c"
  2795 ;; Parameters:    Size  Location     Type
  2796 ;;  f1              4   24[BANK0 ] long 
  2797 ;; Auto vars:     Size  Location     Type
  2798 ;;		None
  2799 ;; Return value:  Size  Location     Type
  2800 ;;                  4   24[BANK0 ] long 
  2801 ;; Registers used:
  2802 ;;		wreg, status,2, status,0
  2803 ;; Tracked objects:
  2804 ;;		On entry : 0/0
  2805 ;;		On exit  : 0/0
  2806 ;;		Unchanged: 0/0
  2807 ;; Data sizes:     COMRAM   BANK0   BANK1   BANK2   BANK3   BANK4   BANK5   BANK6   BANK7   BANK8   BANK9  BANK10  BANK1
      +1  BANK12  BANK13  BANK14  BANK15
  2808 ;;      Params:         0       4       0       0       0       0       0       0       0       0       0       0       
      +0       0       0       0       0
  2809 ;;      Locals:         0       0       0       0       0       0       0       0       0       0       0       0       
      +0       0       0       0       0
  2810 ;;      Temps:          0       0       0       0       0       0       0       0       0       0       0       0       
      +0       0       0       0       0
  2811 ;;      Totals:         0       4       0       0       0       0       0       0       0       0       0       0       
      +0       0       0       0       0
  2812 ;;Total ram usage:        4 bytes
  2813 ;; Hardware stack levels used: 1
  2814 ;; This function calls:
  2815 ;;		Nothing
  2816 ;; This function is called by:
  2817 ;;		_sinf
  2818 ;;		___rem_pio2f
  2819 ;; This function uses a non-reentrant model
  2820 ;;
  2821                           
  2822                           	psect	text8
  2823   0033FA                     __ptext8:
  2824                           	callstack 0
  2825   0033FA                     ___flneg:
  2826                           	callstack 28
  2827   0033FA  0100               	movlb	0	; () banked
  2828   0033FC  5178               	movf	___flneg@f1& (0+255),w,b
  2829   0033FE  1179               	iorwf	(___flneg@f1+1)& (0+255),w,b
  2830   003400  117A               	iorwf	(___flneg@f1+2)& (0+255),w,b
  2831   003402  117B               	iorwf	(___flneg@f1+3)& (0+255),w,b
  2832   003404  B4D8               	btfsc	status,2,c
  2833   003406  EF07  F01A         	goto	u2311
  2834   00340A  EF09  F01A         	goto	u2310
  2835   00340E                     u2311:
  2836   00340E  EF11  F01A         	goto	l2352
  2837   003412                     u2310:
  2838   003412                     
  2839                           ; BSR set to: 0
  2840   003412  0E00               	movlw	0
  2841   003414  1B78               	xorwf	___flneg@f1& (0+255),f,b
  2842   003416  0E00               	movlw	0
  2843   003418  1B79               	xorwf	(___flneg@f1+1)& (0+255),f,b
  2844   00341A  0E00               	movlw	0
  2845   00341C  1B7A               	xorwf	(___flneg@f1+2)& (0+255),f,b
  2846   00341E  0E80               	movlw	128
  2847   003420  1B7B               	xorwf	(___flneg@f1+3)& (0+255),f,b
  2848   003422                     l2352:
  2849                           
  2850                           ; BSR set to: 0
  2851   003422  C078  F078         	movff	___flneg@f1,?___flneg
  2852   003426  C079  F079         	movff	___flneg@f1+1,?___flneg+1
  2853   00342A  C07A  F07A         	movff	___flneg@f1+2,?___flneg+2
  2854   00342E  C07B  F07B         	movff	___flneg@f1+3,?___flneg+3
  2855   003432                     
  2856                           ; BSR set to: 0
  2857   003432  0012               	return		;funcret
  2858   003434                     __end_of___flneg:
  2859                           	callstack 0
  2860                           
  2861 ;; *************** function ___cosdf *****************
  2862 ;; Defined at:
  2863 ;;		line 26 in file "C:\Program Files\Microchip\xc8\v2.46\pic\sources\c99\common\__cosdf.c"
  2864 ;; Parameters:    Size  Location     Type
  2865 ;;  x               4   80[COMRAM] long 
  2866 ;; Auto vars:     Size  Location     Type
  2867 ;;  z               4   20[BANK0 ] long 
  2868 ;;  w               4   16[BANK0 ] long 
  2869 ;;  r               4    0[BANK0 ] long 
  2870 ;; Return value:  Size  Location     Type
  2871 ;;                  4   80[COMRAM] float 
  2872 ;; Registers used:
  2873 ;;		wreg, status,2, status,0, prodl, prodh, cstack
  2874 ;; Tracked objects:
  2875 ;;		On entry : 0/0
  2876 ;;		On exit  : 0/0
  2877 ;;		Unchanged: 0/0
  2878 ;; Data sizes:     COMRAM   BANK0   BANK1   BANK2   BANK3   BANK4   BANK5   BANK6   BANK7   BANK8   BANK9  BANK10  BANK1
      +1  BANK12  BANK13  BANK14  BANK15
  2879 ;;      Params:         4       0       0       0       0       0       0       0       0       0       0       0       
      +0       0       0       0       0
  2880 ;;      Locals:         0      24       0       0       0       0       0       0       0       0       0       0       
      +0       0       0       0       0
  2881 ;;      Temps:          0       0       0       0       0       0       0       0       0       0       0       0       
      +0       0       0       0       0
  2882 ;;      Totals:         4      24       0       0       0       0       0       0       0       0       0       0       
      +0       0       0       0       0
  2883 ;;Total ram usage:       28 bytes
  2884 ;; Hardware stack levels used: 1
  2885 ;; Hardware stack levels required when called: 1
  2886 ;; This function calls:
  2887 ;;		___fladd
  2888 ;;		___flmul
  2889 ;; This function is called by:
  2890 ;;		_sinf
  2891 ;; This function uses a non-reentrant model
  2892 ;;
  2893                           
  2894                           	psect	text9
  2895   002A7C                     __ptext9:
  2896                           	callstack 0
  2897   002A7C                     ___cosdf:
  2898                           	callstack 28
  2899   002A7C  C051  F00F         	movff	___cosdf@x,___flmul@b
  2900   002A80  C052  F010         	movff	___cosdf@x+1,___flmul@b+1
  2901   002A84  C053  F011         	movff	___cosdf@x+2,___flmul@b+2
  2902   002A88  C054  F012         	movff	___cosdf@x+3,___flmul@b+3
  2903   002A8C  C051  F013         	movff	___cosdf@x,___flmul@a
  2904   002A90  C052  F014         	movff	___cosdf@x+1,___flmul@a+1
  2905   002A94  C053  F015         	movff	___cosdf@x+2,___flmul@a+2
  2906   002A98  C054  F016         	movff	___cosdf@x+3,___flmul@a+3
  2907   002A9C  EC09  F00D         	call	___flmul	;wreg free
  2908   002AA0  C00F  F074         	movff	?___flmul,___cosdf@z
  2909   002AA4  C010  F075         	movff	?___flmul+1,___cosdf@z+1
  2910   002AA8  C011  F076         	movff	?___flmul+2,___cosdf@z+2
  2911   002AAC  C012  F077         	movff	?___flmul+3,___cosdf@z+3
  2912   002AB0  C074  F00F         	movff	___cosdf@z,___flmul@b
  2913   002AB4  C075  F010         	movff	___cosdf@z+1,___flmul@b+1
  2914   002AB8  C076  F011         	movff	___cosdf@z+2,___flmul@b+2
  2915   002ABC  C077  F012         	movff	___cosdf@z+3,___flmul@b+3
  2916   002AC0  C074  F013         	movff	___cosdf@z,___flmul@a
  2917   002AC4  C075  F014         	movff	___cosdf@z+1,___flmul@a+1
  2918   002AC8  C076  F015         	movff	___cosdf@z+2,___flmul@a+2
  2919   002ACC  C077  F016         	movff	___cosdf@z+3,___flmul@a+3
  2920   002AD0  EC09  F00D         	call	___flmul	;wreg free
  2921   002AD4  C00F  F070         	movff	?___flmul,___cosdf@w
  2922   002AD8  C010  F071         	movff	?___flmul+1,___cosdf@w+1
  2923   002ADC  C011  F072         	movff	?___flmul+2,___cosdf@w+2
  2924   002AE0  C012  F073         	movff	?___flmul+3,___cosdf@w+3
  2925   002AE4  0E17               	movlw	23
  2926   002AE6  6E13               	movwf	___flmul@a^0,c
  2927   002AE8  0E9A               	movlw	154
  2928   002AEA  6E14               	movwf	(___flmul@a+1)^0,c
  2929   002AEC  0ECC               	movlw	204
  2930   002AEE  6E15               	movwf	(___flmul@a+2)^0,c
  2931   002AF0  0E37               	movlw	55
  2932   002AF2  6E16               	movwf	(___flmul@a+3)^0,c
  2933   002AF4  C074  F00F         	movff	___cosdf@z,___flmul@b
  2934   002AF8  C075  F010         	movff	___cosdf@z+1,___flmul@b+1
  2935   002AFC  C076  F011         	movff	___cosdf@z+2,___flmul@b+2
  2936   002B00  C077  F012         	movff	___cosdf@z+3,___flmul@b+3
  2937   002B04  EC09  F00D         	call	___flmul	;wreg free
  2938   002B08  C00F  F041         	movff	?___flmul,___fladd@b
  2939   002B0C  C010  F042         	movff	?___flmul+1,___fladd@b+1
  2940   002B10  C011  F043         	movff	?___flmul+2,___fladd@b+2
  2941   002B14  C012  F044         	movff	?___flmul+3,___fladd@b+3
  2942   002B18  0E3F               	movlw	63
  2943   002B1A  6E45               	movwf	___fladd@a^0,c
  2944   002B1C  0E04               	movlw	4
  2945   002B1E  6E46               	movwf	(___fladd@a+1)^0,c
  2946   002B20  0EB6               	movlw	182
  2947   002B22  6E47               	movwf	(___fladd@a+2)^0,c
  2948   002B24  0EBA               	movlw	186
  2949   002B26  6E48               	movwf	(___fladd@a+3)^0,c
  2950   002B28  ECA9  F00A         	call	___fladd	;wreg free
  2951   002B2C  C041  F060         	movff	?___fladd,___cosdf@r
  2952   002B30  C042  F061         	movff	?___fladd+1,___cosdf@r+1
  2953   002B34  C043  F062         	movff	?___fladd+2,___cosdf@r+2
  2954   002B38  C044  F063         	movff	?___fladd+3,___cosdf@r+3
  2955   002B3C  0E00               	movlw	0
  2956   002B3E  6E45               	movwf	___fladd@a^0,c
  2957   002B40  0E00               	movlw	0
  2958   002B42  6E46               	movwf	(___fladd@a+1)^0,c
  2959   002B44  0E80               	movlw	128
  2960   002B46  6E47               	movwf	(___fladd@a+2)^0,c
  2961   002B48  0E3F               	movlw	63
  2962   002B4A  6E48               	movwf	(___fladd@a+3)^0,c
  2963   002B4C  0E00               	movlw	0
  2964   002B4E  6E13               	movwf	___flmul@a^0,c
  2965   002B50  0E00               	movlw	0
  2966   002B52  6E14               	movwf	(___flmul@a+1)^0,c
  2967   002B54  0E00               	movlw	0
  2968   002B56  6E15               	movwf	(___flmul@a+2)^0,c
  2969   002B58  0EBF               	movlw	191
  2970   002B5A  6E16               	movwf	(___flmul@a+3)^0,c
  2971   002B5C  C074  F00F         	movff	___cosdf@z,___flmul@b
  2972   002B60  C075  F010         	movff	___cosdf@z+1,___flmul@b+1
  2973   002B64  C076  F011         	movff	___cosdf@z+2,___flmul@b+2
  2974   002B68  C077  F012         	movff	___cosdf@z+3,___flmul@b+3
  2975   002B6C  EC09  F00D         	call	___flmul	;wreg free
  2976   002B70  C00F  F041         	movff	?___flmul,___fladd@b
  2977   002B74  C010  F042         	movff	?___flmul+1,___fladd@b+1
  2978   002B78  C011  F043         	movff	?___flmul+2,___fladd@b+2
  2979   002B7C  C012  F044         	movff	?___flmul+3,___fladd@b+3
  2980   002B80  ECA9  F00A         	call	___fladd	;wreg free
  2981   002B84  C041  F064         	movff	?___fladd,___cosdf$1884
  2982   002B88  C042  F065         	movff	?___fladd+1,___cosdf$1884+1
  2983   002B8C  C043  F066         	movff	?___fladd+2,___cosdf$1884+2
  2984   002B90  C044  F067         	movff	?___fladd+3,___cosdf$1884+3
  2985   002B94  C074  F013         	movff	___cosdf@z,___flmul@a
  2986   002B98  C075  F014         	movff	___cosdf@z+1,___flmul@a+1
  2987   002B9C  C076  F015         	movff	___cosdf@z+2,___flmul@a+2
  2988   002BA0  C077  F016         	movff	___cosdf@z+3,___flmul@a+3
  2989   002BA4  C070  F00F         	movff	___cosdf@w,___flmul@b
  2990   002BA8  C071  F010         	movff	___cosdf@w+1,___flmul@b+1
  2991   002BAC  C072  F011         	movff	___cosdf@w+2,___flmul@b+2
  2992   002BB0  C073  F012         	movff	___cosdf@w+3,___flmul@b+3
  2993   002BB4  EC09  F00D         	call	___flmul	;wreg free
  2994   002BB8  C00F  F068         	movff	?___flmul,___cosdf$1885
  2995   002BBC  C010  F069         	movff	?___flmul+1,___cosdf$1885+1
  2996   002BC0  C011  F06A         	movff	?___flmul+2,___cosdf$1885+2
  2997   002BC4  C012  F06B         	movff	?___flmul+3,___cosdf$1885+3
  2998   002BC8  0E9F               	movlw	159
  2999   002BCA  6E13               	movwf	___flmul@a^0,c
  3000   002BCC  0EAA               	movlw	170
  3001   002BCE  6E14               	movwf	(___flmul@a+1)^0,c
  3002   002BD0  0E2A               	movlw	42
  3003   002BD2  6E15               	movwf	(___flmul@a+2)^0,c
  3004   002BD4  0E3D               	movlw	61
  3005   002BD6  6E16               	movwf	(___flmul@a+3)^0,c
  3006   002BD8  C070  F00F         	movff	___cosdf@w,___flmul@b
  3007   002BDC  C071  F010         	movff	___cosdf@w+1,___flmul@b+1
  3008   002BE0  C072  F011         	movff	___cosdf@w+2,___flmul@b+2
  3009   002BE4  C073  F012         	movff	___cosdf@w+3,___flmul@b+3
  3010   002BE8  EC09  F00D         	call	___flmul	;wreg free
  3011   002BEC  C00F  F045         	movff	?___flmul,___fladd@a
  3012   002BF0  C010  F046         	movff	?___flmul+1,___fladd@a+1
  3013   002BF4  C011  F047         	movff	?___flmul+2,___fladd@a+2
  3014   002BF8  C012  F048         	movff	?___flmul+3,___fladd@a+3
  3015   002BFC  C064  F041         	movff	___cosdf$1884,___fladd@b
  3016   002C00  C065  F042         	movff	___cosdf$1884+1,___fladd@b+1
  3017   002C04  C066  F043         	movff	___cosdf$1884+2,___fladd@b+2
  3018   002C08  C067  F044         	movff	___cosdf$1884+3,___fladd@b+3
  3019   002C0C  ECA9  F00A         	call	___fladd	;wreg free
  3020   002C10  C041  F06C         	movff	?___fladd,___cosdf$1886
  3021   002C14  C042  F06D         	movff	?___fladd+1,___cosdf$1886+1
  3022   002C18  C043  F06E         	movff	?___fladd+2,___cosdf$1886+2
  3023   002C1C  C044  F06F         	movff	?___fladd+3,___cosdf$1886+3
  3024   002C20  C06C  F041         	movff	___cosdf$1886,___fladd@b
  3025   002C24  C06D  F042         	movff	___cosdf$1886+1,___fladd@b+1
  3026   002C28  C06E  F043         	movff	___cosdf$1886+2,___fladd@b+2
  3027   002C2C  C06F  F044         	movff	___cosdf$1886+3,___fladd@b+3
  3028   002C30  C060  F013         	movff	___cosdf@r,___flmul@a
  3029   002C34  C061  F014         	movff	___cosdf@r+1,___flmul@a+1
  3030   002C38  C062  F015         	movff	___cosdf@r+2,___flmul@a+2
  3031   002C3C  C063  F016         	movff	___cosdf@r+3,___flmul@a+3
  3032   002C40  C068  F00F         	movff	___cosdf$1885,___flmul@b
  3033   002C44  C069  F010         	movff	___cosdf$1885+1,___flmul@b+1
  3034   002C48  C06A  F011         	movff	___cosdf$1885+2,___flmul@b+2
  3035   002C4C  C06B  F012         	movff	___cosdf$1885+3,___flmul@b+3
  3036   002C50  EC09  F00D         	call	___flmul	;wreg free
  3037   002C54  C00F  F045         	movff	?___flmul,___fladd@a
  3038   002C58  C010  F046         	movff	?___flmul+1,___fladd@a+1
  3039   002C5C  C011  F047         	movff	?___flmul+2,___fladd@a+2
  3040   002C60  C012  F048         	movff	?___flmul+3,___fladd@a+3
  3041   002C64  ECA9  F00A         	call	___fladd	;wreg free
  3042   002C68  C041  F051         	movff	?___fladd,?___cosdf
  3043   002C6C  C042  F052         	movff	?___fladd+1,?___cosdf+1
  3044   002C70  C043  F053         	movff	?___fladd+2,?___cosdf+2
  3045   002C74  C044  F054         	movff	?___fladd+3,?___cosdf+3
  3046   002C78  0012               	return		;funcret
  3047   002C7A                     __end_of___cosdf:
  3048                           	callstack 0
  3049                           
  3050 ;; *************** function ___flmul *****************
  3051 ;; Defined at:
  3052 ;;		line 8 in file "C:\Program Files\Microchip\xc8\v2.46\pic\sources\c99\common\sprcmul.c"
  3053 ;; Parameters:    Size  Location     Type
  3054 ;;  b               4   14[COMRAM] float 
  3055 ;;  a               4   18[COMRAM] float 
  3056 ;; Auto vars:     Size  Location     Type
  3057 ;;  prod            4   33[COMRAM] struct .
  3058 ;;  grs             4   27[COMRAM] unsigned long 
  3059 ;;  temp            2   37[COMRAM] struct .
  3060 ;;  bexp            1   32[COMRAM] unsigned char 
  3061 ;;  aexp            1   31[COMRAM] unsigned char 
  3062 ;;  sign            1   26[COMRAM] unsigned char 
  3063 ;; Return value:  Size  Location     Type
  3064 ;;                  4   14[COMRAM] unsigned char 
  3065 ;; Registers used:
  3066 ;;		wreg, status,2, status,0, prodl, prodh
  3067 ;; Tracked objects:
  3068 ;;		On entry : 0/0
  3069 ;;		On exit  : 0/0
  3070 ;;		Unchanged: 0/0
  3071 ;; Data sizes:     COMRAM   BANK0   BANK1   BANK2   BANK3   BANK4   BANK5   BANK6   BANK7   BANK8   BANK9  BANK10  BANK1
      +1  BANK12  BANK13  BANK14  BANK15
  3072 ;;      Params:         8       0       0       0       0       0       0       0       0       0       0       0       
      +0       0       0       0       0
  3073 ;;      Locals:        13       0       0       0       0       0       0       0       0       0       0       0       
      +0       0       0       0       0
  3074 ;;      Temps:          4       0       0       0       0       0       0       0       0       0       0       0       
      +0       0       0       0       0
  3075 ;;      Totals:        25       0       0       0       0       0       0       0       0       0       0       0       
      +0       0       0       0       0
  3076 ;;Total ram usage:       25 bytes
  3077 ;; Hardware stack levels used: 1
  3078 ;; This function calls:
  3079 ;;		Nothing
  3080 ;; This function is called by:
  3081 ;;		_main
  3082 ;;		___cosdf
  3083 ;;		___rem_pio2f
  3084 ;;		___sindf
  3085 ;; This function uses a non-reentrant model
  3086 ;;
  3087                           
  3088                           	psect	text10
  3089   001A12                     __ptext10:
  3090                           	callstack 0
  3091   001A12                     ___flmul:
  3092                           	callstack 28
  3093   001A12  5012               	movf	(___flmul@b+3)^0,w,c
  3094   001A14  0B80               	andlw	128
  3095   001A16  6E1B               	movwf	___flmul@sign^0,c
  3096   001A18  5012               	movf	(___flmul@b+3)^0,w,c
  3097   001A1A  2412               	addwf	(___flmul@b+3)^0,w,c
  3098   001A1C  6E21               	movwf	___flmul@bexp^0,c
  3099   001A1E  AE11               	btfss	(___flmul@b+2)^0,7,c
  3100   001A20  EF14  F00D         	goto	u2121
  3101   001A24  EF16  F00D         	goto	u2120
  3102   001A28                     u2121:
  3103   001A28  EF17  F00D         	goto	l2218
  3104   001A2C                     u2120:
  3105   001A2C  8021               	bsf	___flmul@bexp^0,0,c
  3106   001A2E                     l2218:
  3107   001A2E  5021               	movf	___flmul@bexp^0,w,c
  3108   001A30  B4D8               	btfsc	status,2,c
  3109   001A32  EF1D  F00D         	goto	u2131
  3110   001A36  EF1F  F00D         	goto	u2130
  3111   001A3A                     u2131:
  3112   001A3A  EF32  F00D         	goto	l2226
  3113   001A3E                     u2130:
  3114   001A3E  2821               	incf	___flmul@bexp^0,w,c
  3115   001A40  A4D8               	btfss	status,2,c
  3116   001A42  EF25  F00D         	goto	u2141
  3117   001A46  EF27  F00D         	goto	u2140
  3118   001A4A                     u2141:
  3119   001A4A  EF2F  F00D         	goto	l2224
  3120   001A4E                     u2140:
  3121   001A4E  0E00               	movlw	0
  3122   001A50  6E0F               	movwf	___flmul@b^0,c
  3123   001A52  0E00               	movlw	0
  3124   001A54  6E10               	movwf	(___flmul@b+1)^0,c
  3125   001A56  0E00               	movlw	0
  3126   001A58  6E11               	movwf	(___flmul@b+2)^0,c
  3127   001A5A  0E00               	movlw	0
  3128   001A5C  6E12               	movwf	(___flmul@b+3)^0,c
  3129   001A5E                     l2224:
  3130   001A5E  8E11               	bsf	(___flmul@b+2)^0,7,c
  3131   001A60  EF3A  F00D         	goto	l2228
  3132   001A64                     l2226:
  3133   001A64  0E00               	movlw	0
  3134   001A66  6E0F               	movwf	___flmul@b^0,c
  3135   001A68  0E00               	movlw	0
  3136   001A6A  6E10               	movwf	(___flmul@b+1)^0,c
  3137   001A6C  0E00               	movlw	0
  3138   001A6E  6E11               	movwf	(___flmul@b+2)^0,c
  3139   001A70  0E00               	movlw	0
  3140   001A72  6E12               	movwf	(___flmul@b+3)^0,c
  3141   001A74                     l2228:
  3142   001A74  5016               	movf	(___flmul@a+3)^0,w,c
  3143   001A76  0B80               	andlw	128
  3144   001A78  1A1B               	xorwf	___flmul@sign^0,f,c
  3145   001A7A  5016               	movf	(___flmul@a+3)^0,w,c
  3146   001A7C  2416               	addwf	(___flmul@a+3)^0,w,c
  3147   001A7E  6E20               	movwf	___flmul@aexp^0,c
  3148   001A80  AE15               	btfss	(___flmul@a+2)^0,7,c
  3149   001A82  EF45  F00D         	goto	u2151
  3150   001A86  EF47  F00D         	goto	u2150
  3151   001A8A                     u2151:
  3152   001A8A  EF48  F00D         	goto	l2236
  3153   001A8E                     u2150:
  3154   001A8E  8020               	bsf	___flmul@aexp^0,0,c
  3155   001A90                     l2236:
  3156   001A90  5020               	movf	___flmul@aexp^0,w,c
  3157   001A92  B4D8               	btfsc	status,2,c
  3158   001A94  EF4E  F00D         	goto	u2161
  3159   001A98  EF50  F00D         	goto	u2160
  3160   001A9C                     u2161:
  3161   001A9C  EF63  F00D         	goto	l2244
  3162   001AA0                     u2160:
  3163   001AA0  2820               	incf	___flmul@aexp^0,w,c
  3164   001AA2  A4D8               	btfss	status,2,c
  3165   001AA4  EF56  F00D         	goto	u2171
  3166   001AA8  EF58  F00D         	goto	u2170
  3167   001AAC                     u2171:
  3168   001AAC  EF60  F00D         	goto	l2242
  3169   001AB0                     u2170:
  3170   001AB0  0E00               	movlw	0
  3171   001AB2  6E13               	movwf	___flmul@a^0,c
  3172   001AB4  0E00               	movlw	0
  3173   001AB6  6E14               	movwf	(___flmul@a+1)^0,c
  3174   001AB8  0E00               	movlw	0
  3175   001ABA  6E15               	movwf	(___flmul@a+2)^0,c
  3176   001ABC  0E00               	movlw	0
  3177   001ABE  6E16               	movwf	(___flmul@a+3)^0,c
  3178   001AC0                     l2242:
  3179   001AC0  8E15               	bsf	(___flmul@a+2)^0,7,c
  3180   001AC2  EF6B  F00D         	goto	l706
  3181   001AC6                     l2244:
  3182   001AC6  0E00               	movlw	0
  3183   001AC8  6E13               	movwf	___flmul@a^0,c
  3184   001ACA  0E00               	movlw	0
  3185   001ACC  6E14               	movwf	(___flmul@a+1)^0,c
  3186   001ACE  0E00               	movlw	0
  3187   001AD0  6E15               	movwf	(___flmul@a+2)^0,c
  3188   001AD2  0E00               	movlw	0
  3189   001AD4  6E16               	movwf	(___flmul@a+3)^0,c
  3190   001AD6                     l706:
  3191   001AD6  5020               	movf	___flmul@aexp^0,w,c
  3192   001AD8  B4D8               	btfsc	status,2,c
  3193   001ADA  EF71  F00D         	goto	u2181
  3194   001ADE  EF73  F00D         	goto	u2180
  3195   001AE2                     u2181:
  3196   001AE2  EF7B  F00D         	goto	l2248
  3197   001AE6                     u2180:
  3198   001AE6  5021               	movf	___flmul@bexp^0,w,c
  3199   001AE8  A4D8               	btfss	status,2,c
  3200   001AEA  EF79  F00D         	goto	u2191
  3201   001AEE  EF7B  F00D         	goto	u2190
  3202   001AF2                     u2191:
  3203   001AF2  EF85  F00D         	goto	l2252
  3204   001AF6                     u2190:
  3205   001AF6                     l2248:
  3206   001AF6  0E00               	movlw	0
  3207   001AF8  6E0F               	movwf	?___flmul^0,c
  3208   001AFA  0E00               	movlw	0
  3209   001AFC  6E10               	movwf	(?___flmul+1)^0,c
  3210   001AFE  0E00               	movlw	0
  3211   001B00  6E11               	movwf	(?___flmul+2)^0,c
  3212   001B02  0E00               	movlw	0
  3213   001B04  6E12               	movwf	(?___flmul+3)^0,c
  3214   001B06  EF1D  F00F         	goto	l710
  3215   001B0A                     l2252:
  3216   001B0A  5015               	movf	(___flmul@a+2)^0,w,c
  3217   001B0C  020F               	mulwf	___flmul@b^0,c
  3218   001B0E  CFF3 F026          	movff	prodl,___flmul@temp
  3219   001B12  CFF4 F027          	movff	prodh,___flmul@temp+1
  3220   001B16  5026               	movf	___flmul@temp^0,w,c
  3221   001B18  6E1C               	movwf	___flmul@grs^0,c
  3222   001B1A  6A1D               	clrf	(___flmul@grs+1)^0,c
  3223   001B1C  6A1E               	clrf	(___flmul@grs+2)^0,c
  3224   001B1E  6A1F               	clrf	(___flmul@grs+3)^0,c
  3225   001B20  5027               	movf	(___flmul@temp+1)^0,w,c
  3226   001B22  6E22               	movwf	___flmul@prod^0,c
  3227   001B24  6A23               	clrf	(___flmul@prod+1)^0,c
  3228   001B26  6A24               	clrf	(___flmul@prod+2)^0,c
  3229   001B28  6A25               	clrf	(___flmul@prod+3)^0,c
  3230   001B2A  5014               	movf	(___flmul@a+1)^0,w,c
  3231   001B2C  0210               	mulwf	(___flmul@b+1)^0,c
  3232   001B2E  CFF3 F026          	movff	prodl,___flmul@temp
  3233   001B32  CFF4 F027          	movff	prodh,___flmul@temp+1
  3234   001B36  5026               	movf	___flmul@temp^0,w,c
  3235   001B38  261C               	addwf	___flmul@grs^0,f,c
  3236   001B3A  0E00               	movlw	0
  3237   001B3C  221D               	addwfc	(___flmul@grs+1)^0,f,c
  3238   001B3E  221E               	addwfc	(___flmul@grs+2)^0,f,c
  3239   001B40  221F               	addwfc	(___flmul@grs+3)^0,f,c
  3240   001B42  5027               	movf	(___flmul@temp+1)^0,w,c
  3241   001B44  2622               	addwf	___flmul@prod^0,f,c
  3242   001B46  0E00               	movlw	0
  3243   001B48  2223               	addwfc	(___flmul@prod+1)^0,f,c
  3244   001B4A  2224               	addwfc	(___flmul@prod+2)^0,f,c
  3245   001B4C  2225               	addwfc	(___flmul@prod+3)^0,f,c
  3246   001B4E  5013               	movf	___flmul@a^0,w,c
  3247   001B50  0211               	mulwf	(___flmul@b+2)^0,c
  3248   001B52  CFF3 F026          	movff	prodl,___flmul@temp
  3249   001B56  CFF4 F027          	movff	prodh,___flmul@temp+1
  3250   001B5A  5026               	movf	___flmul@temp^0,w,c
  3251   001B5C  261C               	addwf	___flmul@grs^0,f,c
  3252   001B5E  0E00               	movlw	0
  3253   001B60  221D               	addwfc	(___flmul@grs+1)^0,f,c
  3254   001B62  221E               	addwfc	(___flmul@grs+2)^0,f,c
  3255   001B64  221F               	addwfc	(___flmul@grs+3)^0,f,c
  3256   001B66  5027               	movf	(___flmul@temp+1)^0,w,c
  3257   001B68  2622               	addwf	___flmul@prod^0,f,c
  3258   001B6A  0E00               	movlw	0
  3259   001B6C  2223               	addwfc	(___flmul@prod+1)^0,f,c
  3260   001B6E  2224               	addwfc	(___flmul@prod+2)^0,f,c
  3261   001B70  2225               	addwfc	(___flmul@prod+3)^0,f,c
  3262   001B72  C01E  F01F         	movff	___flmul@grs+2,___flmul@grs+3
  3263   001B76  C01D  F01E         	movff	___flmul@grs+1,___flmul@grs+2
  3264   001B7A  C01C  F01D         	movff	___flmul@grs,___flmul@grs+1
  3265   001B7E  6A1C               	clrf	___flmul@grs^0,c
  3266   001B80  5013               	movf	___flmul@a^0,w,c
  3267   001B82  0210               	mulwf	(___flmul@b+1)^0,c
  3268   001B84  CFF3 F026          	movff	prodl,___flmul@temp
  3269   001B88  CFF4 F027          	movff	prodh,___flmul@temp+1
  3270   001B8C  5026               	movf	___flmul@temp^0,w,c
  3271   001B8E  261C               	addwf	___flmul@grs^0,f,c
  3272   001B90  5027               	movf	(___flmul@temp+1)^0,w,c
  3273   001B92  221D               	addwfc	(___flmul@grs+1)^0,f,c
  3274   001B94  0E00               	movlw	0
  3275   001B96  221E               	addwfc	(___flmul@grs+2)^0,f,c
  3276   001B98  0E00               	movlw	0
  3277   001B9A  221F               	addwfc	(___flmul@grs+3)^0,f,c
  3278   001B9C  5014               	movf	(___flmul@a+1)^0,w,c
  3279   001B9E  020F               	mulwf	___flmul@b^0,c
  3280   001BA0  CFF3 F026          	movff	prodl,___flmul@temp
  3281   001BA4  CFF4 F027          	movff	prodh,___flmul@temp+1
  3282   001BA8  5026               	movf	___flmul@temp^0,w,c
  3283   001BAA  261C               	addwf	___flmul@grs^0,f,c
  3284   001BAC  5027               	movf	(___flmul@temp+1)^0,w,c
  3285   001BAE  221D               	addwfc	(___flmul@grs+1)^0,f,c
  3286   001BB0  0E00               	movlw	0
  3287   001BB2  221E               	addwfc	(___flmul@grs+2)^0,f,c
  3288   001BB4  0E00               	movlw	0
  3289   001BB6  221F               	addwfc	(___flmul@grs+3)^0,f,c
  3290   001BB8  C01E  F01F         	movff	___flmul@grs+2,___flmul@grs+3
  3291   001BBC  C01D  F01E         	movff	___flmul@grs+1,___flmul@grs+2
  3292   001BC0  C01C  F01D         	movff	___flmul@grs,___flmul@grs+1
  3293   001BC4  6A1C               	clrf	___flmul@grs^0,c
  3294   001BC6  5013               	movf	___flmul@a^0,w,c
  3295   001BC8  020F               	mulwf	___flmul@b^0,c
  3296   001BCA  CFF3 F026          	movff	prodl,___flmul@temp
  3297   001BCE  CFF4 F027          	movff	prodh,___flmul@temp+1
  3298   001BD2  5026               	movf	___flmul@temp^0,w,c
  3299   001BD4  261C               	addwf	___flmul@grs^0,f,c
  3300   001BD6  5027               	movf	(___flmul@temp+1)^0,w,c
  3301   001BD8  221D               	addwfc	(___flmul@grs+1)^0,f,c
  3302   001BDA  0E00               	movlw	0
  3303   001BDC  221E               	addwfc	(___flmul@grs+2)^0,f,c
  3304   001BDE  0E00               	movlw	0
  3305   001BE0  221F               	addwfc	(___flmul@grs+3)^0,f,c
  3306   001BE2  5015               	movf	(___flmul@a+2)^0,w,c
  3307   001BE4  0210               	mulwf	(___flmul@b+1)^0,c
  3308   001BE6  CFF3 F026          	movff	prodl,___flmul@temp
  3309   001BEA  CFF4 F027          	movff	prodh,___flmul@temp+1
  3310   001BEE  5026               	movf	___flmul@temp^0,w,c
  3311   001BF0  2622               	addwf	___flmul@prod^0,f,c
  3312   001BF2  5027               	movf	(___flmul@temp+1)^0,w,c
  3313   001BF4  2223               	addwfc	(___flmul@prod+1)^0,f,c
  3314   001BF6  0E00               	movlw	0
  3315   001BF8  2224               	addwfc	(___flmul@prod+2)^0,f,c
  3316   001BFA  0E00               	movlw	0
  3317   001BFC  2225               	addwfc	(___flmul@prod+3)^0,f,c
  3318   001BFE  5014               	movf	(___flmul@a+1)^0,w,c
  3319   001C00  0211               	mulwf	(___flmul@b+2)^0,c
  3320   001C02  CFF3 F026          	movff	prodl,___flmul@temp
  3321   001C06  CFF4 F027          	movff	prodh,___flmul@temp+1
  3322   001C0A  5026               	movf	___flmul@temp^0,w,c
  3323   001C0C  2622               	addwf	___flmul@prod^0,f,c
  3324   001C0E  5027               	movf	(___flmul@temp+1)^0,w,c
  3325   001C10  2223               	addwfc	(___flmul@prod+1)^0,f,c
  3326   001C12  0E00               	movlw	0
  3327   001C14  2224               	addwfc	(___flmul@prod+2)^0,f,c
  3328   001C16  0E00               	movlw	0
  3329   001C18  2225               	addwfc	(___flmul@prod+3)^0,f,c
  3330   001C1A  5015               	movf	(___flmul@a+2)^0,w,c
  3331   001C1C  0211               	mulwf	(___flmul@b+2)^0,c
  3332   001C1E  CFF3 F026          	movff	prodl,___flmul@temp
  3333   001C22  CFF4 F027          	movff	prodh,___flmul@temp+1
  3334   001C26  5026               	movf	___flmul@temp^0,w,c
  3335   001C28  6E17               	movwf	??___flmul^0,c
  3336   001C2A  5027               	movf	(___flmul@temp+1)^0,w,c
  3337   001C2C  6E18               	movwf	(??___flmul+1)^0,c
  3338   001C2E  6A19               	clrf	(??___flmul+2)^0,c
  3339   001C30  6A1A               	clrf	(??___flmul+3)^0,c
  3340   001C32  C019  F01A         	movff	??___flmul+2,??___flmul+3
  3341   001C36  C018  F019         	movff	??___flmul+1,??___flmul+2
  3342   001C3A  C017  F018         	movff	??___flmul,??___flmul+1
  3343   001C3E  6A17               	clrf	??___flmul^0,c
  3344   001C40  5017               	movf	??___flmul^0,w,c
  3345   001C42  2622               	addwf	___flmul@prod^0,f,c
  3346   001C44  5018               	movf	(??___flmul+1)^0,w,c
  3347   001C46  2223               	addwfc	(___flmul@prod+1)^0,f,c
  3348   001C48  5019               	movf	(??___flmul+2)^0,w,c
  3349   001C4A  2224               	addwfc	(___flmul@prod+2)^0,f,c
  3350   001C4C  501A               	movf	(??___flmul+3)^0,w,c
  3351   001C4E  2225               	addwfc	(___flmul@prod+3)^0,f,c
  3352   001C50  C01C  F017         	movff	___flmul@grs,??___flmul
  3353   001C54  C01D  F018         	movff	___flmul@grs+1,??___flmul+1
  3354   001C58  C01E  F019         	movff	___flmul@grs+2,??___flmul+2
  3355   001C5C  C01F  F01A         	movff	___flmul@grs+3,??___flmul+3
  3356   001C60  0E19               	movlw	25
  3357   001C62  EF38  F00E         	goto	u2200
  3358   001C66                     u2205:
  3359   001C66  90D8               	bcf	status,0,c
  3360   001C68  321A               	rrcf	(??___flmul+3)^0,f,c
  3361   001C6A  3219               	rrcf	(??___flmul+2)^0,f,c
  3362   001C6C  3218               	rrcf	(??___flmul+1)^0,f,c
  3363   001C6E  3217               	rrcf	??___flmul^0,f,c
  3364   001C70                     u2200:
  3365   001C70  2EE8               	decfsz	wreg,f,c
  3366   001C72  EF33  F00E         	goto	u2205
  3367   001C76  5017               	movf	??___flmul^0,w,c
  3368   001C78  2622               	addwf	___flmul@prod^0,f,c
  3369   001C7A  5018               	movf	(??___flmul+1)^0,w,c
  3370   001C7C  2223               	addwfc	(___flmul@prod+1)^0,f,c
  3371   001C7E  5019               	movf	(??___flmul+2)^0,w,c
  3372   001C80  2224               	addwfc	(___flmul@prod+2)^0,f,c
  3373   001C82  501A               	movf	(??___flmul+3)^0,w,c
  3374   001C84  2225               	addwfc	(___flmul@prod+3)^0,f,c
  3375   001C86  C01E  F01F         	movff	___flmul@grs+2,___flmul@grs+3
  3376   001C8A  C01D  F01E         	movff	___flmul@grs+1,___flmul@grs+2
  3377   001C8E  C01C  F01D         	movff	___flmul@grs,___flmul@grs+1
  3378   001C92  6A1C               	clrf	___flmul@grs^0,c
  3379   001C94  5020               	movf	___flmul@aexp^0,w,c
  3380   001C96  C021  F017         	movff	___flmul@bexp,??___flmul
  3381   001C9A  6A18               	clrf	(??___flmul+1)^0,c
  3382   001C9C  2617               	addwf	??___flmul^0,f,c
  3383   001C9E  0E00               	movlw	0
  3384   001CA0  2218               	addwfc	(??___flmul+1)^0,f,c
  3385   001CA2  0E82               	movlw	130
  3386   001CA4  2417               	addwf	??___flmul^0,w,c
  3387   001CA6  6E26               	movwf	___flmul@temp^0,c
  3388   001CA8  0EFF               	movlw	255
  3389   001CAA  2018               	addwfc	(??___flmul+1)^0,w,c
  3390   001CAC  6E27               	movwf	(___flmul@temp+1)^0,c
  3391   001CAE  EF6E  F00E         	goto	l2300
  3392   001CB2                     l2294:
  3393   001CB2  90D8               	bcf	status,0,c
  3394   001CB4  3622               	rlcf	___flmul@prod^0,f,c
  3395   001CB6  3623               	rlcf	(___flmul@prod+1)^0,f,c
  3396   001CB8  3624               	rlcf	(___flmul@prod+2)^0,f,c
  3397   001CBA  3625               	rlcf	(___flmul@prod+3)^0,f,c
  3398   001CBC  AE1F               	btfss	(___flmul@grs+3)^0,7,c
  3399   001CBE  EF63  F00E         	goto	u2211
  3400   001CC2  EF65  F00E         	goto	u2210
  3401   001CC6                     u2211:
  3402   001CC6  EF66  F00E         	goto	l713
  3403   001CCA                     u2210:
  3404   001CCA  8022               	bsf	___flmul@prod^0,0,c
  3405   001CCC                     l713:
  3406   001CCC  90D8               	bcf	status,0,c
  3407   001CCE  361C               	rlcf	___flmul@grs^0,f,c
  3408   001CD0  361D               	rlcf	(___flmul@grs+1)^0,f,c
  3409   001CD2  361E               	rlcf	(___flmul@grs+2)^0,f,c
  3410   001CD4  361F               	rlcf	(___flmul@grs+3)^0,f,c
  3411   001CD6  0626               	decf	___flmul@temp^0,f,c
  3412   001CD8  A0D8               	btfss	status,0,c
  3413   001CDA  0627               	decf	(___flmul@temp+1)^0,f,c
  3414   001CDC                     l2300:
  3415   001CDC  AE24               	btfss	(___flmul@prod+2)^0,7,c
  3416   001CDE  EF73  F00E         	goto	u2221
  3417   001CE2  EF75  F00E         	goto	u2220
  3418   001CE6                     u2221:
  3419   001CE6  EF59  F00E         	goto	l2294
  3420   001CEA                     u2220:
  3421   001CEA  0E00               	movlw	0
  3422   001CEC  6E20               	movwf	___flmul@aexp^0,c
  3423   001CEE  AE1F               	btfss	(___flmul@grs+3)^0,7,c
  3424   001CF0  EF7C  F00E         	goto	u2231
  3425   001CF4  EF7E  F00E         	goto	u2230
  3426   001CF8                     u2231:
  3427   001CF8  EFA2  F00E         	goto	l715
  3428   001CFC                     u2230:
  3429   001CFC  0EFF               	movlw	255
  3430   001CFE  141C               	andwf	___flmul@grs^0,w,c
  3431   001D00  6E17               	movwf	??___flmul^0,c
  3432   001D02  0EFF               	movlw	255
  3433   001D04  141D               	andwf	(___flmul@grs+1)^0,w,c
  3434   001D06  6E18               	movwf	(??___flmul+1)^0,c
  3435   001D08  0EFF               	movlw	255
  3436   001D0A  141E               	andwf	(___flmul@grs+2)^0,w,c
  3437   001D0C  6E19               	movwf	(??___flmul+2)^0,c
  3438   001D0E  0E7F               	movlw	127
  3439   001D10  141F               	andwf	(___flmul@grs+3)^0,w,c
  3440   001D12  6E1A               	movwf	(??___flmul+3)^0,c
  3441   001D14  5017               	movf	??___flmul^0,w,c
  3442   001D16  1018               	iorwf	(??___flmul+1)^0,w,c
  3443   001D18  1019               	iorwf	(??___flmul+2)^0,w,c
  3444   001D1A  101A               	iorwf	(??___flmul+3)^0,w,c
  3445   001D1C  B4D8               	btfsc	status,2,c
  3446   001D1E  EF93  F00E         	goto	u2241
  3447   001D22  EF95  F00E         	goto	u2240
  3448   001D26                     u2241:
  3449   001D26  EF99  F00E         	goto	l716
  3450   001D2A                     u2240:
  3451   001D2A                     l2308:
  3452   001D2A  0E01               	movlw	1
  3453   001D2C  6E20               	movwf	___flmul@aexp^0,c
  3454   001D2E  EFA2  F00E         	goto	l715
  3455   001D32                     l716:
  3456   001D32  A022               	btfss	___flmul@prod^0,0,c
  3457   001D34  EF9E  F00E         	goto	u2251
  3458   001D38  EFA0  F00E         	goto	u2250
  3459   001D3C                     u2251:
  3460   001D3C  EFA2  F00E         	goto	l715
  3461   001D40                     u2250:
  3462   001D40  EF95  F00E         	goto	l2308
  3463   001D44                     l715:
  3464   001D44  5020               	movf	___flmul@aexp^0,w,c
  3465   001D46  B4D8               	btfsc	status,2,c
  3466   001D48  EFA8  F00E         	goto	u2261
  3467   001D4C  EFAA  F00E         	goto	u2260
  3468   001D50                     u2261:
  3469   001D50  EFCE  F00E         	goto	l2320
  3470   001D54                     u2260:
  3471   001D54  0E01               	movlw	1
  3472   001D56  2622               	addwf	___flmul@prod^0,f,c
  3473   001D58  0E00               	movlw	0
  3474   001D5A  2223               	addwfc	(___flmul@prod+1)^0,f,c
  3475   001D5C  2224               	addwfc	(___flmul@prod+2)^0,f,c
  3476   001D5E  2225               	addwfc	(___flmul@prod+3)^0,f,c
  3477   001D60  A025               	btfss	(___flmul@prod+3)^0,0,c
  3478   001D62  EFB5  F00E         	goto	u2271
  3479   001D66  EFB7  F00E         	goto	u2270
  3480   001D6A                     u2271:
  3481   001D6A  EFCE  F00E         	goto	l2320
  3482   001D6E                     u2270:
  3483   001D6E  C022  F017         	movff	___flmul@prod,??___flmul
  3484   001D72  C023  F018         	movff	___flmul@prod+1,??___flmul+1
  3485   001D76  C024  F019         	movff	___flmul@prod+2,??___flmul+2
  3486   001D7A  C025  F01A         	movff	___flmul@prod+3,??___flmul+3
  3487   001D7E  341A               	rlcf	(??___flmul+3)^0,w,c
  3488   001D80  321A               	rrcf	(??___flmul+3)^0,f,c
  3489   001D82  3219               	rrcf	(??___flmul+2)^0,f,c
  3490   001D84  3218               	rrcf	(??___flmul+1)^0,f,c
  3491   001D86  3217               	rrcf	??___flmul^0,f,c
  3492   001D88  C017  F022         	movff	??___flmul,___flmul@prod
  3493   001D8C  C018  F023         	movff	??___flmul+1,___flmul@prod+1
  3494   001D90  C019  F024         	movff	??___flmul+2,___flmul@prod+2
  3495   001D94  C01A  F025         	movff	??___flmul+3,___flmul@prod+3
  3496   001D98  4A26               	infsnz	___flmul@temp^0,f,c
  3497   001D9A  2A27               	incf	(___flmul@temp+1)^0,f,c
  3498   001D9C                     l2320:
  3499   001D9C  BE27               	btfsc	(___flmul@temp+1)^0,7,c
  3500   001D9E  EFD9  F00E         	goto	u2281
  3501   001DA2  5027               	movf	(___flmul@temp+1)^0,w,c
  3502   001DA4  E108               	bnz	u2280
  3503   001DA6  2826               	incf	___flmul@temp^0,w,c
  3504   001DA8  A0D8               	btfss	status,0,c
  3505   001DAA  EFD9  F00E         	goto	u2281
  3506   001DAE  EFDB  F00E         	goto	u2280
  3507   001DB2                     u2281:
  3508   001DB2  EFE5  F00E         	goto	l2324
  3509   001DB6                     u2280:
  3510   001DB6  0E00               	movlw	0
  3511   001DB8  6E22               	movwf	___flmul@prod^0,c
  3512   001DBA  0E00               	movlw	0
  3513   001DBC  6E23               	movwf	(___flmul@prod+1)^0,c
  3514   001DBE  0E80               	movlw	128
  3515   001DC0  6E24               	movwf	(___flmul@prod+2)^0,c
  3516   001DC2  0E7F               	movlw	127
  3517   001DC4  6E25               	movwf	(___flmul@prod+3)^0,c
  3518   001DC6  EF13  F00F         	goto	l2336
  3519   001DCA                     l2324:
  3520   001DCA  BE27               	btfsc	(___flmul@temp+1)^0,7,c
  3521   001DCC  EFF2  F00E         	goto	u2290
  3522   001DD0  5027               	movf	(___flmul@temp+1)^0,w,c
  3523   001DD2  E106               	bnz	u2291
  3524   001DD4  0426               	decf	___flmul@temp^0,w,c
  3525   001DD6  B0D8               	btfsc	status,0,c
  3526   001DD8  EFF0  F00E         	goto	u2291
  3527   001DDC  EFF2  F00E         	goto	u2290
  3528   001DE0                     u2291:
  3529   001DE0  EFFE  F00E         	goto	l723
  3530   001DE4                     u2290:
  3531   001DE4  0E00               	movlw	0
  3532   001DE6  6E22               	movwf	___flmul@prod^0,c
  3533   001DE8  0E00               	movlw	0
  3534   001DEA  6E23               	movwf	(___flmul@prod+1)^0,c
  3535   001DEC  0E00               	movlw	0
  3536   001DEE  6E24               	movwf	(___flmul@prod+2)^0,c
  3537   001DF0  0E00               	movlw	0
  3538   001DF2  6E25               	movwf	(___flmul@prod+3)^0,c
  3539   001DF4  0E00               	movlw	0
  3540   001DF6  6E1B               	movwf	___flmul@sign^0,c
  3541   001DF8  EF13  F00F         	goto	l2336
  3542   001DFC                     l723:
  3543   001DFC  C026  F021         	movff	___flmul@temp,___flmul@bexp
  3544   001E00  0EFF               	movlw	255
  3545   001E02  1622               	andwf	___flmul@prod^0,f,c
  3546   001E04  0EFF               	movlw	255
  3547   001E06  1623               	andwf	(___flmul@prod+1)^0,f,c
  3548   001E08  0E7F               	movlw	127
  3549   001E0A  1624               	andwf	(___flmul@prod+2)^0,f,c
  3550   001E0C  0E00               	movlw	0
  3551   001E0E  1625               	andwf	(___flmul@prod+3)^0,f,c
  3552   001E10  A021               	btfss	___flmul@bexp^0,0,c
  3553   001E12  EF0D  F00F         	goto	u2301
  3554   001E16  EF0F  F00F         	goto	u2300
  3555   001E1A                     u2301:
  3556   001E1A  EF10  F00F         	goto	l2334
  3557   001E1E                     u2300:
  3558   001E1E  8E24               	bsf	(___flmul@prod+2)^0,7,c
  3559   001E20                     l2334:
  3560   001E20  90D8               	bcf	status,0,c
  3561   001E22  3021               	rrcf	___flmul@bexp^0,w,c
  3562   001E24  6E25               	movwf	(___flmul@prod+3)^0,c
  3563   001E26                     l2336:
  3564   001E26  501B               	movf	___flmul@sign^0,w,c
  3565   001E28  1225               	iorwf	(___flmul@prod+3)^0,f,c
  3566   001E2A  C022  F00F         	movff	___flmul@prod,?___flmul
  3567   001E2E  C023  F010         	movff	___flmul@prod+1,?___flmul+1
  3568   001E32  C024  F011         	movff	___flmul@prod+2,?___flmul+2
  3569   001E36  C025  F012         	movff	___flmul@prod+3,?___flmul+3
  3570   001E3A                     l710:
  3571   001E3A  0012               	return		;funcret
  3572   001E3C                     __end_of___flmul:
  3573                           	callstack 0
  3574                           
  3575 ;; *************** function ___fladd *****************
  3576 ;; Defined at:
  3577 ;;		line 10 in file "C:\Program Files\Microchip\xc8\v2.46\pic\sources\c99\common\sprcadd.c"
  3578 ;; Parameters:    Size  Location     Type
  3579 ;;  b               4   64[COMRAM] unsigned char 
  3580 ;;  a               4   68[COMRAM] unsigned char 
  3581 ;; Auto vars:     Size  Location     Type
  3582 ;;  grs             1   79[COMRAM] unsigned char 
  3583 ;;  bexp            1   78[COMRAM] unsigned char 
  3584 ;;  aexp            1   77[COMRAM] unsigned char 
  3585 ;;  signs           1   76[COMRAM] unsigned char 
  3586 ;; Return value:  Size  Location     Type
  3587 ;;                  4   64[COMRAM] unsigned char 
  3588 ;; Registers used:
  3589 ;;		wreg, status,2, status,0
  3590 ;; Tracked objects:
  3591 ;;		On entry : 0/0
  3592 ;;		On exit  : 0/0
  3593 ;;		Unchanged: 0/0
  3594 ;; Data sizes:     COMRAM   BANK0   BANK1   BANK2   BANK3   BANK4   BANK5   BANK6   BANK7   BANK8   BANK9  BANK10  BANK1
      +1  BANK12  BANK13  BANK14  BANK15
  3595 ;;      Params:         8       0       0       0       0       0       0       0       0       0       0       0       
      +0       0       0       0       0
  3596 ;;      Locals:         4       0       0       0       0       0       0       0       0       0       0       0       
      +0       0       0       0       0
  3597 ;;      Temps:          4       0       0       0       0       0       0       0       0       0       0       0       
      +0       0       0       0       0
  3598 ;;      Totals:        16       0       0       0       0       0       0       0       0       0       0       0       
      +0       0       0       0       0
  3599 ;;Total ram usage:       16 bytes
  3600 ;; Hardware stack levels used: 1
  3601 ;; This function calls:
  3602 ;;		Nothing
  3603 ;; This function is called by:
  3604 ;;		_main
  3605 ;;		___flsub
  3606 ;;		_sinf
  3607 ;;		___cosdf
  3608 ;;		___rem_pio2f
  3609 ;;		___sindf
  3610 ;; This function uses a non-reentrant model
  3611 ;;
  3612                           
  3613                           	psect	text11
  3614   001552                     __ptext11:
  3615                           	callstack 0
  3616   001552                     ___fladd:
  3617                           	callstack 28
  3618   001552  5044               	movf	(___fladd@b+3)^0,w,c
  3619   001554  0B80               	andlw	128
  3620   001556  6E4D               	movwf	___fladd@signs^0,c
  3621   001558  5044               	movf	(___fladd@b+3)^0,w,c
  3622   00155A  2444               	addwf	(___fladd@b+3)^0,w,c
  3623   00155C  6E4F               	movwf	___fladd@bexp^0,c
  3624   00155E  AE43               	btfss	(___fladd@b+2)^0,7,c
  3625   001560  EFB4  F00A         	goto	u1561
  3626   001564  EFB6  F00A         	goto	u1560
  3627   001568                     u1561:
  3628   001568  EFB7  F00A         	goto	l1918
  3629   00156C                     u1560:
  3630   00156C  804F               	bsf	___fladd@bexp^0,0,c
  3631   00156E                     l1918:
  3632   00156E  504F               	movf	___fladd@bexp^0,w,c
  3633   001570  B4D8               	btfsc	status,2,c
  3634   001572  EFBD  F00A         	goto	u1571
  3635   001576  EFBF  F00A         	goto	u1570
  3636   00157A                     u1571:
  3637   00157A  EFD4  F00A         	goto	l1928
  3638   00157E                     u1570:
  3639   00157E  284F               	incf	___fladd@bexp^0,w,c
  3640   001580  A4D8               	btfss	status,2,c
  3641   001582  EFC5  F00A         	goto	u1581
  3642   001586  EFC7  F00A         	goto	u1580
  3643   00158A                     u1581:
  3644   00158A  EFCF  F00A         	goto	l1924
  3645   00158E                     u1580:
  3646   00158E  0E00               	movlw	0
  3647   001590  6E41               	movwf	___fladd@b^0,c
  3648   001592  0E00               	movlw	0
  3649   001594  6E42               	movwf	(___fladd@b+1)^0,c
  3650   001596  0E00               	movlw	0
  3651   001598  6E43               	movwf	(___fladd@b+2)^0,c
  3652   00159A  0E00               	movlw	0
  3653   00159C  6E44               	movwf	(___fladd@b+3)^0,c
  3654   00159E                     l1924:
  3655   00159E  8E43               	bsf	(___fladd@b+2)^0,7,c
  3656   0015A0  0E00               	movlw	0
  3657   0015A2  6E44               	movwf	(___fladd@b+3)^0,c
  3658   0015A4  EFDC  F00A         	goto	l1930
  3659   0015A8                     l1928:
  3660   0015A8  0E00               	movlw	0
  3661   0015AA  6E41               	movwf	___fladd@b^0,c
  3662   0015AC  0E00               	movlw	0
  3663   0015AE  6E42               	movwf	(___fladd@b+1)^0,c
  3664   0015B0  0E00               	movlw	0
  3665   0015B2  6E43               	movwf	(___fladd@b+2)^0,c
  3666   0015B4  0E00               	movlw	0
  3667   0015B6  6E44               	movwf	(___fladd@b+3)^0,c
  3668   0015B8                     l1930:
  3669   0015B8  5048               	movf	(___fladd@a+3)^0,w,c
  3670   0015BA  0B80               	andlw	128
  3671   0015BC  6E4E               	movwf	___fladd@aexp^0,c
  3672   0015BE  504D               	movf	___fladd@signs^0,w,c
  3673   0015C0  184E               	xorwf	___fladd@aexp^0,w,c
  3674   0015C2  B4D8               	btfsc	status,2,c
  3675   0015C4  EFE6  F00A         	goto	u1591
  3676   0015C8  EFE8  F00A         	goto	u1590
  3677   0015CC                     u1591:
  3678   0015CC  EFE9  F00A         	goto	l1936
  3679   0015D0                     u1590:
  3680   0015D0  8C4D               	bsf	___fladd@signs^0,6,c
  3681   0015D2                     l1936:
  3682   0015D2  5048               	movf	(___fladd@a+3)^0,w,c
  3683   0015D4  2448               	addwf	(___fladd@a+3)^0,w,c
  3684   0015D6  6E4E               	movwf	___fladd@aexp^0,c
  3685   0015D8  AE47               	btfss	(___fladd@a+2)^0,7,c
  3686   0015DA  EFF1  F00A         	goto	u1601
  3687   0015DE  EFF3  F00A         	goto	u1600
  3688   0015E2                     u1601:
  3689   0015E2  EFF4  F00A         	goto	l1942
  3690   0015E6                     u1600:
  3691   0015E6  804E               	bsf	___fladd@aexp^0,0,c
  3692   0015E8                     l1942:
  3693   0015E8  504E               	movf	___fladd@aexp^0,w,c
  3694   0015EA  B4D8               	btfsc	status,2,c
  3695   0015EC  EFFA  F00A         	goto	u1611
  3696   0015F0  EFFC  F00A         	goto	u1610
  3697   0015F4                     u1611:
  3698   0015F4  EF11  F00B         	goto	l1952
  3699   0015F8                     u1610:
  3700   0015F8  284E               	incf	___fladd@aexp^0,w,c
  3701   0015FA  A4D8               	btfss	status,2,c
  3702   0015FC  EF02  F00B         	goto	u1621
  3703   001600  EF04  F00B         	goto	u1620
  3704   001604                     u1621:
  3705   001604  EF0C  F00B         	goto	l1948
  3706   001608                     u1620:
  3707   001608  0E00               	movlw	0
  3708   00160A  6E45               	movwf	___fladd@a^0,c
  3709   00160C  0E00               	movlw	0
  3710   00160E  6E46               	movwf	(___fladd@a+1)^0,c
  3711   001610  0E00               	movlw	0
  3712   001612  6E47               	movwf	(___fladd@a+2)^0,c
  3713   001614  0E00               	movlw	0
  3714   001616  6E48               	movwf	(___fladd@a+3)^0,c
  3715   001618                     l1948:
  3716   001618  8E47               	bsf	(___fladd@a+2)^0,7,c
  3717   00161A  0E00               	movlw	0
  3718   00161C  6E48               	movwf	(___fladd@a+3)^0,c
  3719   00161E  EF19  F00B         	goto	l1954
  3720   001622                     l1952:
  3721   001622  0E00               	movlw	0
  3722   001624  6E45               	movwf	___fladd@a^0,c
  3723   001626  0E00               	movlw	0
  3724   001628  6E46               	movwf	(___fladd@a+1)^0,c
  3725   00162A  0E00               	movlw	0
  3726   00162C  6E47               	movwf	(___fladd@a+2)^0,c
  3727   00162E  0E00               	movlw	0
  3728   001630  6E48               	movwf	(___fladd@a+3)^0,c
  3729   001632                     l1954:
  3730   001632  504F               	movf	___fladd@bexp^0,w,c
  3731   001634  5C4E               	subwf	___fladd@aexp^0,w,c
  3732   001636  B0D8               	btfsc	status,0,c
  3733   001638  EF20  F00B         	goto	u1631
  3734   00163C  EF22  F00B         	goto	u1630
  3735   001640                     u1631:
  3736   001640  EF49  F00B         	goto	l1990
  3737   001644                     u1630:
  3738   001644  AC4D               	btfss	___fladd@signs^0,6,c
  3739   001646  EF27  F00B         	goto	u1641
  3740   00164A  EF29  F00B         	goto	u1640
  3741   00164E                     u1641:
  3742   00164E  EF2B  F00B         	goto	l1960
  3743   001652                     u1640:
  3744   001652  0E80               	movlw	128
  3745   001654  1A4D               	xorwf	___fladd@signs^0,f,c
  3746   001656                     l1960:
  3747   001656  C04F  F050         	movff	___fladd@bexp,___fladd@grs
  3748   00165A  C04E  F04F         	movff	___fladd@aexp,___fladd@bexp
  3749   00165E  C050  F04E         	movff	___fladd@grs,___fladd@aexp
  3750   001662  C041  F050         	movff	___fladd@b,___fladd@grs
  3751   001666  C045  F041         	movff	___fladd@a,___fladd@b
  3752   00166A  C050  F045         	movff	___fladd@grs,___fladd@a
  3753   00166E  C042  F050         	movff	___fladd@b+1,___fladd@grs
  3754   001672  C046  F042         	movff	___fladd@a+1,___fladd@b+1
  3755   001676  C050  F046         	movff	___fladd@grs,___fladd@a+1
  3756   00167A  C043  F050         	movff	___fladd@b+2,___fladd@grs
  3757   00167E  C047  F043         	movff	___fladd@a+2,___fladd@b+2
  3758   001682  C050  F047         	movff	___fladd@grs,___fladd@a+2
  3759   001686  C044  F050         	movff	___fladd@b+3,___fladd@grs
  3760   00168A  C048  F044         	movff	___fladd@a+3,___fladd@b+3
  3761   00168E  C050  F048         	movff	___fladd@grs,___fladd@a+3
  3762   001692                     l1990:
  3763   001692  0E00               	movlw	0
  3764   001694  6E50               	movwf	___fladd@grs^0,c
  3765   001696  504F               	movf	___fladd@bexp^0,w,c
  3766   001698  C04E  F049         	movff	___fladd@aexp,??___fladd
  3767   00169C  6A4A               	clrf	(??___fladd+1)^0,c
  3768   00169E  5E49               	subwf	??___fladd^0,f,c
  3769   0016A0  0E00               	movlw	0
  3770   0016A2  5A4A               	subwfb	(??___fladd+1)^0,f,c
  3771   0016A4  BE4A               	btfsc	(??___fladd+1)^0,7,c
  3772   0016A6  EF5E  F00B         	goto	u1651
  3773   0016AA  504A               	movf	(??___fladd+1)^0,w,c
  3774   0016AC  E109               	bnz	u1650
  3775   0016AE  0E1A               	movlw	26
  3776   0016B0  5C49               	subwf	??___fladd^0,w,c
  3777   0016B2  A0D8               	btfss	status,0,c
  3778   0016B4  EF5E  F00B         	goto	u1651
  3779   0016B8  EF60  F00B         	goto	u1650
  3780   0016BC                     u1651:
  3781   0016BC  EF97  F00B         	goto	l621
  3782   0016C0                     u1650:
  3783   0016C0  5041               	movf	___fladd@b^0,w,c
  3784   0016C2  1042               	iorwf	(___fladd@b+1)^0,w,c
  3785   0016C4  1043               	iorwf	(___fladd@b+2)^0,w,c
  3786   0016C6  1044               	iorwf	(___fladd@b+3)^0,w,c
  3787   0016C8  A4D8               	btfss	status,2,c
  3788   0016CA  EF69  F00B         	goto	u1661
  3789   0016CE  EF6C  F00B         	goto	u1660
  3790   0016D2                     u1661:
  3791   0016D2  0E01               	movlw	1
  3792   0016D4  EF6D  F00B         	goto	u1670
  3793   0016D8                     u1660:
  3794   0016D8  0E00               	movlw	0
  3795   0016DA                     u1670:
  3796   0016DA  6E50               	movwf	___fladd@grs^0,c
  3797   0016DC  0E00               	movlw	0
  3798   0016DE  6E41               	movwf	___fladd@b^0,c
  3799   0016E0  0E00               	movlw	0
  3800   0016E2  6E42               	movwf	(___fladd@b+1)^0,c
  3801   0016E4  0E00               	movlw	0
  3802   0016E6  6E43               	movwf	(___fladd@b+2)^0,c
  3803   0016E8  0E00               	movlw	0
  3804   0016EA  6E44               	movwf	(___fladd@b+3)^0,c
  3805   0016EC  C04E  F04F         	movff	___fladd@aexp,___fladd@bexp
  3806   0016F0  EFA0  F00B         	goto	l620
  3807   0016F4                     l622:
  3808   0016F4  A050               	btfss	___fladd@grs^0,0,c
  3809   0016F6  EF7F  F00B         	goto	u1681
  3810   0016FA  EF81  F00B         	goto	u1680
  3811   0016FE                     u1681:
  3812   0016FE  EF87  F00B         	goto	l2002
  3813   001702                     u1680:
  3814   001702  90D8               	bcf	status,0,c
  3815   001704  3050               	rrcf	___fladd@grs^0,w,c
  3816   001706  0901               	iorlw	1
  3817   001708  6E50               	movwf	___fladd@grs^0,c
  3818   00170A  EF89  F00B         	goto	l2004
  3819   00170E                     l2002:
  3820   00170E  90D8               	bcf	status,0,c
  3821   001710  3250               	rrcf	___fladd@grs^0,f,c
  3822   001712                     l2004:
  3823   001712  A041               	btfss	___fladd@b^0,0,c
  3824   001714  EF8E  F00B         	goto	u1691
  3825   001718  EF90  F00B         	goto	u1690
  3826   00171C                     u1691:
  3827   00171C  EF91  F00B         	goto	l2008
  3828   001720                     u1690:
  3829   001720  8E50               	bsf	___fladd@grs^0,7,c
  3830   001722                     l2008:
  3831   001722  3444               	rlcf	(___fladd@b+3)^0,w,c
  3832   001724  3244               	rrcf	(___fladd@b+3)^0,f,c
  3833   001726  3243               	rrcf	(___fladd@b+2)^0,f,c
  3834   001728  3242               	rrcf	(___fladd@b+1)^0,f,c
  3835   00172A  3241               	rrcf	___fladd@b^0,f,c
  3836   00172C  2A4F               	incf	___fladd@bexp^0,f,c
  3837   00172E                     l621:
  3838   00172E  504E               	movf	___fladd@aexp^0,w,c
  3839   001730  5C4F               	subwf	___fladd@bexp^0,w,c
  3840   001732  A0D8               	btfss	status,0,c
  3841   001734  EF9E  F00B         	goto	u1701
  3842   001738  EFA0  F00B         	goto	u1700
  3843   00173C                     u1701:
  3844   00173C  EF7A  F00B         	goto	l622
  3845   001740                     u1700:
  3846   001740                     l620:
  3847   001740  BC4D               	btfsc	___fladd@signs^0,6,c
  3848   001742  EFA5  F00B         	goto	u1711
  3849   001746  EFA7  F00B         	goto	u1710
  3850   00174A                     u1711:
  3851   00174A  EFE7  F00B         	goto	l2036
  3852   00174E                     u1710:
  3853   00174E  504F               	movf	___fladd@bexp^0,w,c
  3854   001750  A4D8               	btfss	status,2,c
  3855   001752  EFAD  F00B         	goto	u1721
  3856   001756  EFAF  F00B         	goto	u1720
  3857   00175A                     u1721:
  3858   00175A  EFB9  F00B         	goto	l2018
  3859   00175E                     u1720:
  3860   00175E  0E00               	movlw	0
  3861   001760  6E41               	movwf	?___fladd^0,c
  3862   001762  0E00               	movlw	0
  3863   001764  6E42               	movwf	(?___fladd+1)^0,c
  3864   001766  0E00               	movlw	0
  3865   001768  6E43               	movwf	(?___fladd+2)^0,c
  3866   00176A  0E00               	movlw	0
  3867   00176C  6E44               	movwf	(?___fladd+3)^0,c
  3868   00176E  EF08  F00D         	goto	l629
  3869   001772                     l2018:
  3870   001772  5045               	movf	___fladd@a^0,w,c
  3871   001774  2641               	addwf	___fladd@b^0,f,c
  3872   001776  5046               	movf	(___fladd@a+1)^0,w,c
  3873   001778  2242               	addwfc	(___fladd@b+1)^0,f,c
  3874   00177A  5047               	movf	(___fladd@a+2)^0,w,c
  3875   00177C  2243               	addwfc	(___fladd@b+2)^0,f,c
  3876   00177E  5048               	movf	(___fladd@a+3)^0,w,c
  3877   001780  2244               	addwfc	(___fladd@b+3)^0,f,c
  3878   001782  A044               	btfss	(___fladd@b+3)^0,0,c
  3879   001784  EFC6  F00B         	goto	u1731
  3880   001788  EFC8  F00B         	goto	u1730
  3881   00178C                     u1731:
  3882   00178C  EF74  F00C         	goto	l2072
  3883   001790                     u1730:
  3884   001790  A050               	btfss	___fladd@grs^0,0,c
  3885   001792  EFCD  F00B         	goto	u1741
  3886   001796  EFCF  F00B         	goto	u1740
  3887   00179A                     u1741:
  3888   00179A  EFD5  F00B         	goto	l2026
  3889   00179E                     u1740:
  3890   00179E  90D8               	bcf	status,0,c
  3891   0017A0  3050               	rrcf	___fladd@grs^0,w,c
  3892   0017A2  0901               	iorlw	1
  3893   0017A4  6E50               	movwf	___fladd@grs^0,c
  3894   0017A6  EFD7  F00B         	goto	l2028
  3895   0017AA                     l2026:
  3896   0017AA  90D8               	bcf	status,0,c
  3897   0017AC  3250               	rrcf	___fladd@grs^0,f,c
  3898   0017AE                     l2028:
  3899   0017AE  A041               	btfss	___fladd@b^0,0,c
  3900   0017B0  EFDC  F00B         	goto	u1751
  3901   0017B4  EFDE  F00B         	goto	u1750
  3902   0017B8                     u1751:
  3903   0017B8  EFDF  F00B         	goto	l2032
  3904   0017BC                     u1750:
  3905   0017BC  8E50               	bsf	___fladd@grs^0,7,c
  3906   0017BE                     l2032:
  3907   0017BE  3444               	rlcf	(___fladd@b+3)^0,w,c
  3908   0017C0  3244               	rrcf	(___fladd@b+3)^0,f,c
  3909   0017C2  3243               	rrcf	(___fladd@b+2)^0,f,c
  3910   0017C4  3242               	rrcf	(___fladd@b+1)^0,f,c
  3911   0017C6  3241               	rrcf	___fladd@b^0,f,c
  3912   0017C8  2A4F               	incf	___fladd@bexp^0,f,c
  3913   0017CA  EF74  F00C         	goto	l2072
  3914   0017CE                     l2036:
  3915   0017CE  5045               	movf	___fladd@a^0,w,c
  3916   0017D0  5C41               	subwf	___fladd@b^0,w,c
  3917   0017D2  5046               	movf	(___fladd@a+1)^0,w,c
  3918   0017D4  5842               	subwfb	(___fladd@b+1)^0,w,c
  3919   0017D6  5047               	movf	(___fladd@a+2)^0,w,c
  3920   0017D8  5843               	subwfb	(___fladd@b+2)^0,w,c
  3921   0017DA  5044               	movf	(___fladd@b+3)^0,w,c
  3922   0017DC  0A80               	xorlw	128
  3923   0017DE  6E49               	movwf	??___fladd^0,c
  3924   0017E0  5048               	movf	(___fladd@a+3)^0,w,c
  3925   0017E2  0A80               	xorlw	128
  3926   0017E4  5849               	subwfb	??___fladd^0,w,c
  3927   0017E6  B0D8               	btfsc	status,0,c
  3928   0017E8  EFF8  F00B         	goto	u1761
  3929   0017EC  EFFA  F00B         	goto	u1760
  3930   0017F0                     u1761:
  3931   0017F0  EF25  F00C         	goto	l2046
  3932   0017F4                     u1760:
  3933   0017F4  5041               	movf	___fladd@b^0,w,c
  3934   0017F6  5C45               	subwf	___fladd@a^0,w,c
  3935   0017F8  6E49               	movwf	??___fladd^0,c
  3936   0017FA  5042               	movf	(___fladd@b+1)^0,w,c
  3937   0017FC  5846               	subwfb	(___fladd@a+1)^0,w,c
  3938   0017FE  6E4A               	movwf	(??___fladd+1)^0,c
  3939   001800  5043               	movf	(___fladd@b+2)^0,w,c
  3940   001802  5847               	subwfb	(___fladd@a+2)^0,w,c
  3941   001804  6E4B               	movwf	(??___fladd+2)^0,c
  3942   001806  5044               	movf	(___fladd@b+3)^0,w,c
  3943   001808  5848               	subwfb	(___fladd@a+3)^0,w,c
  3944   00180A  6E4C               	movwf	(??___fladd+3)^0,c
  3945   00180C  0EFF               	movlw	255
  3946   00180E  2449               	addwf	??___fladd^0,w,c
  3947   001810  6E41               	movwf	___fladd@b^0,c
  3948   001812  0EFF               	movlw	255
  3949   001814  204A               	addwfc	(??___fladd+1)^0,w,c
  3950   001816  6E42               	movwf	(___fladd@b+1)^0,c
  3951   001818  0EFF               	movlw	255
  3952   00181A  204B               	addwfc	(??___fladd+2)^0,w,c
  3953   00181C  6E43               	movwf	(___fladd@b+2)^0,c
  3954   00181E  0EFF               	movlw	255
  3955   001820  204C               	addwfc	(??___fladd+3)^0,w,c
  3956   001822  6E44               	movwf	(___fladd@b+3)^0,c
  3957   001824  0E80               	movlw	128
  3958   001826  1A4D               	xorwf	___fladd@signs^0,f,c
  3959   001828  6C50               	negf	___fladd@grs^0,c
  3960   00182A  5050               	movf	___fladd@grs^0,w,c
  3961   00182C  A4D8               	btfss	status,2,c
  3962   00182E  EF1B  F00C         	goto	u1771
  3963   001832  EF1D  F00C         	goto	u1770
  3964   001836                     u1771:
  3965   001836  EF2D  F00C         	goto	l637
  3966   00183A                     u1770:
  3967   00183A  0E01               	movlw	1
  3968   00183C  2641               	addwf	___fladd@b^0,f,c
  3969   00183E  0E00               	movlw	0
  3970   001840  2242               	addwfc	(___fladd@b+1)^0,f,c
  3971   001842  2243               	addwfc	(___fladd@b+2)^0,f,c
  3972   001844  2244               	addwfc	(___fladd@b+3)^0,f,c
  3973   001846  EF2D  F00C         	goto	l637
  3974   00184A                     l2046:
  3975   00184A  5045               	movf	___fladd@a^0,w,c
  3976   00184C  5E41               	subwf	___fladd@b^0,f,c
  3977   00184E  5046               	movf	(___fladd@a+1)^0,w,c
  3978   001850  5A42               	subwfb	(___fladd@b+1)^0,f,c
  3979   001852  5047               	movf	(___fladd@a+2)^0,w,c
  3980   001854  5A43               	subwfb	(___fladd@b+2)^0,f,c
  3981   001856  5048               	movf	(___fladd@a+3)^0,w,c
  3982   001858  5A44               	subwfb	(___fladd@b+3)^0,f,c
  3983   00185A                     l637:
  3984   00185A  5041               	movf	___fladd@b^0,w,c
  3985   00185C  1042               	iorwf	(___fladd@b+1)^0,w,c
  3986   00185E  1043               	iorwf	(___fladd@b+2)^0,w,c
  3987   001860  1044               	iorwf	(___fladd@b+3)^0,w,c
  3988   001862  A4D8               	btfss	status,2,c
  3989   001864  EF36  F00C         	goto	u1781
  3990   001868  EF38  F00C         	goto	u1780
  3991   00186C                     u1781:
  3992   00186C  EF6D  F00C         	goto	l2070
  3993   001870                     u1780:
  3994   001870  5050               	movf	___fladd@grs^0,w,c
  3995   001872  A4D8               	btfss	status,2,c
  3996   001874  EF3E  F00C         	goto	u1791
  3997   001878  EF40  F00C         	goto	u1790
  3998   00187C                     u1791:
  3999   00187C  EF6D  F00C         	goto	l2070
  4000   001880                     u1790:
  4001   001880  0E00               	movlw	0
  4002   001882  6E41               	movwf	?___fladd^0,c
  4003   001884  0E00               	movlw	0
  4004   001886  6E42               	movwf	(?___fladd+1)^0,c
  4005   001888  0E00               	movlw	0
  4006   00188A  6E43               	movwf	(?___fladd+2)^0,c
  4007   00188C  0E00               	movlw	0
  4008   00188E  6E44               	movwf	(?___fladd+3)^0,c
  4009   001890  EF08  F00D         	goto	l629
  4010   001894                     l2054:
  4011   001894  90D8               	bcf	status,0,c
  4012   001896  3641               	rlcf	___fladd@b^0,f,c
  4013   001898  3642               	rlcf	(___fladd@b+1)^0,f,c
  4014   00189A  3643               	rlcf	(___fladd@b+2)^0,f,c
  4015   00189C  3644               	rlcf	(___fladd@b+3)^0,f,c
  4016   00189E  AE50               	btfss	___fladd@grs^0,7,c
  4017   0018A0  EF54  F00C         	goto	u1801
  4018   0018A4  EF56  F00C         	goto	u1800
  4019   0018A8                     u1801:
  4020   0018A8  EF57  F00C         	goto	l2060
  4021   0018AC                     u1800:
  4022   0018AC  8041               	bsf	___fladd@b^0,0,c
  4023   0018AE                     l2060:
  4024   0018AE  A050               	btfss	___fladd@grs^0,0,c
  4025   0018B0  EF5C  F00C         	goto	u1811
  4026   0018B4  EF5E  F00C         	goto	u1810
  4027   0018B8                     u1811:
  4028   0018B8  EF62  F00C         	goto	l2064
  4029   0018BC                     u1810:
  4030   0018BC  80D8               	bsf	status,0,c
  4031   0018BE  3650               	rlcf	___fladd@grs^0,f,c
  4032   0018C0  EF64  F00C         	goto	l2066
  4033   0018C4                     l2064:
  4034   0018C4  90D8               	bcf	status,0,c
  4035   0018C6  3650               	rlcf	___fladd@grs^0,f,c
  4036   0018C8                     l2066:
  4037   0018C8  504F               	movf	___fladd@bexp^0,w,c
  4038   0018CA  B4D8               	btfsc	status,2,c
  4039   0018CC  EF6A  F00C         	goto	u1821
  4040   0018D0  EF6C  F00C         	goto	u1820
  4041   0018D4                     u1821:
  4042   0018D4  EF6D  F00C         	goto	l2070
  4043   0018D8                     u1820:
  4044   0018D8  064F               	decf	___fladd@bexp^0,f,c
  4045   0018DA                     l2070:
  4046   0018DA  AE43               	btfss	(___fladd@b+2)^0,7,c
  4047   0018DC  EF72  F00C         	goto	u1831
  4048   0018E0  EF74  F00C         	goto	u1830
  4049   0018E4                     u1831:
  4050   0018E4  EF4A  F00C         	goto	l2054
  4051   0018E8                     u1830:
  4052   0018E8                     l2072:
  4053   0018E8  0E00               	movlw	0
  4054   0018EA  6E4E               	movwf	___fladd@aexp^0,c
  4055   0018EC  AE50               	btfss	___fladd@grs^0,7,c
  4056   0018EE  EF7B  F00C         	goto	u1841
  4057   0018F2  EF7D  F00C         	goto	u1840
  4058   0018F6                     u1841:
  4059   0018F6  EF95  F00C         	goto	l646
  4060   0018FA                     u1840:
  4061   0018FA  C050  F049         	movff	___fladd@grs,??___fladd
  4062   0018FE  0E7F               	movlw	127
  4063   001900  1649               	andwf	??___fladd^0,f,c
  4064   001902  B4D8               	btfsc	status,2,c
  4065   001904  EF86  F00C         	goto	u1851
  4066   001908  EF88  F00C         	goto	u1850
  4067   00190C                     u1851:
  4068   00190C  EF8C  F00C         	goto	l647
  4069   001910                     u1850:
  4070   001910                     l2078:
  4071   001910  0E01               	movlw	1
  4072   001912  6E4E               	movwf	___fladd@aexp^0,c
  4073   001914  EF95  F00C         	goto	l646
  4074   001918                     l647:
  4075   001918  A041               	btfss	___fladd@b^0,0,c
  4076   00191A  EF91  F00C         	goto	u1861
  4077   00191E  EF93  F00C         	goto	u1860
  4078   001922                     u1861:
  4079   001922  EF95  F00C         	goto	l646
  4080   001926                     u1860:
  4081   001926  EF88  F00C         	goto	l2078
  4082   00192A                     l646:
  4083   00192A  504E               	movf	___fladd@aexp^0,w,c
  4084   00192C  B4D8               	btfsc	status,2,c
  4085   00192E  EF9B  F00C         	goto	u1871
  4086   001932  EF9D  F00C         	goto	u1870
  4087   001936                     u1871:
  4088   001936  EFC8  F00C         	goto	l2090
  4089   00193A                     u1870:
  4090   00193A  0E01               	movlw	1
  4091   00193C  2641               	addwf	___fladd@b^0,f,c
  4092   00193E  0E00               	movlw	0
  4093   001940  2242               	addwfc	(___fladd@b+1)^0,f,c
  4094   001942  2243               	addwfc	(___fladd@b+2)^0,f,c
  4095   001944  2244               	addwfc	(___fladd@b+3)^0,f,c
  4096   001946  A044               	btfss	(___fladd@b+3)^0,0,c
  4097   001948  EFA8  F00C         	goto	u1881
  4098   00194C  EFAA  F00C         	goto	u1880
  4099   001950                     u1881:
  4100   001950  EFC8  F00C         	goto	l2090
  4101   001954                     u1880:
  4102   001954  C041  F049         	movff	___fladd@b,??___fladd
  4103   001958  C042  F04A         	movff	___fladd@b+1,??___fladd+1
  4104   00195C  C043  F04B         	movff	___fladd@b+2,??___fladd+2
  4105   001960  C044  F04C         	movff	___fladd@b+3,??___fladd+3
  4106   001964  344C               	rlcf	(??___fladd+3)^0,w,c
  4107   001966  324C               	rrcf	(??___fladd+3)^0,f,c
  4108   001968  324B               	rrcf	(??___fladd+2)^0,f,c
  4109   00196A  324A               	rrcf	(??___fladd+1)^0,f,c
  4110   00196C  3249               	rrcf	??___fladd^0,f,c
  4111   00196E  C049  F041         	movff	??___fladd,___fladd@b
  4112   001972  C04A  F042         	movff	??___fladd+1,___fladd@b+1
  4113   001976  C04B  F043         	movff	??___fladd+2,___fladd@b+2
  4114   00197A  C04C  F044         	movff	??___fladd+3,___fladd@b+3
  4115   00197E  284F               	incf	___fladd@bexp^0,w,c
  4116   001980  B4D8               	btfsc	status,2,c
  4117   001982  EFC5  F00C         	goto	u1891
  4118   001986  EFC7  F00C         	goto	u1890
  4119   00198A                     u1891:
  4120   00198A  EFC8  F00C         	goto	l2090
  4121   00198E                     u1890:
  4122   00198E  2A4F               	incf	___fladd@bexp^0,f,c
  4123   001990                     l2090:
  4124   001990  284F               	incf	___fladd@bexp^0,w,c
  4125   001992  B4D8               	btfsc	status,2,c
  4126   001994  EFCE  F00C         	goto	u1901
  4127   001998  EFD0  F00C         	goto	u1900
  4128   00199C                     u1901:
  4129   00199C  EFD8  F00C         	goto	l2094
  4130   0019A0                     u1900:
  4131   0019A0  504F               	movf	___fladd@bexp^0,w,c
  4132   0019A2  A4D8               	btfss	status,2,c
  4133   0019A4  EFD6  F00C         	goto	u1911
  4134   0019A8  EFD8  F00C         	goto	u1910
  4135   0019AC                     u1911:
  4136   0019AC  EFEA  F00C         	goto	l2098
  4137   0019B0                     u1910:
  4138   0019B0                     l2094:
  4139   0019B0  0E00               	movlw	0
  4140   0019B2  6E41               	movwf	___fladd@b^0,c
  4141   0019B4  0E00               	movlw	0
  4142   0019B6  6E42               	movwf	(___fladd@b+1)^0,c
  4143   0019B8  0E00               	movlw	0
  4144   0019BA  6E43               	movwf	(___fladd@b+2)^0,c
  4145   0019BC  0E00               	movlw	0
  4146   0019BE  6E44               	movwf	(___fladd@b+3)^0,c
  4147   0019C0  504F               	movf	___fladd@bexp^0,w,c
  4148   0019C2  A4D8               	btfss	status,2,c
  4149   0019C4  EFE6  F00C         	goto	u1921
  4150   0019C8  EFE8  F00C         	goto	u1920
  4151   0019CC                     u1921:
  4152   0019CC  EFEA  F00C         	goto	l2098
  4153   0019D0                     u1920:
  4154   0019D0  0E00               	movlw	0
  4155   0019D2  6E4D               	movwf	___fladd@signs^0,c
  4156   0019D4                     l2098:
  4157   0019D4  A04F               	btfss	___fladd@bexp^0,0,c
  4158   0019D6  EFEF  F00C         	goto	u1931
  4159   0019DA  EFF1  F00C         	goto	u1930
  4160   0019DE                     u1931:
  4161   0019DE  EFF4  F00C         	goto	l2102
  4162   0019E2                     u1930:
  4163   0019E2  8E43               	bsf	(___fladd@b+2)^0,7,c
  4164   0019E4  EFF5  F00C         	goto	l2104
  4165   0019E8                     l2102:
  4166   0019E8  9E43               	bcf	(___fladd@b+2)^0,7,c
  4167   0019EA                     l2104:
  4168   0019EA  90D8               	bcf	status,0,c
  4169   0019EC  304F               	rrcf	___fladd@bexp^0,w,c
  4170   0019EE  6E44               	movwf	(___fladd@b+3)^0,c
  4171   0019F0  AE4D               	btfss	___fladd@signs^0,7,c
  4172   0019F2  EFFD  F00C         	goto	u1941
  4173   0019F6  EFFF  F00C         	goto	u1940
  4174   0019FA                     u1941:
  4175   0019FA  EF00  F00D         	goto	l2110
  4176   0019FE                     u1940:
  4177   0019FE  8E44               	bsf	(___fladd@b+3)^0,7,c
  4178   001A00                     l2110:
  4179   001A00  C041  F041         	movff	___fladd@b,?___fladd
  4180   001A04  C042  F042         	movff	___fladd@b+1,?___fladd+1
  4181   001A08  C043  F043         	movff	___fladd@b+2,?___fladd+2
  4182   001A0C  C044  F044         	movff	___fladd@b+3,?___fladd+3
  4183   001A10                     l629:
  4184   001A10  0012               	return		;funcret
  4185   001A12                     __end_of___fladd:
  4186                           	callstack 0
  4187                           
  4188 ;; *************** function _printf *****************
  4189 ;; Defined at:
  4190 ;;		line 5 in file "C:\Program Files\Microchip\xc8\v2.46\pic\sources\c99\common\printf.c"
  4191 ;; Parameters:    Size  Location     Type
  4192 ;;  fmt             1   27[COMRAM] PTR const unsigned char 
  4193 ;;		 -> STR_1(5), 
  4194 ;; Auto vars:     Size  Location     Type
  4195 ;;  ret             2    0        int 
  4196 ;;  ap              1   30[COMRAM] PTR void [1]
  4197 ;;		 -> ?_printf(2), 
  4198 ;; Return value:  Size  Location     Type
  4199 ;;                  2   27[COMRAM] int 
  4200 ;; Registers used:
  4201 ;;		wreg, fsr1l, fsr1h, fsr2l, fsr2h, status,2, status,0, tblptrl, tblptrh, tblptru, cstack
  4202 ;; Tracked objects:
  4203 ;;		On entry : 0/0
  4204 ;;		On exit  : 0/0
  4205 ;;		Unchanged: 0/0
  4206 ;; Data sizes:     COMRAM   BANK0   BANK1   BANK2   BANK3   BANK4   BANK5   BANK6   BANK7   BANK8   BANK9  BANK10  BANK1
      +1  BANK12  BANK13  BANK14  BANK15
  4207 ;;      Params:         3       0       0       0       0       0       0       0       0       0       0       0       
      +0       0       0       0       0
  4208 ;;      Locals:         1       0       0       0       0       0       0       0       0       0       0       0       
      +0       0       0       0       0
  4209 ;;      Temps:          0       0       0       0       0       0       0       0       0       0       0       0       
      +0       0       0       0       0
  4210 ;;      Totals:         4       0       0       0       0       0       0       0       0       0       0       0       
      +0       0       0       0       0
  4211 ;;Total ram usage:        4 bytes
  4212 ;; Hardware stack levels used: 1
  4213 ;; Hardware stack levels required when called: 4
  4214 ;; This function calls:
  4215 ;;		_vfprintf
  4216 ;; This function is called by:
  4217 ;;		_main
  4218 ;; This function uses a non-reentrant model
  4219 ;;
  4220                           
  4221                           	psect	text12
  4222   00349C                     __ptext12:
  4223                           	callstack 0
  4224   00349C                     _printf:
  4225                           	callstack 26
  4226   00349C  0E1D               	movlw	low (?_printf+1)
  4227   00349E  6E1F               	movwf	printf@ap^0,c
  4228   0034A0  0E00               	movlw	0
  4229   0034A2  6E17               	movwf	vfprintf@fp^0,c
  4230   0034A4  0E00               	movlw	0
  4231   0034A6  6E18               	movwf	(vfprintf@fp+1)^0,c
  4232   0034A8  C01C  F019         	movff	printf@fmt,vfprintf@fmt
  4233   0034AC  0E1F               	movlw	low printf@ap
  4234   0034AE  6E1A               	movwf	vfprintf@ap^0,c
  4235   0034B0  ECBD  F019         	call	_vfprintf	;wreg free
  4236   0034B4  0012               	return		;funcret
  4237   0034B6                     __end_of_printf:
  4238                           	callstack 0
  4239                           
  4240 ;; *************** function _vfprintf *****************
  4241 ;; Defined at:
  4242 ;;		line 1817 in file "C:\Program Files\Microchip\xc8\v2.46\pic\sources\c99\common\doprnt.c"
  4243 ;; Parameters:    Size  Location     Type
  4244 ;;  fp              2   22[COMRAM] PTR struct _IO_FILE
  4245 ;;		 -> NULL(0), 
  4246 ;;  fmt             1   24[COMRAM] PTR const unsigned char 
  4247 ;;		 -> STR_1(5), 
  4248 ;;  ap              1   25[COMRAM] PTR PTR void 
  4249 ;;		 -> printf@ap(1), 
  4250 ;; Auto vars:     Size  Location     Type
  4251 ;;  cfmt            1   26[COMRAM] PTR unsigned char 
  4252 ;;		 -> STR_1(5), 
  4253 ;; Return value:  Size  Location     Type
  4254 ;;                  2   22[COMRAM] int 
  4255 ;; Registers used:
  4256 ;;		wreg, fsr1l, fsr1h, fsr2l, fsr2h, status,2, status,0, tblptrl, tblptrh, tblptru, cstack
  4257 ;; Tracked objects:
  4258 ;;		On entry : 0/0
  4259 ;;		On exit  : 0/0
  4260 ;;		Unchanged: 0/0
  4261 ;; Data sizes:     COMRAM   BANK0   BANK1   BANK2   BANK3   BANK4   BANK5   BANK6   BANK7   BANK8   BANK9  BANK10  BANK1
      +1  BANK12  BANK13  BANK14  BANK15
  4262 ;;      Params:         4       0       0       0       0       0       0       0       0       0       0       0       
      +0       0       0       0       0
  4263 ;;      Locals:         1       0       0       0       0       0       0       0       0       0       0       0       
      +0       0       0       0       0
  4264 ;;      Temps:          0       0       0       0       0       0       0       0       0       0       0       0       
      +0       0       0       0       0
  4265 ;;      Totals:         5       0       0       0       0       0       0       0       0       0       0       0       
      +0       0       0       0       0
  4266 ;;Total ram usage:        5 bytes
  4267 ;; Hardware stack levels used: 1
  4268 ;; Hardware stack levels required when called: 3
  4269 ;; This function calls:
  4270 ;;		_vfpfcnvrt
  4271 ;; This function is called by:
  4272 ;;		_printf
  4273 ;; This function uses a non-reentrant model
  4274 ;;
  4275                           
  4276                           	psect	text13
  4277   00337A                     __ptext13:
  4278                           	callstack 0
  4279   00337A                     _vfprintf:
  4280                           	callstack 26
  4281   00337A                     
  4282                           ;C:\Program Files\Microchip\xc8\v2.46\pic\sources\c99\common\doprnt.c: 1817: int vfprint
      +                          f(FILE *fp, const char *fmt, va_list ap);C:\Program Files\Microchip\xc8\v2.46\pic\source
      +                          s\c99\common\doprnt.c: 1818: {;C:\Program Files\Microchip\xc8\v2.46\pic\sources\c99\comm
      +                          on\doprnt.c: 1820:     char *cfmt;;C:\Program Files\Microchip\xc8\v2.46\pic\sources\c99\
      +                          common\doprnt.c: 1822:     cfmt = (char *)fmt;
  4283   00337A  C019  F01B         	movff	vfprintf@fmt,vfprintf@cfmt
  4284                           
  4285                           ;C:\Program Files\Microchip\xc8\v2.46\pic\sources\c99\common\doprnt.c: 1826:     while (
      +                          *cfmt) {
  4286   00337E  EFCB  F019         	goto	l2508
  4287   003382                     l2506:
  4288                           
  4289                           ;C:\Program Files\Microchip\xc8\v2.46\pic\sources\c99\common\doprnt.c: 1830:    vfpfcnvr
      +                          t(fp, &cfmt, ap);
  4290   003382  C017  F00B         	movff	vfprintf@fp,vfpfcnvrt@fp
  4291   003386  C018  F00C         	movff	vfprintf@fp+1,vfpfcnvrt@fp+1
  4292   00338A  0E1B               	movlw	low vfprintf@cfmt
  4293   00338C  6E0D               	movwf	vfpfcnvrt@fmt^0,c
  4294   00338E  C01A  F00E         	movff	vfprintf@ap,vfpfcnvrt@ap
  4295   003392  EC3D  F016         	call	_vfpfcnvrt	;wreg free
  4296   003396                     l2508:
  4297                           
  4298                           ;C:\Program Files\Microchip\xc8\v2.46\pic\sources\c99\common\doprnt.c: 1826:     while (
      +                          *cfmt) {
  4299   003396  C01B  FFF6         	movff	vfprintf@cfmt,tblptrl
  4300   00339A                     	if	1	;There is more than 1 active tblptr byte
  4301   00339A  0E10               	movlw	high __smallconst
  4302   00339C  6EF7               	movwf	tblptrh,c
  4303   00339E                     	endif
  4304   00339E                     	if	0	;tblptru may be non-zero
  4305   00339E                     	endif
  4306   00339E                     	if	0	;tblptru may be non-zero
  4307   00339E                     	endif
  4308   00339E  0008               	tblrd		*
  4309   0033A0  50F5               	movf	tablat,w,c
  4310   0033A2  0900               	iorlw	0
  4311   0033A4  A4D8               	btfss	status,2,c
  4312   0033A6  EFD7  F019         	goto	u2591
  4313   0033AA  EFD9  F019         	goto	u2590
  4314   0033AE                     u2591:
  4315   0033AE  EFC1  F019         	goto	l2506
  4316   0033B2                     u2590:
  4317   0033B2                     
  4318                           ;C:\Program Files\Microchip\xc8\v2.46\pic\sources\c99\common\doprnt.c: 1835:  return 0;
  4319   0033B2  0E00               	movlw	0
  4320   0033B4  6E18               	movwf	(?_vfprintf+1)^0,c
  4321   0033B6  0E00               	movlw	0
  4322   0033B8  6E17               	movwf	?_vfprintf^0,c
  4323   0033BA  0012               	return		;funcret
  4324   0033BC                     __end_of_vfprintf:
  4325                           	callstack 0
  4326                           
  4327 ;; *************** function _vfpfcnvrt *****************
  4328 ;; Defined at:
  4329 ;;		line 1177 in file "C:\Program Files\Microchip\xc8\v2.46\pic\sources\c99\common\doprnt.c"
  4330 ;; Parameters:    Size  Location     Type
  4331 ;;  fp              2   10[COMRAM] PTR struct _IO_FILE
  4332 ;;		 -> NULL(0), 
  4333 ;;  fmt             1   12[COMRAM] PTR PTR unsigned char 
  4334 ;;		 -> vfprintf@cfmt(1), 
  4335 ;;  ap              1   13[COMRAM] PTR PTR void 
  4336 ;;		 -> printf@ap(1), 
  4337 ;; Auto vars:     Size  Location     Type
  4338 ;;  convarg         4   17[COMRAM] struct .
  4339 ;;  c               1   21[COMRAM] unsigned char 
  4340 ;;  cp              1   16[COMRAM] PTR unsigned char 
  4341 ;;		 -> STR_1(5), 
  4342 ;;  done            1   15[COMRAM] _Bool 
  4343 ;; Return value:  Size  Location     Type
  4344 ;;                  1    wreg      void 
  4345 ;; Registers used:
  4346 ;;		wreg, fsr1l, fsr1h, fsr2l, fsr2h, status,2, status,0, tblptrl, tblptrh, tblptru, cstack
  4347 ;; Tracked objects:
  4348 ;;		On entry : 0/0
  4349 ;;		On exit  : 0/0
  4350 ;;		Unchanged: 0/0
  4351 ;; Data sizes:     COMRAM   BANK0   BANK1   BANK2   BANK3   BANK4   BANK5   BANK6   BANK7   BANK8   BANK9  BANK10  BANK1
      +1  BANK12  BANK13  BANK14  BANK15
  4352 ;;      Params:         4       0       0       0       0       0       0       0       0       0       0       0       
      +0       0       0       0       0
  4353 ;;      Locals:         7       0       0       0       0       0       0       0       0       0       0       0       
      +0       0       0       0       0
  4354 ;;      Temps:          1       0       0       0       0       0       0       0       0       0       0       0       
      +0       0       0       0       0
  4355 ;;      Totals:        12       0       0       0       0       0       0       0       0       0       0       0       
      +0       0       0       0       0
  4356 ;;Total ram usage:       12 bytes
  4357 ;; Hardware stack levels used: 1
  4358 ;; Hardware stack levels required when called: 2
  4359 ;; This function calls:
  4360 ;;		___awdiv
  4361 ;;		___awmod
  4362 ;;		_abs
  4363 ;;		_fputc
  4364 ;; This function is called by:
  4365 ;;		_vfprintf
  4366 ;; This function uses a non-reentrant model
  4367 ;;
  4368                           
  4369                           	psect	text14
  4370   002C7A                     __ptext14:
  4371                           	callstack 0
  4372   002C7A                     _vfpfcnvrt:
  4373                           	callstack 26
  4374   002C7A                     
  4375                           ;C:\Program Files\Microchip\xc8\v2.46\pic\sources\c99\common\doprnt.c: 1177: vfpfcnvrt(F
      +                          ILE *fp, char *fmt[], va_list ap);C:\Program Files\Microchip\xc8\v2.46\pic\sources\c99\c
      +                          ommon\doprnt.c: 1178: {;C:\Program Files\Microchip\xc8\v2.46\pic\sources\c99\common\dopr
      +                          nt.c: 1179:     char c, *cp;;C:\Program Files\Microchip\xc8\v2.46\pic\sources\c99\common
      +                          \doprnt.c: 1180:     _Bool done;;C:\Program Files\Microchip\xc8\v2.46\pic\sources\c99\co
      +                          mmon\doprnt.c: 1188:  } convarg;;C:\Program Files\Microchip\xc8\v2.46\pic\sources\c99\co
      +                          mmon\doprnt.c: 1201:     if ((*fmt)[0] == '%') {
  4376   002C7A  500D               	movf	vfpfcnvrt@fmt^0,w,c
  4377   002C7C  6ED9               	movwf	fsr2l,c
  4378   002C7E  6ADA               	clrf	fsr2h,c
  4379   002C80  CFDF FFF6          	movff	indf2,tblptrl
  4380   002C84                     	if	1	;There is more than 1 active tblptr byte
  4381   002C84  0E10               	movlw	high __smallconst
  4382   002C86  6EF7               	movwf	tblptrh,c
  4383   002C88                     	endif
  4384   002C88                     	if	0	;tblptru may be non-zero
  4385   002C88                     	endif
  4386   002C88                     	if	0	;tblptru may be non-zero
  4387   002C88                     	endif
  4388   002C88  0008               	tblrd		*
  4389   002C8A  50F5               	movf	tablat,w,c
  4390   002C8C  0A25               	xorlw	37
  4391   002C8E  A4D8               	btfss	status,2,c
  4392   002C90  EF4C  F016         	goto	u2491
  4393   002C94  EF4E  F016         	goto	u2490
  4394   002C98                     u2491:
  4395   002C98  EF0A  F017         	goto	l2490
  4396   002C9C                     u2490:
  4397   002C9C                     
  4398                           ;C:\Program Files\Microchip\xc8\v2.46\pic\sources\c99\common\doprnt.c: 1202:         ++*
      +                          fmt;
  4399   002C9C  500D               	movf	vfpfcnvrt@fmt^0,w,c
  4400   002C9E  6ED9               	movwf	fsr2l,c
  4401   002CA0  6ADA               	clrf	fsr2h,c
  4402   002CA2  2ADF               	incf	indf2,f,c
  4403   002CA4                     
  4404                           ;C:\Program Files\Microchip\xc8\v2.46\pic\sources\c99\common\doprnt.c: 1204:         fla
      +                          gs = width = 0;
  4405   002CA4  0E00               	movlw	0
  4406   002CA6  0100               	movlb	0	; () banked
  4407   002CA8  6FE7               	movwf	(_width+1)& (0+255),b
  4408   002CAA  0E00               	movlw	0
  4409   002CAC  6FE6               	movwf	_width& (0+255),b
  4410   002CAE  C0E6  F05E         	movff	_width,_flags
  4411   002CB2                     
  4412                           ; BSR set to: 0
  4413                           ;C:\Program Files\Microchip\xc8\v2.46\pic\sources\c99\common\doprnt.c: 1205:         pre
      +                          c = -1;
  4414   002CB2  69E8               	setf	_prec& (0+255),b
  4415   002CB4  69E9               	setf	(_prec+1)& (0+255),b
  4416   002CB6                     
  4417                           ; BSR set to: 0
  4418                           ;C:\Program Files\Microchip\xc8\v2.46\pic\sources\c99\common\doprnt.c: 1291:   cp = *fmt
      +                          ;
  4419   002CB6  500D               	movf	vfpfcnvrt@fmt^0,w,c
  4420   002CB8  6ED9               	movwf	fsr2l,c
  4421   002CBA  6ADA               	clrf	fsr2h,c
  4422   002CBC  50DF               	movf	indf2,w,c
  4423   002CBE  6E11               	movwf	vfpfcnvrt@cp^0,c
  4424   002CC0                     
  4425                           ; BSR set to: 0
  4426                           ;C:\Program Files\Microchip\xc8\v2.46\pic\sources\c99\common\doprnt.c: 1361:   if (*cp =
      +                          = 'd' || *cp == 'i') {
  4427   002CC0  C011  FFF6         	movff	vfpfcnvrt@cp,tblptrl
  4428   002CC4                     	if	1	;There is more than 1 active tblptr byte
  4429   002CC4  0E10               	movlw	high __smallconst
  4430   002CC6  6EF7               	movwf	tblptrh,c
  4431   002CC8                     	endif
  4432   002CC8                     	if	0	;tblptru may be non-zero
  4433   002CC8                     	endif
  4434   002CC8                     	if	0	;tblptru may be non-zero
  4435   002CC8                     	endif
  4436   002CC8  0008               	tblrd		*
  4437   002CCA  50F5               	movf	tablat,w,c
  4438   002CCC  0A64               	xorlw	100
  4439   002CCE  B4D8               	btfsc	status,2,c
  4440   002CD0  EF6C  F016         	goto	u2501
  4441   002CD4  EF6E  F016         	goto	u2500
  4442   002CD8                     u2501:
  4443   002CD8  EF7C  F016         	goto	l2460
  4444   002CDC                     u2500:
  4445   002CDC                     
  4446                           ; BSR set to: 0
  4447   002CDC  C011  FFF6         	movff	vfpfcnvrt@cp,tblptrl
  4448   002CE0                     	if	1	;There is more than 1 active tblptr byte
  4449   002CE0  0E10               	movlw	high __smallconst
  4450   002CE2  6EF7               	movwf	tblptrh,c
  4451   002CE4                     	endif
  4452   002CE4                     	if	0	;tblptru may be non-zero
  4453   002CE4                     	endif
  4454   002CE4                     	if	0	;tblptru may be non-zero
  4455   002CE4                     	endif
  4456   002CE4  0008               	tblrd		*
  4457   002CE6  50F5               	movf	tablat,w,c
  4458   002CE8  0A69               	xorlw	105
  4459   002CEA  A4D8               	btfss	status,2,c
  4460   002CEC  EF7A  F016         	goto	u2511
  4461   002CF0  EF7C  F016         	goto	u2510
  4462   002CF4                     u2511:
  4463   002CF4  EF04  F017         	goto	l2486
  4464   002CF8                     u2510:
  4465   002CF8                     l2460:
  4466                           
  4467                           ; BSR set to: 0
  4468                           ;C:\Program Files\Microchip\xc8\v2.46\pic\sources\c99\common\doprnt.c: 1404:    convarg.
      +                          sint = (vfpf_sint_t)(int)(*(int *)__va_arg(*(int **)ap, (int)0));
  4469   002CF8  500E               	movf	vfpfcnvrt@ap^0,w,c
  4470   002CFA  6ED9               	movwf	fsr2l,c
  4471   002CFC  6ADA               	clrf	fsr2h,c
  4472   002CFE  0E02               	movlw	2
  4473   002D00  26DF               	addwf	indf2,f,c
  4474   002D02  5CDF               	subwf	indf2,w,c
  4475   002D04  6ED9               	movwf	fsr2l,c
  4476   002D06  6ADA               	clrf	fsr2h,c
  4477   002D08  CFDE F012          	movff	postinc2,vfpfcnvrt@convarg
  4478   002D0C  CFDE F013          	movff	postinc2,vfpfcnvrt@convarg+1
  4479   002D10                     
  4480                           ; BSR set to: 0
  4481                           ;C:\Program Files\Microchip\xc8\v2.46\pic\sources\c99\common\doprnt.c: 1406:    *fmt = c
      +                          p+1;
  4482   002D10  500D               	movf	vfpfcnvrt@fmt^0,w,c
  4483   002D12  6ED9               	movwf	fsr2l,c
  4484   002D14  6ADA               	clrf	fsr2h,c
  4485   002D16  2811               	incf	vfpfcnvrt@cp^0,w,c
  4486   002D18  6EDF               	movwf	indf2,c
  4487   002D1A                     
  4488                           ; BSR set to: 0
  4489                           ;C:\Program Files\Microchip\xc8\v2.46\pic\sources\c99\common\doprnt.c: 1408:    c = size
      +                          of(dbuf);
  4490   002D1A  0E20               	movlw	32
  4491   002D1C  6E16               	movwf	vfpfcnvrt@c^0,c
  4492                           
  4493                           ;C:\Program Files\Microchip\xc8\v2.46\pic\sources\c99\common\doprnt.c: 1409:    done = c
      +                          onvarg.sint < 0;
  4494   002D1E  BE13               	btfsc	(vfpfcnvrt@convarg+1)^0,7,c
  4495   002D20  EF94  F016         	goto	u2521
  4496   002D24  EF97  F016         	goto	u2520
  4497   002D28                     u2521:
  4498   002D28  0E01               	movlw	1
  4499   002D2A  EF98  F016         	goto	u2530
  4500   002D2E                     u2520:
  4501   002D2E  0E00               	movlw	0
  4502   002D30                     u2530:
  4503   002D30  6E10               	movwf	vfpfcnvrt@done^0,c
  4504   002D32                     l2466:
  4505                           
  4506                           ;C:\Program Files\Microchip\xc8\v2.46\pic\sources\c99\common\doprnt.c: 1411:     dbuf[--
      +                          c] = abs(convarg.sint % 10) + '0';
  4507   002D32  0616               	decf	vfpfcnvrt@c^0,f,c
  4508   002D34  5016               	movf	vfpfcnvrt@c^0,w,c
  4509   002D36  0FBE               	addlw	low _dbuf
  4510   002D38  6ED9               	movwf	fsr2l,c
  4511   002D3A  6ADA               	clrf	fsr2h,c
  4512   002D3C  C012  F001         	movff	vfpfcnvrt@convarg,___awmod@dividend
  4513   002D40  C013  F002         	movff	vfpfcnvrt@convarg+1,___awmod@dividend+1
  4514   002D44  0E00               	movlw	0
  4515   002D46  6E04               	movwf	(___awmod@divisor+1)^0,c
  4516   002D48  0E0A               	movlw	10
  4517   002D4A  6E03               	movwf	___awmod@divisor^0,c
  4518   002D4C  EC42  F019         	call	___awmod	;wreg free
  4519   002D50  C001  F007         	movff	?___awmod,abs@a
  4520   002D54  C002  F008         	movff	?___awmod+1,abs@a+1
  4521   002D58  EC34  F01A         	call	_abs	;wreg free
  4522   002D5C  5007               	movf	?_abs^0,w,c
  4523   002D5E  0F30               	addlw	48
  4524   002D60  6EDF               	movwf	indf2,c
  4525   002D62                     
  4526                           ;C:\Program Files\Microchip\xc8\v2.46\pic\sources\c99\common\doprnt.c: 1412:     convarg
      +                          .sint /= 10;
  4527   002D62  C012  F001         	movff	vfpfcnvrt@convarg,___awdiv@dividend
  4528   002D66  C013  F002         	movff	vfpfcnvrt@convarg+1,___awdiv@dividend+1
  4529   002D6A  0E00               	movlw	0
  4530   002D6C  6E04               	movwf	(___awdiv@divisor+1)^0,c
  4531   002D6E  0E0A               	movlw	10
  4532   002D70  6E03               	movwf	___awdiv@divisor^0,c
  4533   002D72  ECE0  F018         	call	___awdiv	;wreg free
  4534   002D76  C001  F012         	movff	?___awdiv,vfpfcnvrt@convarg
  4535   002D7A  C002  F013         	movff	?___awdiv+1,vfpfcnvrt@convarg+1
  4536   002D7E                     
  4537                           ;C:\Program Files\Microchip\xc8\v2.46\pic\sources\c99\common\doprnt.c: 1416:    } while 
      +                          (convarg.sint != 0 && c != 0);
  4538   002D7E  5012               	movf	vfpfcnvrt@convarg^0,w,c
  4539   002D80  1013               	iorwf	(vfpfcnvrt@convarg+1)^0,w,c
  4540   002D82  B4D8               	btfsc	status,2,c
  4541   002D84  EFC6  F016         	goto	u2541
  4542   002D88  EFC8  F016         	goto	u2540
  4543   002D8C                     u2541:
  4544   002D8C  EFD0  F016         	goto	l2474
  4545   002D90                     u2540:
  4546   002D90  5016               	movf	vfpfcnvrt@c^0,w,c
  4547   002D92  A4D8               	btfss	status,2,c
  4548   002D94  EFCE  F016         	goto	u2551
  4549   002D98  EFD0  F016         	goto	u2550
  4550   002D9C                     u2551:
  4551   002D9C  EF99  F016         	goto	l2466
  4552   002DA0                     u2550:
  4553   002DA0                     l2474:
  4554                           
  4555                           ;C:\Program Files\Microchip\xc8\v2.46\pic\sources\c99\common\doprnt.c: 1417:    if (c !=
      +                           0 && done) {
  4556   002DA0  5016               	movf	vfpfcnvrt@c^0,w,c
  4557   002DA2  B4D8               	btfsc	status,2,c
  4558   002DA4  EFD6  F016         	goto	u2561
  4559   002DA8  EFD8  F016         	goto	u2560
  4560   002DAC                     u2561:
  4561   002DAC  EFF9  F016         	goto	l2484
  4562   002DB0                     u2560:
  4563   002DB0  5010               	movf	vfpfcnvrt@done^0,w,c
  4564   002DB2  B4D8               	btfsc	status,2,c
  4565   002DB4  EFDE  F016         	goto	u2571
  4566   002DB8  EFE0  F016         	goto	u2570
  4567   002DBC                     u2571:
  4568   002DBC  EFF9  F016         	goto	l2484
  4569   002DC0                     u2570:
  4570   002DC0                     
  4571                           ;C:\Program Files\Microchip\xc8\v2.46\pic\sources\c99\common\doprnt.c: 1418:     dbuf[--
      +                          c] = '-';
  4572   002DC0  0616               	decf	vfpfcnvrt@c^0,f,c
  4573   002DC2  5016               	movf	vfpfcnvrt@c^0,w,c
  4574   002DC4  0FBE               	addlw	low _dbuf
  4575   002DC6  6ED9               	movwf	fsr2l,c
  4576   002DC8  6ADA               	clrf	fsr2h,c
  4577   002DCA  0E2D               	movlw	45
  4578   002DCC  6EDF               	movwf	indf2,c
  4579   002DCE  EFF9  F016         	goto	l2484
  4580   002DD2                     l2480:
  4581                           
  4582                           ;C:\Program Files\Microchip\xc8\v2.46\pic\sources\c99\common\doprnt.c: 1424:     fputc(d
      +                          buf[c++], fp);
  4583   002DD2  5016               	movf	vfpfcnvrt@c^0,w,c
  4584   002DD4  0FBE               	addlw	low _dbuf
  4585   002DD6  6ED9               	movwf	fsr2l,c
  4586   002DD8  6ADA               	clrf	fsr2h,c
  4587   002DDA  50DF               	movf	indf2,w,c
  4588   002DDC  6E0F               	movwf	??_vfpfcnvrt^0,c
  4589   002DDE  500F               	movf	??_vfpfcnvrt^0,w,c
  4590   002DE0  6E02               	movwf	fputc@c^0,c
  4591   002DE2  6A03               	clrf	(fputc@c+1)^0,c
  4592   002DE4  C00B  F004         	movff	vfpfcnvrt@fp,fputc@fp
  4593   002DE8  C00C  F005         	movff	vfpfcnvrt@fp+1,fputc@fp+1
  4594   002DEC  EC7B  F018         	call	_fputc	;wreg free
  4595   002DF0  2A16               	incf	vfpfcnvrt@c^0,f,c
  4596   002DF2                     l2484:
  4597                           
  4598                           ;C:\Program Files\Microchip\xc8\v2.46\pic\sources\c99\common\doprnt.c: 1423:    while (c
      +                           != sizeof(dbuf)) {
  4599   002DF2  0E20               	movlw	32
  4600   002DF4  1816               	xorwf	vfpfcnvrt@c^0,w,c
  4601   002DF6  A4D8               	btfss	status,2,c
  4602   002DF8  EF00  F017         	goto	u2581
  4603   002DFC  EF02  F017         	goto	u2580
  4604   002E00                     u2581:
  4605   002E00  EFE9  F016         	goto	l2480
  4606   002E04                     u2580:
  4607   002E04  EF1D  F017         	goto	l808
  4608   002E08                     l2486:
  4609                           
  4610                           ;C:\Program Files\Microchip\xc8\v2.46\pic\sources\c99\common\doprnt.c: 1806:         ++*
      +                          fmt;
  4611   002E08  500D               	movf	vfpfcnvrt@fmt^0,w,c
  4612   002E0A  6ED9               	movwf	fsr2l,c
  4613   002E0C  6ADA               	clrf	fsr2h,c
  4614   002E0E  2ADF               	incf	indf2,f,c
  4615   002E10  EF1D  F017         	goto	l808
  4616   002E14                     l2490:
  4617                           
  4618                           ;C:\Program Files\Microchip\xc8\v2.46\pic\sources\c99\common\doprnt.c: 1811:     fputc((
      +                          int)(*fmt)[0], fp);
  4619   002E14  500D               	movf	vfpfcnvrt@fmt^0,w,c
  4620   002E16  6ED9               	movwf	fsr2l,c
  4621   002E18  6ADA               	clrf	fsr2h,c
  4622   002E1A  CFDF FFF6          	movff	indf2,tblptrl
  4623   002E1E                     	if	1	;There is more than 1 active tblptr byte
  4624   002E1E  0E10               	movlw	high __smallconst
  4625   002E20  6EF7               	movwf	tblptrh,c
  4626   002E22                     	endif
  4627   002E22                     	if	0	;tblptru may be non-zero
  4628   002E22                     	endif
  4629   002E22                     	if	0	;tblptru may be non-zero
  4630   002E22                     	endif
  4631   002E22  0008               	tblrd		*
  4632   002E24  50F5               	movf	tablat,w,c
  4633   002E26  6E02               	movwf	fputc@c^0,c
  4634   002E28  6A03               	clrf	(fputc@c+1)^0,c
  4635   002E2A  C00B  F004         	movff	vfpfcnvrt@fp,fputc@fp
  4636   002E2E  C00C  F005         	movff	vfpfcnvrt@fp+1,fputc@fp+1
  4637   002E32  EC7B  F018         	call	_fputc	;wreg free
  4638   002E36  EF04  F017         	goto	l2486
  4639   002E3A                     l808:
  4640   002E3A  0012               	return		;funcret
  4641   002E3C                     __end_of_vfpfcnvrt:
  4642                           	callstack 0
  4643                           
  4644 ;; *************** function _fputc *****************
  4645 ;; Defined at:
  4646 ;;		line 8 in file "C:\Program Files\Microchip\xc8\v2.46\pic\sources\c99\common\nf_fputc.c"
  4647 ;; Parameters:    Size  Location     Type
  4648 ;;  c               2    1[COMRAM] int 
  4649 ;;  fp              2    3[COMRAM] PTR struct _IO_FILE
  4650 ;;		 -> NULL(0), 
  4651 ;; Auto vars:     Size  Location     Type
  4652 ;;		None
  4653 ;; Return value:  Size  Location     Type
  4654 ;;                  2    1[COMRAM] int 
  4655 ;; Registers used:
  4656 ;;		wreg, fsr1l, fsr1h, fsr2l, fsr2h, status,2, status,0, cstack
  4657 ;; Tracked objects:
  4658 ;;		On entry : 0/0
  4659 ;;		On exit  : 0/0
  4660 ;;		Unchanged: 0/0
  4661 ;; Data sizes:     COMRAM   BANK0   BANK1   BANK2   BANK3   BANK4   BANK5   BANK6   BANK7   BANK8   BANK9  BANK10  BANK1
      +1  BANK12  BANK13  BANK14  BANK15
  4662 ;;      Params:         4       0       0       0       0       0       0       0       0       0       0       0       
      +0       0       0       0       0
  4663 ;;      Locals:         0       0       0       0       0       0       0       0       0       0       0       0       
      +0       0       0       0       0
  4664 ;;      Temps:          5       0       0       0       0       0       0       0       0       0       0       0       
      +0       0       0       0       0
  4665 ;;      Totals:         9       0       0       0       0       0       0       0       0       0       0       0       
      +0       0       0       0       0
  4666 ;;Total ram usage:        9 bytes
  4667 ;; Hardware stack levels used: 1
  4668 ;; Hardware stack levels required when called: 1
  4669 ;; This function calls:
  4670 ;;		_putch
  4671 ;; This function is called by:
  4672 ;;		_vfpfcnvrt
  4673 ;; This function uses a non-reentrant model
  4674 ;;
  4675                           
  4676                           	psect	text15
  4677   0030F6                     __ptext15:
  4678                           	callstack 0
  4679   0030F6                     _fputc:
  4680                           	callstack 26
  4681   0030F6  5004               	movf	fputc@fp^0,w,c
  4682   0030F8  1005               	iorwf	(fputc@fp+1)^0,w,c
  4683   0030FA  B4D8               	btfsc	status,2,c
  4684   0030FC  EF82  F018         	goto	u2071
  4685   003100  EF84  F018         	goto	u2070
  4686   003104                     u2071:
  4687   003104  EF8D  F018         	goto	l2198
  4688   003108                     u2070:
  4689   003108  5004               	movf	fputc@fp^0,w,c
  4690   00310A  1005               	iorwf	(fputc@fp+1)^0,w,c
  4691   00310C  A4D8               	btfss	status,2,c
  4692   00310E  EF8B  F018         	goto	u2081
  4693   003112  EF8D  F018         	goto	u2080
  4694   003116                     u2081:
  4695   003116  EF92  F018         	goto	l2200
  4696   00311A                     u2080:
  4697   00311A                     l2198:
  4698   00311A  5002               	movf	fputc@c^0,w,c
  4699   00311C  EC67  F01A         	call	_putch
  4700   003120  EFDF  F018         	goto	l833
  4701   003124                     l2200:
  4702   003124  EE20 F00A          	lfsr	2,10
  4703   003128  5004               	movf	fputc@fp^0,w,c
  4704   00312A  26D9               	addwf	fsr2l,f,c
  4705   00312C  5005               	movf	(fputc@fp+1)^0,w,c
  4706   00312E  22DA               	addwfc	fsr2h,f,c
  4707   003130  50DE               	movf	postinc2,w,c
  4708   003132  10DE               	iorwf	postinc2,w,c
  4709   003134  B4D8               	btfsc	status,2,c
  4710   003136  EF9F  F018         	goto	u2091
  4711   00313A  EFA1  F018         	goto	u2090
  4712   00313E                     u2091:
  4713   00313E  EFBC  F018         	goto	l2204
  4714   003142                     u2090:
  4715   003142  EE20 F00A          	lfsr	2,10
  4716   003146  5004               	movf	fputc@fp^0,w,c
  4717   003148  26D9               	addwf	fsr2l,f,c
  4718   00314A  5005               	movf	(fputc@fp+1)^0,w,c
  4719   00314C  22DA               	addwfc	fsr2h,f,c
  4720   00314E  EE10 F003          	lfsr	1,3
  4721   003152  5004               	movf	fputc@fp^0,w,c
  4722   003154  26E1               	addwf	fsr1l,f,c
  4723   003156  5005               	movf	(fputc@fp+1)^0,w,c
  4724   003158  22E2               	addwfc	fsr1h,f,c
  4725   00315A  50DE               	movf	postinc2,w,c
  4726   00315C  5CE6               	subwf	postinc1,w,c
  4727   00315E  50E6               	movf	postinc1,w,c
  4728   003160  0A80               	xorlw	128
  4729   003162  6E0A               	movwf	(??_fputc+4)^0,c
  4730   003164  50DE               	movf	postinc2,w,c
  4731   003166  0A80               	xorlw	128
  4732   003168  580A               	subwfb	(??_fputc+4)^0,w,c
  4733   00316A  B0D8               	btfsc	status,0,c
  4734   00316C  EFBA  F018         	goto	u2101
  4735   003170  EFBC  F018         	goto	u2100
  4736   003174                     u2101:
  4737   003174  EFDF  F018         	goto	l833
  4738   003178                     u2100:
  4739   003178                     l2204:
  4740   003178  EE20 F003          	lfsr	2,3
  4741   00317C  5004               	movf	fputc@fp^0,w,c
  4742   00317E  26D9               	addwf	fsr2l,f,c
  4743   003180  5005               	movf	(fputc@fp+1)^0,w,c
  4744   003182  22DA               	addwfc	fsr2h,f,c
  4745   003184  CFDE F006          	movff	postinc2,??_fputc
  4746   003188  CFDD F007          	movff	postdec2,??_fputc+1
  4747   00318C  C004  FFD9         	movff	fputc@fp,fsr2l
  4748   003190  C005  FFDA         	movff	fputc@fp+1,fsr2h
  4749   003194  CFDE F008          	movff	postinc2,??_fputc+2
  4750   003198  CFDD F009          	movff	postdec2,??_fputc+3
  4751   00319C  5006               	movf	??_fputc^0,w,c
  4752   00319E  2408               	addwf	(??_fputc+2)^0,w,c
  4753   0031A0  6ED9               	movwf	fsr2l,c
  4754   0031A2  5007               	movf	(??_fputc+1)^0,w,c
  4755   0031A4  2009               	addwfc	(??_fputc+3)^0,w,c
  4756   0031A6  6EDA               	movwf	fsr2h,c
  4757   0031A8  C002  FFDF         	movff	fputc@c,indf2
  4758   0031AC  EE20 F003          	lfsr	2,3
  4759   0031B0  5004               	movf	fputc@fp^0,w,c
  4760   0031B2  26D9               	addwf	fsr2l,f,c
  4761   0031B4  5005               	movf	(fputc@fp+1)^0,w,c
  4762   0031B6  22DA               	addwfc	fsr2h,f,c
  4763   0031B8  2ADE               	incf	postinc2,f,c
  4764   0031BA  0E00               	movlw	0
  4765   0031BC  22DD               	addwfc	postdec2,f,c
  4766   0031BE                     l833:
  4767   0031BE  0012               	return		;funcret
  4768   0031C0                     __end_of_fputc:
  4769                           	callstack 0
  4770                           
  4771 ;; *************** function _putch *****************
  4772 ;; Defined at:
  4773 ;;		line 118 in file "main.c"
  4774 ;; Parameters:    Size  Location     Type
  4775 ;;  data            1    wreg     unsigned char 
  4776 ;; Auto vars:     Size  Location     Type
  4777 ;;  data            1    0[COMRAM] unsigned char 
  4778 ;; Return value:  Size  Location     Type
  4779 ;;                  1    wreg      void 
  4780 ;; Registers used:
  4781 ;;		wreg
  4782 ;; Tracked objects:
  4783 ;;		On entry : 0/0
  4784 ;;		On exit  : 0/0
  4785 ;;		Unchanged: 0/0
  4786 ;; Data sizes:     COMRAM   BANK0   BANK1   BANK2   BANK3   BANK4   BANK5   BANK6   BANK7   BANK8   BANK9  BANK10  BANK1
      +1  BANK12  BANK13  BANK14  BANK15
  4787 ;;      Params:         0       0       0       0       0       0       0       0       0       0       0       0       
      +0       0       0       0       0
  4788 ;;      Locals:         1       0       0       0       0       0       0       0       0       0       0       0       
      +0       0       0       0       0
  4789 ;;      Temps:          0       0       0       0       0       0       0       0       0       0       0       0       
      +0       0       0       0       0
  4790 ;;      Totals:         1       0       0       0       0       0       0       0       0       0       0       0       
      +0       0       0       0       0
  4791 ;;Total ram usage:        1 bytes
  4792 ;; Hardware stack levels used: 1
  4793 ;; This function calls:
  4794 ;;		Nothing
  4795 ;; This function is called by:
  4796 ;;		_fputc
  4797 ;; This function uses a non-reentrant model
  4798 ;;
  4799                           
  4800                           	psect	text16
  4801   0034CE                     __ptext16:
  4802                           	callstack 0
  4803   0034CE                     _putch:
  4804                           	callstack 26
  4805                           
  4806                           ;incstack = 0
  4807                           ;putch@data stored from wreg
  4808   0034CE  6E01               	movwf	putch@data^0,c
  4809   0034D0                     l86:
  4810   0034D0  A89E               	btfss	3998,4,c	;volatile
  4811   0034D2  EF6D  F01A         	goto	u1551
  4812   0034D6  EF6F  F01A         	goto	u1550
  4813   0034DA                     u1551:
  4814   0034DA  EF68  F01A         	goto	l86
  4815   0034DE                     u1550:
  4816   0034DE                     
  4817                           ;main.c: 120:     TXREG1 = data;
  4818   0034DE  C001  FFAD         	movff	putch@data,4013	;volatile
  4819   0034E2  0012               	return		;funcret
  4820   0034E4                     __end_of_putch:
  4821                           	callstack 0
  4822                           
  4823 ;; *************** function _abs *****************
  4824 ;; Defined at:
  4825 ;;		line 1 in file "C:\Program Files\Microchip\xc8\v2.46\pic\sources\c99\common\abs.c"
  4826 ;; Parameters:    Size  Location     Type
  4827 ;;  a               2    6[COMRAM] int 
  4828 ;; Auto vars:     Size  Location     Type
  4829 ;;		None
  4830 ;; Return value:  Size  Location     Type
  4831 ;;                  2    6[COMRAM] int 
  4832 ;; Registers used:
  4833 ;;		wreg, status,2, status,0
  4834 ;; Tracked objects:
  4835 ;;		On entry : 0/0
  4836 ;;		On exit  : 0/0
  4837 ;;		Unchanged: 0/0
  4838 ;; Data sizes:     COMRAM   BANK0   BANK1   BANK2   BANK3   BANK4   BANK5   BANK6   BANK7   BANK8   BANK9  BANK10  BANK1
      +1  BANK12  BANK13  BANK14  BANK15
  4839 ;;      Params:         2       0       0       0       0       0       0       0       0       0       0       0       
      +0       0       0       0       0
  4840 ;;      Locals:         0       0       0       0       0       0       0       0       0       0       0       0       
      +0       0       0       0       0
  4841 ;;      Temps:          2       0       0       0       0       0       0       0       0       0       0       0       
      +0       0       0       0       0
  4842 ;;      Totals:         4       0       0       0       0       0       0       0       0       0       0       0       
      +0       0       0       0       0
  4843 ;;Total ram usage:        4 bytes
  4844 ;; Hardware stack levels used: 1
  4845 ;; This function calls:
  4846 ;;		Nothing
  4847 ;; This function is called by:
  4848 ;;		_vfpfcnvrt
  4849 ;; This function uses a non-reentrant model
  4850 ;;
  4851                           
  4852                           	psect	text17
  4853   003468                     __ptext17:
  4854                           	callstack 0
  4855   003468                     _abs:
  4856                           	callstack 27
  4857   003468  BE08               	btfsc	(abs@a+1)^0,7,c
  4858   00346A  EF39  F01A         	goto	u2111
  4859   00346E  EF3B  F01A         	goto	u2110
  4860   003472                     u2111:
  4861   003472  EF41  F01A         	goto	l818
  4862   003476                     u2110:
  4863   003476  C007  F007         	movff	abs@a,?_abs
  4864   00347A  C008  F008         	movff	abs@a+1,?_abs+1
  4865   00347E  EF4D  F01A         	goto	l821
  4866   003482                     l818:
  4867   003482  C007  F009         	movff	abs@a,??_abs
  4868   003486  C008  F00A         	movff	abs@a+1,??_abs+1
  4869   00348A  1E09               	comf	??_abs^0,f,c
  4870   00348C  1E0A               	comf	(??_abs+1)^0,f,c
  4871   00348E  4A09               	infsnz	??_abs^0,f,c
  4872   003490  2A0A               	incf	(??_abs+1)^0,f,c
  4873   003492  C009  F007         	movff	??_abs,?_abs
  4874   003496  C00A  F008         	movff	??_abs+1,?_abs+1
  4875   00349A                     l821:
  4876   00349A  0012               	return		;funcret
  4877   00349C                     __end_of_abs:
  4878                           	callstack 0
  4879                           
  4880 ;; *************** function ___awmod *****************
  4881 ;; Defined at:
  4882 ;;		line 7 in file "C:\Program Files\Microchip\xc8\v2.46\pic\sources\c99\common\awmod.c"
  4883 ;; Parameters:    Size  Location     Type
  4884 ;;  dividend        2    0[COMRAM] int 
  4885 ;;  divisor         2    2[COMRAM] int 
  4886 ;; Auto vars:     Size  Location     Type
  4887 ;;  sign            1    5[COMRAM] unsigned char 
  4888 ;;  counter         1    4[COMRAM] unsigned char 
  4889 ;; Return value:  Size  Location     Type
  4890 ;;                  2    0[COMRAM] int 
  4891 ;; Registers used:
  4892 ;;		wreg, status,2, status,0
  4893 ;; Tracked objects:
  4894 ;;		On entry : 0/0
  4895 ;;		On exit  : 0/0
  4896 ;;		Unchanged: 0/0
  4897 ;; Data sizes:     COMRAM   BANK0   BANK1   BANK2   BANK3   BANK4   BANK5   BANK6   BANK7   BANK8   BANK9  BANK10  BANK1
      +1  BANK12  BANK13  BANK14  BANK15
  4898 ;;      Params:         4       0       0       0       0       0       0       0       0       0       0       0       
      +0       0       0       0       0
  4899 ;;      Locals:         2       0       0       0       0       0       0       0       0       0       0       0       
      +0       0       0       0       0
  4900 ;;      Temps:          0       0       0       0       0       0       0       0       0       0       0       0       
      +0       0       0       0       0
  4901 ;;      Totals:         6       0       0       0       0       0       0       0       0       0       0       0       
      +0       0       0       0       0
  4902 ;;Total ram usage:        6 bytes
  4903 ;; Hardware stack levels used: 1
  4904 ;; This function calls:
  4905 ;;		Nothing
  4906 ;; This function is called by:
  4907 ;;		_vfpfcnvrt
  4908 ;; This function uses a non-reentrant model
  4909 ;;
  4910                           
  4911                           	psect	text18
  4912   003284                     __ptext18:
  4913                           	callstack 0
  4914   003284                     ___awmod:
  4915                           	callstack 27
  4916   003284  0E00               	movlw	0
  4917   003286  6E06               	movwf	___awmod@sign^0,c
  4918   003288  BE02               	btfsc	(___awmod@dividend+1)^0,7,c
  4919   00328A  EF4B  F019         	goto	u2010
  4920   00328E  EF49  F019         	goto	u2011
  4921   003292                     u2011:
  4922   003292  EF51  F019         	goto	l2166
  4923   003296                     u2010:
  4924   003296  6C01               	negf	___awmod@dividend^0,c
  4925   003298  1E02               	comf	(___awmod@dividend+1)^0,f,c
  4926   00329A  B0D8               	btfsc	status,0,c
  4927   00329C  2A02               	incf	(___awmod@dividend+1)^0,f,c
  4928   00329E  0E01               	movlw	1
  4929   0032A0  6E06               	movwf	___awmod@sign^0,c
  4930   0032A2                     l2166:
  4931   0032A2  BE04               	btfsc	(___awmod@divisor+1)^0,7,c
  4932   0032A4  EF58  F019         	goto	u2020
  4933   0032A8  EF56  F019         	goto	u2021
  4934   0032AC                     u2021:
  4935   0032AC  EF5C  F019         	goto	l2170
  4936   0032B0                     u2020:
  4937   0032B0  6C03               	negf	___awmod@divisor^0,c
  4938   0032B2  1E04               	comf	(___awmod@divisor+1)^0,f,c
  4939   0032B4  B0D8               	btfsc	status,0,c
  4940   0032B6  2A04               	incf	(___awmod@divisor+1)^0,f,c
  4941   0032B8                     l2170:
  4942   0032B8  5003               	movf	___awmod@divisor^0,w,c
  4943   0032BA  1004               	iorwf	(___awmod@divisor+1)^0,w,c
  4944   0032BC  B4D8               	btfsc	status,2,c
  4945   0032BE  EF63  F019         	goto	u2031
  4946   0032C2  EF65  F019         	goto	u2030
  4947   0032C6                     u2031:
  4948   0032C6  EF89  F019         	goto	l2186
  4949   0032CA                     u2030:
  4950   0032CA  0E01               	movlw	1
  4951   0032CC  6E05               	movwf	___awmod@counter^0,c
  4952   0032CE  EF6D  F019         	goto	l2176
  4953   0032D2                     l2174:
  4954   0032D2  90D8               	bcf	status,0,c
  4955   0032D4  3603               	rlcf	___awmod@divisor^0,f,c
  4956   0032D6  3604               	rlcf	(___awmod@divisor+1)^0,f,c
  4957   0032D8  2A05               	incf	___awmod@counter^0,f,c
  4958   0032DA                     l2176:
  4959   0032DA  AE04               	btfss	(___awmod@divisor+1)^0,7,c
  4960   0032DC  EF72  F019         	goto	u2041
  4961   0032E0  EF74  F019         	goto	u2040
  4962   0032E4                     u2041:
  4963   0032E4  EF69  F019         	goto	l2174
  4964   0032E8                     u2040:
  4965   0032E8                     l2178:
  4966   0032E8  5003               	movf	___awmod@divisor^0,w,c
  4967   0032EA  5C01               	subwf	___awmod@dividend^0,w,c
  4968   0032EC  5004               	movf	(___awmod@divisor+1)^0,w,c
  4969   0032EE  5802               	subwfb	(___awmod@dividend+1)^0,w,c
  4970   0032F0  A0D8               	btfss	status,0,c
  4971   0032F2  EF7D  F019         	goto	u2051
  4972   0032F6  EF7F  F019         	goto	u2050
  4973   0032FA                     u2051:
  4974   0032FA  EF83  F019         	goto	l2182
  4975   0032FE                     u2050:
  4976   0032FE  5003               	movf	___awmod@divisor^0,w,c
  4977   003300  5E01               	subwf	___awmod@dividend^0,f,c
  4978   003302  5004               	movf	(___awmod@divisor+1)^0,w,c
  4979   003304  5A02               	subwfb	(___awmod@dividend+1)^0,f,c
  4980   003306                     l2182:
  4981   003306  90D8               	bcf	status,0,c
  4982   003308  3204               	rrcf	(___awmod@divisor+1)^0,f,c
  4983   00330A  3203               	rrcf	___awmod@divisor^0,f,c
  4984   00330C  2E05               	decfsz	___awmod@counter^0,f,c
  4985   00330E  EF74  F019         	goto	l2178
  4986   003312                     l2186:
  4987   003312  5006               	movf	___awmod@sign^0,w,c
  4988   003314  B4D8               	btfsc	status,2,c
  4989   003316  EF8F  F019         	goto	u2061
  4990   00331A  EF91  F019         	goto	u2060
  4991   00331E                     u2061:
  4992   00331E  EF95  F019         	goto	l2190
  4993   003322                     u2060:
  4994   003322  6C01               	negf	___awmod@dividend^0,c
  4995   003324  1E02               	comf	(___awmod@dividend+1)^0,f,c
  4996   003326  B0D8               	btfsc	status,0,c
  4997   003328  2A02               	incf	(___awmod@dividend+1)^0,f,c
  4998   00332A                     l2190:
  4999   00332A  C001  F001         	movff	___awmod@dividend,?___awmod
  5000   00332E  C002  F002         	movff	___awmod@dividend+1,?___awmod+1
  5001   003332  0012               	return		;funcret
  5002   003334                     __end_of___awmod:
  5003                           	callstack 0
  5004                           
  5005 ;; *************** function ___awdiv *****************
  5006 ;; Defined at:
  5007 ;;		line 7 in file "C:\Program Files\Microchip\xc8\v2.46\pic\sources\c99\common\awdiv.c"
  5008 ;; Parameters:    Size  Location     Type
  5009 ;;  dividend        2    0[COMRAM] int 
  5010 ;;  divisor         2    2[COMRAM] int 
  5011 ;; Auto vars:     Size  Location     Type
  5012 ;;  quotient        2    6[COMRAM] int 
  5013 ;;  sign            1    5[COMRAM] unsigned char 
  5014 ;;  counter         1    4[COMRAM] unsigned char 
  5015 ;; Return value:  Size  Location     Type
  5016 ;;                  2    0[COMRAM] int 
  5017 ;; Registers used:
  5018 ;;		wreg, status,2, status,0
  5019 ;; Tracked objects:
  5020 ;;		On entry : 0/0
  5021 ;;		On exit  : 0/0
  5022 ;;		Unchanged: 0/0
  5023 ;; Data sizes:     COMRAM   BANK0   BANK1   BANK2   BANK3   BANK4   BANK5   BANK6   BANK7   BANK8   BANK9  BANK10  BANK1
      +1  BANK12  BANK13  BANK14  BANK15
  5024 ;;      Params:         4       0       0       0       0       0       0       0       0       0       0       0       
      +0       0       0       0       0
  5025 ;;      Locals:         4       0       0       0       0       0       0       0       0       0       0       0       
      +0       0       0       0       0
  5026 ;;      Temps:          0       0       0       0       0       0       0       0       0       0       0       0       
      +0       0       0       0       0
  5027 ;;      Totals:         8       0       0       0       0       0       0       0       0       0       0       0       
      +0       0       0       0       0
  5028 ;;Total ram usage:        8 bytes
  5029 ;; Hardware stack levels used: 1
  5030 ;; This function calls:
  5031 ;;		Nothing
  5032 ;; This function is called by:
  5033 ;;		_vfpfcnvrt
  5034 ;; This function uses a non-reentrant model
  5035 ;;
  5036                           
  5037                           	psect	text19
  5038   0031C0                     __ptext19:
  5039                           	callstack 0
  5040   0031C0                     ___awdiv:
  5041                           	callstack 27
  5042   0031C0  0E00               	movlw	0
  5043   0031C2  6E06               	movwf	___awdiv@sign^0,c
  5044   0031C4  BE04               	btfsc	(___awdiv@divisor+1)^0,7,c
  5045   0031C6  EFE9  F018         	goto	u1950
  5046   0031CA  EFE7  F018         	goto	u1951
  5047   0031CE                     u1951:
  5048   0031CE  EFEF  F018         	goto	l2122
  5049   0031D2                     u1950:
  5050   0031D2  6C03               	negf	___awdiv@divisor^0,c
  5051   0031D4  1E04               	comf	(___awdiv@divisor+1)^0,f,c
  5052   0031D6  B0D8               	btfsc	status,0,c
  5053   0031D8  2A04               	incf	(___awdiv@divisor+1)^0,f,c
  5054   0031DA  0E01               	movlw	1
  5055   0031DC  6E06               	movwf	___awdiv@sign^0,c
  5056   0031DE                     l2122:
  5057   0031DE  BE02               	btfsc	(___awdiv@dividend+1)^0,7,c
  5058   0031E0  EFF6  F018         	goto	u1960
  5059   0031E4  EFF4  F018         	goto	u1961
  5060   0031E8                     u1961:
  5061   0031E8  EFFC  F018         	goto	l2128
  5062   0031EC                     u1960:
  5063   0031EC  6C01               	negf	___awdiv@dividend^0,c
  5064   0031EE  1E02               	comf	(___awdiv@dividend+1)^0,f,c
  5065   0031F0  B0D8               	btfsc	status,0,c
  5066   0031F2  2A02               	incf	(___awdiv@dividend+1)^0,f,c
  5067   0031F4  0E01               	movlw	1
  5068   0031F6  1A06               	xorwf	___awdiv@sign^0,f,c
  5069   0031F8                     l2128:
  5070   0031F8  0E00               	movlw	0
  5071   0031FA  6E08               	movwf	(___awdiv@quotient+1)^0,c
  5072   0031FC  0E00               	movlw	0
  5073   0031FE  6E07               	movwf	___awdiv@quotient^0,c
  5074   003200  5003               	movf	___awdiv@divisor^0,w,c
  5075   003202  1004               	iorwf	(___awdiv@divisor+1)^0,w,c
  5076   003204  B4D8               	btfsc	status,2,c
  5077   003206  EF07  F019         	goto	u1971
  5078   00320A  EF09  F019         	goto	u1970
  5079   00320E                     u1971:
  5080   00320E  EF31  F019         	goto	l2150
  5081   003212                     u1970:
  5082   003212  0E01               	movlw	1
  5083   003214  6E05               	movwf	___awdiv@counter^0,c
  5084   003216  EF11  F019         	goto	l2136
  5085   00321A                     l2134:
  5086   00321A  90D8               	bcf	status,0,c
  5087   00321C  3603               	rlcf	___awdiv@divisor^0,f,c
  5088   00321E  3604               	rlcf	(___awdiv@divisor+1)^0,f,c
  5089   003220  2A05               	incf	___awdiv@counter^0,f,c
  5090   003222                     l2136:
  5091   003222  AE04               	btfss	(___awdiv@divisor+1)^0,7,c
  5092   003224  EF16  F019         	goto	u1981
  5093   003228  EF18  F019         	goto	u1980
  5094   00322C                     u1981:
  5095   00322C  EF0D  F019         	goto	l2134
  5096   003230                     u1980:
  5097   003230                     l2138:
  5098   003230  90D8               	bcf	status,0,c
  5099   003232  3607               	rlcf	___awdiv@quotient^0,f,c
  5100   003234  3608               	rlcf	(___awdiv@quotient+1)^0,f,c
  5101   003236  5003               	movf	___awdiv@divisor^0,w,c
  5102   003238  5C01               	subwf	___awdiv@dividend^0,w,c
  5103   00323A  5004               	movf	(___awdiv@divisor+1)^0,w,c
  5104   00323C  5802               	subwfb	(___awdiv@dividend+1)^0,w,c
  5105   00323E  A0D8               	btfss	status,0,c
  5106   003240  EF24  F019         	goto	u1991
  5107   003244  EF26  F019         	goto	u1990
  5108   003248                     u1991:
  5109   003248  EF2B  F019         	goto	l2146
  5110   00324C                     u1990:
  5111   00324C  5003               	movf	___awdiv@divisor^0,w,c
  5112   00324E  5E01               	subwf	___awdiv@dividend^0,f,c
  5113   003250  5004               	movf	(___awdiv@divisor+1)^0,w,c
  5114   003252  5A02               	subwfb	(___awdiv@dividend+1)^0,f,c
  5115   003254  8007               	bsf	___awdiv@quotient^0,0,c
  5116   003256                     l2146:
  5117   003256  90D8               	bcf	status,0,c
  5118   003258  3204               	rrcf	(___awdiv@divisor+1)^0,f,c
  5119   00325A  3203               	rrcf	___awdiv@divisor^0,f,c
  5120   00325C  2E05               	decfsz	___awdiv@counter^0,f,c
  5121   00325E  EF18  F019         	goto	l2138
  5122   003262                     l2150:
  5123   003262  5006               	movf	___awdiv@sign^0,w,c
  5124   003264  B4D8               	btfsc	status,2,c
  5125   003266  EF37  F019         	goto	u2001
  5126   00326A  EF39  F019         	goto	u2000
  5127   00326E                     u2001:
  5128   00326E  EF3D  F019         	goto	l2154
  5129   003272                     u2000:
  5130   003272  6C07               	negf	___awdiv@quotient^0,c
  5131   003274  1E08               	comf	(___awdiv@quotient+1)^0,f,c
  5132   003276  B0D8               	btfsc	status,0,c
  5133   003278  2A08               	incf	(___awdiv@quotient+1)^0,f,c
  5134   00327A                     l2154:
  5135   00327A  C007  F001         	movff	___awdiv@quotient,?___awdiv
  5136   00327E  C008  F002         	movff	___awdiv@quotient+1,?___awdiv+1
  5137   003282  0012               	return		;funcret
  5138   003284                     __end_of___awdiv:
  5139                           	callstack 0
  5140                           
  5141 ;; *************** function ___fldiv *****************
  5142 ;; Defined at:
  5143 ;;		line 11 in file "C:\Program Files\Microchip\xc8\v2.46\pic\sources\c99\common\sprcdiv.c"
  5144 ;; Parameters:    Size  Location     Type
  5145 ;;  b               4   39[COMRAM] int 
  5146 ;;  a               4   43[COMRAM] int 
  5147 ;; Auto vars:     Size  Location     Type
  5148 ;;  grs             4   58[COMRAM] unsigned long 
  5149 ;;  rem             4   51[COMRAM] unsigned long 
  5150 ;;  new_exp         2   56[COMRAM] short 
  5151 ;;  aexp            1   63[COMRAM] unsigned char 
  5152 ;;  bexp            1   62[COMRAM] unsigned char 
  5153 ;;  sign            1   55[COMRAM] unsigned char 
  5154 ;; Return value:  Size  Location     Type
  5155 ;;                  4   39[COMRAM] unsigned char 
  5156 ;; Registers used:
  5157 ;;		wreg, status,2, status,0
  5158 ;; Tracked objects:
  5159 ;;		On entry : 0/0
  5160 ;;		On exit  : 0/0
  5161 ;;		Unchanged: 0/0
  5162 ;; Data sizes:     COMRAM   BANK0   BANK1   BANK2   BANK3   BANK4   BANK5   BANK6   BANK7   BANK8   BANK9  BANK10  BANK1
      +1  BANK12  BANK13  BANK14  BANK15
  5163 ;;      Params:         8       0       0       0       0       0       0       0       0       0       0       0       
      +0       0       0       0       0
  5164 ;;      Locals:        13       0       0       0       0       0       0       0       0       0       0       0       
      +0       0       0       0       0
  5165 ;;      Temps:          4       0       0       0       0       0       0       0       0       0       0       0       
      +0       0       0       0       0
  5166 ;;      Totals:        25       0       0       0       0       0       0       0       0       0       0       0       
      +0       0       0       0       0
  5167 ;;Total ram usage:       25 bytes
  5168 ;; Hardware stack levels used: 1
  5169 ;; This function calls:
  5170 ;;		Nothing
  5171 ;; This function is called by:
  5172 ;;		_main
  5173 ;; This function uses a non-reentrant model
  5174 ;;
  5175                           
  5176                           	psect	text20
  5177   0021FE                     __ptext20:
  5178                           	callstack 0
  5179   0021FE                     ___fldiv:
  5180                           	callstack 30
  5181   0021FE  502B               	movf	(___fldiv@b+3)^0,w,c
  5182   002200  0B80               	andlw	128
  5183   002202  6E38               	movwf	___fldiv@sign^0,c
  5184   002204  502B               	movf	(___fldiv@b+3)^0,w,c
  5185   002206  242B               	addwf	(___fldiv@b+3)^0,w,c
  5186   002208  6E3F               	movwf	___fldiv@bexp^0,c
  5187   00220A  AE2A               	btfss	(___fldiv@b+2)^0,7,c
  5188   00220C  EF0A  F011         	goto	u2801
  5189   002210  EF0C  F011         	goto	u2800
  5190   002214                     u2801:
  5191   002214  EF0D  F011         	goto	l2690
  5192   002218                     u2800:
  5193   002218  803F               	bsf	___fldiv@bexp^0,0,c
  5194   00221A                     l2690:
  5195   00221A  503F               	movf	___fldiv@bexp^0,w,c
  5196   00221C  B4D8               	btfsc	status,2,c
  5197   00221E  EF13  F011         	goto	u2811
  5198   002222  EF15  F011         	goto	u2810
  5199   002226                     u2811:
  5200   002226  EF2A  F011         	goto	l2700
  5201   00222A                     u2810:
  5202   00222A  283F               	incf	___fldiv@bexp^0,w,c
  5203   00222C  A4D8               	btfss	status,2,c
  5204   00222E  EF1B  F011         	goto	u2821
  5205   002232  EF1D  F011         	goto	u2820
  5206   002236                     u2821:
  5207   002236  EF25  F011         	goto	l2696
  5208   00223A                     u2820:
  5209   00223A  0E00               	movlw	0
  5210   00223C  6E28               	movwf	___fldiv@b^0,c
  5211   00223E  0E00               	movlw	0
  5212   002240  6E29               	movwf	(___fldiv@b+1)^0,c
  5213   002242  0E00               	movlw	0
  5214   002244  6E2A               	movwf	(___fldiv@b+2)^0,c
  5215   002246  0E00               	movlw	0
  5216   002248  6E2B               	movwf	(___fldiv@b+3)^0,c
  5217   00224A                     l2696:
  5218   00224A  8E2A               	bsf	(___fldiv@b+2)^0,7,c
  5219   00224C  0E00               	movlw	0
  5220   00224E  6E2B               	movwf	(___fldiv@b+3)^0,c
  5221   002250  EF32  F011         	goto	l2702
  5222   002254                     l2700:
  5223   002254  0E00               	movlw	0
  5224   002256  6E28               	movwf	___fldiv@b^0,c
  5225   002258  0E00               	movlw	0
  5226   00225A  6E29               	movwf	(___fldiv@b+1)^0,c
  5227   00225C  0E00               	movlw	0
  5228   00225E  6E2A               	movwf	(___fldiv@b+2)^0,c
  5229   002260  0E00               	movlw	0
  5230   002262  6E2B               	movwf	(___fldiv@b+3)^0,c
  5231   002264                     l2702:
  5232   002264  502F               	movf	(___fldiv@a+3)^0,w,c
  5233   002266  0B80               	andlw	128
  5234   002268  1A38               	xorwf	___fldiv@sign^0,f,c
  5235   00226A  502F               	movf	(___fldiv@a+3)^0,w,c
  5236   00226C  242F               	addwf	(___fldiv@a+3)^0,w,c
  5237   00226E  6E40               	movwf	___fldiv@aexp^0,c
  5238   002270  AE2E               	btfss	(___fldiv@a+2)^0,7,c
  5239   002272  EF3D  F011         	goto	u2831
  5240   002276  EF3F  F011         	goto	u2830
  5241   00227A                     u2831:
  5242   00227A  EF40  F011         	goto	l2710
  5243   00227E                     u2830:
  5244   00227E  8040               	bsf	___fldiv@aexp^0,0,c
  5245   002280                     l2710:
  5246   002280  5040               	movf	___fldiv@aexp^0,w,c
  5247   002282  B4D8               	btfsc	status,2,c
  5248   002284  EF46  F011         	goto	u2841
  5249   002288  EF48  F011         	goto	u2840
  5250   00228C                     u2841:
  5251   00228C  EF5D  F011         	goto	l2720
  5252   002290                     u2840:
  5253   002290  2840               	incf	___fldiv@aexp^0,w,c
  5254   002292  A4D8               	btfss	status,2,c
  5255   002294  EF4E  F011         	goto	u2851
  5256   002298  EF50  F011         	goto	u2850
  5257   00229C                     u2851:
  5258   00229C  EF58  F011         	goto	l2716
  5259   0022A0                     u2850:
  5260   0022A0  0E00               	movlw	0
  5261   0022A2  6E2C               	movwf	___fldiv@a^0,c
  5262   0022A4  0E00               	movlw	0
  5263   0022A6  6E2D               	movwf	(___fldiv@a+1)^0,c
  5264   0022A8  0E00               	movlw	0
  5265   0022AA  6E2E               	movwf	(___fldiv@a+2)^0,c
  5266   0022AC  0E00               	movlw	0
  5267   0022AE  6E2F               	movwf	(___fldiv@a+3)^0,c
  5268   0022B0                     l2716:
  5269   0022B0  8E2E               	bsf	(___fldiv@a+2)^0,7,c
  5270   0022B2  0E00               	movlw	0
  5271   0022B4  6E2F               	movwf	(___fldiv@a+3)^0,c
  5272   0022B6  EF65  F011         	goto	l2722
  5273   0022BA                     l2720:
  5274   0022BA  0E00               	movlw	0
  5275   0022BC  6E2C               	movwf	___fldiv@a^0,c
  5276   0022BE  0E00               	movlw	0
  5277   0022C0  6E2D               	movwf	(___fldiv@a+1)^0,c
  5278   0022C2  0E00               	movlw	0
  5279   0022C4  6E2E               	movwf	(___fldiv@a+2)^0,c
  5280   0022C6  0E00               	movlw	0
  5281   0022C8  6E2F               	movwf	(___fldiv@a+3)^0,c
  5282   0022CA                     l2722:
  5283   0022CA  502C               	movf	___fldiv@a^0,w,c
  5284   0022CC  102D               	iorwf	(___fldiv@a+1)^0,w,c
  5285   0022CE  102E               	iorwf	(___fldiv@a+2)^0,w,c
  5286   0022D0  102F               	iorwf	(___fldiv@a+3)^0,w,c
  5287   0022D2  A4D8               	btfss	status,2,c
  5288   0022D4  EF6E  F011         	goto	u2861
  5289   0022D8  EF70  F011         	goto	u2860
  5290   0022DC                     u2861:
  5291   0022DC  EF88  F011         	goto	l2734
  5292   0022E0                     u2860:
  5293   0022E0  0E00               	movlw	0
  5294   0022E2  6E28               	movwf	___fldiv@b^0,c
  5295   0022E4  0E00               	movlw	0
  5296   0022E6  6E29               	movwf	(___fldiv@b+1)^0,c
  5297   0022E8  0E00               	movlw	0
  5298   0022EA  6E2A               	movwf	(___fldiv@b+2)^0,c
  5299   0022EC  0E00               	movlw	0
  5300   0022EE  6E2B               	movwf	(___fldiv@b+3)^0,c
  5301   0022F0  0E80               	movlw	128
  5302   0022F2  122A               	iorwf	(___fldiv@b+2)^0,f,c
  5303   0022F4  0E7F               	movlw	127
  5304   0022F6  122B               	iorwf	(___fldiv@b+3)^0,f,c
  5305   0022F8                     l2728:
  5306   0022F8  5038               	movf	___fldiv@sign^0,w,c
  5307   0022FA  122B               	iorwf	(___fldiv@b+3)^0,f,c
  5308   0022FC  C028  F028         	movff	___fldiv@b,?___fldiv
  5309   002300  C029  F029         	movff	___fldiv@b+1,?___fldiv+1
  5310   002304  C02A  F02A         	movff	___fldiv@b+2,?___fldiv+2
  5311   002308  C02B  F02B         	movff	___fldiv@b+3,?___fldiv+3
  5312   00230C  EFCB  F012         	goto	l674
  5313   002310                     l2734:
  5314   002310  503F               	movf	___fldiv@bexp^0,w,c
  5315   002312  A4D8               	btfss	status,2,c
  5316   002314  EF8E  F011         	goto	u2871
  5317   002318  EF90  F011         	goto	u2870
  5318   00231C                     u2871:
  5319   00231C  EF9A  F011         	goto	l2742
  5320   002320                     u2870:
  5321   002320  0E00               	movlw	0
  5322   002322  6E28               	movwf	?___fldiv^0,c
  5323   002324  0E00               	movlw	0
  5324   002326  6E29               	movwf	(?___fldiv+1)^0,c
  5325   002328  0E00               	movlw	0
  5326   00232A  6E2A               	movwf	(?___fldiv+2)^0,c
  5327   00232C  0E00               	movlw	0
  5328   00232E  6E2B               	movwf	(?___fldiv+3)^0,c
  5329   002330  EFCB  F012         	goto	l674
  5330   002334                     l2742:
  5331   002334  5040               	movf	___fldiv@aexp^0,w,c
  5332   002336  C03F  F030         	movff	___fldiv@bexp,??___fldiv
  5333   00233A  6A31               	clrf	(??___fldiv+1)^0,c
  5334   00233C  5E30               	subwf	??___fldiv^0,f,c
  5335   00233E  0E00               	movlw	0
  5336   002340  5A31               	subwfb	(??___fldiv+1)^0,f,c
  5337   002342  0E7F               	movlw	127
  5338   002344  2430               	addwf	??___fldiv^0,w,c
  5339   002346  6E39               	movwf	___fldiv@new_exp^0,c
  5340   002348  0E00               	movlw	0
  5341   00234A  2031               	addwfc	(??___fldiv+1)^0,w,c
  5342   00234C  6E3A               	movwf	(___fldiv@new_exp+1)^0,c
  5343   00234E  C028  F034         	movff	___fldiv@b,___fldiv@rem
  5344   002352  C029  F035         	movff	___fldiv@b+1,___fldiv@rem+1
  5345   002356  C02A  F036         	movff	___fldiv@b+2,___fldiv@rem+2
  5346   00235A  C02B  F037         	movff	___fldiv@b+3,___fldiv@rem+3
  5347   00235E  0E00               	movlw	0
  5348   002360  6E28               	movwf	___fldiv@b^0,c
  5349   002362  0E00               	movlw	0
  5350   002364  6E29               	movwf	(___fldiv@b+1)^0,c
  5351   002366  0E00               	movlw	0
  5352   002368  6E2A               	movwf	(___fldiv@b+2)^0,c
  5353   00236A  0E00               	movlw	0
  5354   00236C  6E2B               	movwf	(___fldiv@b+3)^0,c
  5355   00236E  0E00               	movlw	0
  5356   002370  6E3B               	movwf	___fldiv@grs^0,c
  5357   002372  0E00               	movlw	0
  5358   002374  6E3C               	movwf	(___fldiv@grs+1)^0,c
  5359   002376  0E00               	movlw	0
  5360   002378  6E3D               	movwf	(___fldiv@grs+2)^0,c
  5361   00237A  0E00               	movlw	0
  5362   00237C  6E3E               	movwf	(___fldiv@grs+3)^0,c
  5363   00237E  0E00               	movlw	0
  5364   002380  6E40               	movwf	___fldiv@aexp^0,c
  5365   002382  EFFB  F011         	goto	l676
  5366   002386                     l2752:
  5367   002386  5040               	movf	___fldiv@aexp^0,w,c
  5368   002388  B4D8               	btfsc	status,2,c
  5369   00238A  EFC9  F011         	goto	u2881
  5370   00238E  EFCB  F011         	goto	u2880
  5371   002392                     u2881:
  5372   002392  EFE2  F011         	goto	l2760
  5373   002396                     u2880:
  5374   002396  90D8               	bcf	status,0,c
  5375   002398  3634               	rlcf	___fldiv@rem^0,f,c
  5376   00239A  3635               	rlcf	(___fldiv@rem+1)^0,f,c
  5377   00239C  3636               	rlcf	(___fldiv@rem+2)^0,f,c
  5378   00239E  3637               	rlcf	(___fldiv@rem+3)^0,f,c
  5379   0023A0  90D8               	bcf	status,0,c
  5380   0023A2  3628               	rlcf	___fldiv@b^0,f,c
  5381   0023A4  3629               	rlcf	(___fldiv@b+1)^0,f,c
  5382   0023A6  362A               	rlcf	(___fldiv@b+2)^0,f,c
  5383   0023A8  362B               	rlcf	(___fldiv@b+3)^0,f,c
  5384   0023AA  AE3E               	btfss	(___fldiv@grs+3)^0,7,c
  5385   0023AC  EFDA  F011         	goto	u2891
  5386   0023B0  EFDC  F011         	goto	u2890
  5387   0023B4                     u2891:
  5388   0023B4  EFDD  F011         	goto	l679
  5389   0023B8                     u2890:
  5390   0023B8  8028               	bsf	___fldiv@b^0,0,c
  5391   0023BA                     l679:
  5392   0023BA  90D8               	bcf	status,0,c
  5393   0023BC  363B               	rlcf	___fldiv@grs^0,f,c
  5394   0023BE  363C               	rlcf	(___fldiv@grs+1)^0,f,c
  5395   0023C0  363D               	rlcf	(___fldiv@grs+2)^0,f,c
  5396   0023C2  363E               	rlcf	(___fldiv@grs+3)^0,f,c
  5397   0023C4                     l2760:
  5398   0023C4  502C               	movf	___fldiv@a^0,w,c
  5399   0023C6  5C34               	subwf	___fldiv@rem^0,w,c
  5400   0023C8  502D               	movf	(___fldiv@a+1)^0,w,c
  5401   0023CA  5835               	subwfb	(___fldiv@rem+1)^0,w,c
  5402   0023CC  502E               	movf	(___fldiv@a+2)^0,w,c
  5403   0023CE  5836               	subwfb	(___fldiv@rem+2)^0,w,c
  5404   0023D0  502F               	movf	(___fldiv@a+3)^0,w,c
  5405   0023D2  5837               	subwfb	(___fldiv@rem+3)^0,w,c
  5406   0023D4  A0D8               	btfss	status,0,c
  5407   0023D6  EFEF  F011         	goto	u2901
  5408   0023DA  EFF1  F011         	goto	u2900
  5409   0023DE                     u2901:
  5410   0023DE  EFFA  F011         	goto	l2766
  5411   0023E2                     u2900:
  5412   0023E2  8C3E               	bsf	(___fldiv@grs+3)^0,6,c
  5413   0023E4  502C               	movf	___fldiv@a^0,w,c
  5414   0023E6  5E34               	subwf	___fldiv@rem^0,f,c
  5415   0023E8  502D               	movf	(___fldiv@a+1)^0,w,c
  5416   0023EA  5A35               	subwfb	(___fldiv@rem+1)^0,f,c
  5417   0023EC  502E               	movf	(___fldiv@a+2)^0,w,c
  5418   0023EE  5A36               	subwfb	(___fldiv@rem+2)^0,f,c
  5419   0023F0  502F               	movf	(___fldiv@a+3)^0,w,c
  5420   0023F2  5A37               	subwfb	(___fldiv@rem+3)^0,f,c
  5421   0023F4                     l2766:
  5422   0023F4  2A40               	incf	___fldiv@aexp^0,f,c
  5423   0023F6                     l676:
  5424   0023F6  0E19               	movlw	25
  5425   0023F8  6440               	cpfsgt	___fldiv@aexp^0,c
  5426   0023FA  EF01  F012         	goto	u2911
  5427   0023FE  EF03  F012         	goto	u2910
  5428   002402                     u2911:
  5429   002402  EFC3  F011         	goto	l2752
  5430   002406                     u2910:
  5431   002406  5034               	movf	___fldiv@rem^0,w,c
  5432   002408  1035               	iorwf	(___fldiv@rem+1)^0,w,c
  5433   00240A  1036               	iorwf	(___fldiv@rem+2)^0,w,c
  5434   00240C  1037               	iorwf	(___fldiv@rem+3)^0,w,c
  5435   00240E  B4D8               	btfsc	status,2,c
  5436   002410  EF0C  F012         	goto	u2921
  5437   002414  EF0E  F012         	goto	u2920
  5438   002418                     u2921:
  5439   002418  EF26  F012         	goto	l2778
  5440   00241C                     u2920:
  5441   00241C  803B               	bsf	___fldiv@grs^0,0,c
  5442   00241E  EF26  F012         	goto	l2778
  5443   002422                     l2772:
  5444   002422  90D8               	bcf	status,0,c
  5445   002424  3628               	rlcf	___fldiv@b^0,f,c
  5446   002426  3629               	rlcf	(___fldiv@b+1)^0,f,c
  5447   002428  362A               	rlcf	(___fldiv@b+2)^0,f,c
  5448   00242A  362B               	rlcf	(___fldiv@b+3)^0,f,c
  5449   00242C  AE3E               	btfss	(___fldiv@grs+3)^0,7,c
  5450   00242E  EF1B  F012         	goto	u2931
  5451   002432  EF1D  F012         	goto	u2930
  5452   002436                     u2931:
  5453   002436  EF1E  F012         	goto	l685
  5454   00243A                     u2930:
  5455   00243A  8028               	bsf	___fldiv@b^0,0,c
  5456   00243C                     l685:
  5457   00243C  90D8               	bcf	status,0,c
  5458   00243E  363B               	rlcf	___fldiv@grs^0,f,c
  5459   002440  363C               	rlcf	(___fldiv@grs+1)^0,f,c
  5460   002442  363D               	rlcf	(___fldiv@grs+2)^0,f,c
  5461   002444  363E               	rlcf	(___fldiv@grs+3)^0,f,c
  5462   002446  0639               	decf	___fldiv@new_exp^0,f,c
  5463   002448  A0D8               	btfss	status,0,c
  5464   00244A  063A               	decf	(___fldiv@new_exp+1)^0,f,c
  5465   00244C                     l2778:
  5466   00244C  AE2A               	btfss	(___fldiv@b+2)^0,7,c
  5467   00244E  EF2B  F012         	goto	u2941
  5468   002452  EF2D  F012         	goto	u2940
  5469   002456                     u2941:
  5470   002456  EF11  F012         	goto	l2772
  5471   00245A                     u2940:
  5472   00245A  0E00               	movlw	0
  5473   00245C  6E40               	movwf	___fldiv@aexp^0,c
  5474   00245E  AE3E               	btfss	(___fldiv@grs+3)^0,7,c
  5475   002460  EF34  F012         	goto	u2951
  5476   002464  EF36  F012         	goto	u2950
  5477   002468                     u2951:
  5478   002468  EF5A  F012         	goto	l687
  5479   00246C                     u2950:
  5480   00246C  0EFF               	movlw	255
  5481   00246E  143B               	andwf	___fldiv@grs^0,w,c
  5482   002470  6E30               	movwf	??___fldiv^0,c
  5483   002472  0EFF               	movlw	255
  5484   002474  143C               	andwf	(___fldiv@grs+1)^0,w,c
  5485   002476  6E31               	movwf	(??___fldiv+1)^0,c
  5486   002478  0EFF               	movlw	255
  5487   00247A  143D               	andwf	(___fldiv@grs+2)^0,w,c
  5488   00247C  6E32               	movwf	(??___fldiv+2)^0,c
  5489   00247E  0E7F               	movlw	127
  5490   002480  143E               	andwf	(___fldiv@grs+3)^0,w,c
  5491   002482  6E33               	movwf	(??___fldiv+3)^0,c
  5492   002484  5030               	movf	??___fldiv^0,w,c
  5493   002486  1031               	iorwf	(??___fldiv+1)^0,w,c
  5494   002488  1032               	iorwf	(??___fldiv+2)^0,w,c
  5495   00248A  1033               	iorwf	(??___fldiv+3)^0,w,c
  5496   00248C  B4D8               	btfsc	status,2,c
  5497   00248E  EF4B  F012         	goto	u2961
  5498   002492  EF4D  F012         	goto	u2960
  5499   002496                     u2961:
  5500   002496  EF51  F012         	goto	l688
  5501   00249A                     u2960:
  5502   00249A                     l2786:
  5503   00249A  0E01               	movlw	1
  5504   00249C  6E40               	movwf	___fldiv@aexp^0,c
  5505   00249E  EF5A  F012         	goto	l687
  5506   0024A2                     l688:
  5507   0024A2  A028               	btfss	___fldiv@b^0,0,c
  5508   0024A4  EF56  F012         	goto	u2971
  5509   0024A8  EF58  F012         	goto	u2970
  5510   0024AC                     u2971:
  5511   0024AC  EF5A  F012         	goto	l687
  5512   0024B0                     u2970:
  5513   0024B0  EF4D  F012         	goto	l2786
  5514   0024B4                     l687:
  5515   0024B4  5040               	movf	___fldiv@aexp^0,w,c
  5516   0024B6  B4D8               	btfsc	status,2,c
  5517   0024B8  EF60  F012         	goto	u2981
  5518   0024BC  EF62  F012         	goto	u2980
  5519   0024C0                     u2981:
  5520   0024C0  EF86  F012         	goto	l2798
  5521   0024C4                     u2980:
  5522   0024C4  0E01               	movlw	1
  5523   0024C6  2628               	addwf	___fldiv@b^0,f,c
  5524   0024C8  0E00               	movlw	0
  5525   0024CA  2229               	addwfc	(___fldiv@b+1)^0,f,c
  5526   0024CC  222A               	addwfc	(___fldiv@b+2)^0,f,c
  5527   0024CE  222B               	addwfc	(___fldiv@b+3)^0,f,c
  5528   0024D0  A02B               	btfss	(___fldiv@b+3)^0,0,c
  5529   0024D2  EF6D  F012         	goto	u2991
  5530   0024D6  EF6F  F012         	goto	u2990
  5531   0024DA                     u2991:
  5532   0024DA  EF86  F012         	goto	l2798
  5533   0024DE                     u2990:
  5534   0024DE  C028  F030         	movff	___fldiv@b,??___fldiv
  5535   0024E2  C029  F031         	movff	___fldiv@b+1,??___fldiv+1
  5536   0024E6  C02A  F032         	movff	___fldiv@b+2,??___fldiv+2
  5537   0024EA  C02B  F033         	movff	___fldiv@b+3,??___fldiv+3
  5538   0024EE  3433               	rlcf	(??___fldiv+3)^0,w,c
  5539   0024F0  3233               	rrcf	(??___fldiv+3)^0,f,c
  5540   0024F2  3232               	rrcf	(??___fldiv+2)^0,f,c
  5541   0024F4  3231               	rrcf	(??___fldiv+1)^0,f,c
  5542   0024F6  3230               	rrcf	??___fldiv^0,f,c
  5543   0024F8  C030  F028         	movff	??___fldiv,___fldiv@b
  5544   0024FC  C031  F029         	movff	??___fldiv+1,___fldiv@b+1
  5545   002500  C032  F02A         	movff	??___fldiv+2,___fldiv@b+2
  5546   002504  C033  F02B         	movff	??___fldiv+3,___fldiv@b+3
  5547   002508  4A39               	infsnz	___fldiv@new_exp^0,f,c
  5548   00250A  2A3A               	incf	(___fldiv@new_exp+1)^0,f,c
  5549   00250C                     l2798:
  5550   00250C  BE3A               	btfsc	(___fldiv@new_exp+1)^0,7,c
  5551   00250E  EF91  F012         	goto	u3001
  5552   002512  503A               	movf	(___fldiv@new_exp+1)^0,w,c
  5553   002514  E108               	bnz	u3000
  5554   002516  2839               	incf	___fldiv@new_exp^0,w,c
  5555   002518  A0D8               	btfss	status,0,c
  5556   00251A  EF91  F012         	goto	u3001
  5557   00251E  EF93  F012         	goto	u3000
  5558   002522                     u3001:
  5559   002522  EF9E  F012         	goto	l2802
  5560   002526                     u3000:
  5561   002526  0E00               	movlw	0
  5562   002528  6E3A               	movwf	(___fldiv@new_exp+1)^0,c
  5563   00252A  6839               	setf	___fldiv@new_exp^0,c
  5564   00252C  0E00               	movlw	0
  5565   00252E  6E28               	movwf	___fldiv@b^0,c
  5566   002530  0E00               	movlw	0
  5567   002532  6E29               	movwf	(___fldiv@b+1)^0,c
  5568   002534  0E00               	movlw	0
  5569   002536  6E2A               	movwf	(___fldiv@b+2)^0,c
  5570   002538  0E00               	movlw	0
  5571   00253A  6E2B               	movwf	(___fldiv@b+3)^0,c
  5572   00253C                     l2802:
  5573   00253C  BE3A               	btfsc	(___fldiv@new_exp+1)^0,7,c
  5574   00253E  EFAB  F012         	goto	u3010
  5575   002542  503A               	movf	(___fldiv@new_exp+1)^0,w,c
  5576   002544  E106               	bnz	u3011
  5577   002546  0439               	decf	___fldiv@new_exp^0,w,c
  5578   002548  B0D8               	btfsc	status,0,c
  5579   00254A  EFA9  F012         	goto	u3011
  5580   00254E  EFAB  F012         	goto	u3010
  5581   002552                     u3011:
  5582   002552  EFB9  F012         	goto	l2806
  5583   002556                     u3010:
  5584   002556  0E00               	movlw	0
  5585   002558  6E3A               	movwf	(___fldiv@new_exp+1)^0,c
  5586   00255A  0E00               	movlw	0
  5587   00255C  6E39               	movwf	___fldiv@new_exp^0,c
  5588   00255E  0E00               	movlw	0
  5589   002560  6E28               	movwf	___fldiv@b^0,c
  5590   002562  0E00               	movlw	0
  5591   002564  6E29               	movwf	(___fldiv@b+1)^0,c
  5592   002566  0E00               	movlw	0
  5593   002568  6E2A               	movwf	(___fldiv@b+2)^0,c
  5594   00256A  0E00               	movlw	0
  5595   00256C  6E2B               	movwf	(___fldiv@b+3)^0,c
  5596   00256E  0E00               	movlw	0
  5597   002570  6E38               	movwf	___fldiv@sign^0,c
  5598   002572                     l2806:
  5599   002572  C039  F03F         	movff	___fldiv@new_exp,___fldiv@bexp
  5600   002576  A03F               	btfss	___fldiv@bexp^0,0,c
  5601   002578  EFC0  F012         	goto	u3021
  5602   00257C  EFC2  F012         	goto	u3020
  5603   002580                     u3021:
  5604   002580  EFC5  F012         	goto	l2812
  5605   002584                     u3020:
  5606   002584  8E2A               	bsf	(___fldiv@b+2)^0,7,c
  5607   002586  EFC6  F012         	goto	l2814
  5608   00258A                     l2812:
  5609   00258A  9E2A               	bcf	(___fldiv@b+2)^0,7,c
  5610   00258C                     l2814:
  5611   00258C  90D8               	bcf	status,0,c
  5612   00258E  303F               	rrcf	___fldiv@bexp^0,w,c
  5613   002590  6E2B               	movwf	(___fldiv@b+3)^0,c
  5614   002592  EF7C  F011         	goto	l2728
  5615   002596                     l674:
  5616   002596  0012               	return		;funcret
  5617   002598                     __end_of___fldiv:
  5618                           	callstack 0
  5619                           
  5620 ;; *************** function _SPI_write *****************
  5621 ;; Defined at:
  5622 ;;		line 99 in file "main.c"
  5623 ;; Parameters:    Size  Location     Type
  5624 ;;  data            1    wreg     unsigned char 
  5625 ;; Auto vars:     Size  Location     Type
  5626 ;;  data            1    2[COMRAM] unsigned char 
  5627 ;;  LSB             1    1[COMRAM] unsigned char 
  5628 ;;  MSB             1    0[COMRAM] unsigned char 
  5629 ;; Return value:  Size  Location     Type
  5630 ;;                  1    wreg      void 
  5631 ;; Registers used:
  5632 ;;		wreg, status,2, status,0
  5633 ;; Tracked objects:
  5634 ;;		On entry : 0/0
  5635 ;;		On exit  : 0/0
  5636 ;;		Unchanged: 0/0
  5637 ;; Data sizes:     COMRAM   BANK0   BANK1   BANK2   BANK3   BANK4   BANK5   BANK6   BANK7   BANK8   BANK9  BANK10  BANK1
      +1  BANK12  BANK13  BANK14  BANK15
  5638 ;;      Params:         0       0       0       0       0       0       0       0       0       0       0       0       
      +0       0       0       0       0
  5639 ;;      Locals:         3       0       0       0       0       0       0       0       0       0       0       0       
      +0       0       0       0       0
  5640 ;;      Temps:          0       0       0       0       0       0       0       0       0       0       0       0       
      +0       0       0       0       0
  5641 ;;      Totals:         3       0       0       0       0       0       0       0       0       0       0       0       
      +0       0       0       0       0
  5642 ;;Total ram usage:        3 bytes
  5643 ;; Hardware stack levels used: 1
  5644 ;; This function calls:
  5645 ;;		Nothing
  5646 ;; This function is called by:
  5647 ;;		_main
  5648 ;; This function uses a non-reentrant model
  5649 ;;
  5650                           
  5651                           	psect	text21
  5652   0033BC                     __ptext21:
  5653                           	callstack 0
  5654   0033BC                     _SPI_write:
  5655                           	callstack 30
  5656                           
  5657                           ;incstack = 0
  5658                           ;SPI_write@data stored from wreg
  5659   0033BC  6E03               	movwf	SPI_write@data^0,c
  5660   0033BE                     
  5661                           ;main.c: 100:     uint8_t MSB, LSB;;main.c: 102:     MSB = (uint8_t)(0b00110000 | (data 
      +                          >> 4));
  5662   0033BE  3803               	swapf	SPI_write@data^0,w,c
  5663   0033C0  0B0F               	andlw	15
  5664   0033C2  0930               	iorlw	48
  5665   0033C4  6E01               	movwf	SPI_write@MSB^0,c
  5666                           
  5667                           ;main.c: 103:     LSB = (uint8_t)(data << 4);
  5668   0033C6  3803               	swapf	SPI_write@data^0,w,c
  5669   0033C8  0BF0               	andlw	240
  5670   0033CA  6E02               	movwf	SPI_write@LSB^0,c
  5671   0033CC                     
  5672                           ;main.c: 105:     LATBbits.LB3 = 0;
  5673   0033CC  968A               	bcf	138,3,c	;volatile
  5674   0033CE                     
  5675                           ;main.c: 107:     SSP1BUF = MSB;
  5676   0033CE  C001  FFC9         	movff	SPI_write@MSB,4041	;volatile
  5677   0033D2                     l77:
  5678   0033D2  A69E               	btfss	3998,3,c	;volatile
  5679   0033D4  EFEE  F019         	goto	u2651
  5680   0033D8  EFF0  F019         	goto	u2650
  5681   0033DC                     u2651:
  5682   0033DC  EFE9  F019         	goto	l77
  5683   0033E0                     u2650:
  5684   0033E0                     
  5685                           ;main.c: 109:     SSP1IF = 0;
  5686   0033E0  969E               	bcf	3998,3,c	;volatile
  5687                           
  5688                           ;main.c: 111:     SSP1BUF = LSB;
  5689   0033E2  C002  FFC9         	movff	SPI_write@LSB,4041	;volatile
  5690   0033E6                     l80:
  5691   0033E6  A69E               	btfss	3998,3,c	;volatile
  5692   0033E8  EFF8  F019         	goto	u2661
  5693   0033EC  EFFA  F019         	goto	u2660
  5694   0033F0                     u2661:
  5695   0033F0  EFF3  F019         	goto	l80
  5696   0033F4                     u2660:
  5697   0033F4                     
  5698                           ;main.c: 113:     SSP1IF = 0;
  5699   0033F4  969E               	bcf	3998,3,c	;volatile
  5700                           
  5701                           ;main.c: 115:     LATBbits.LB3 = 1;
  5702   0033F6  868A               	bsf	138,3,c	;volatile
  5703   0033F8  0012               	return		;funcret
  5704   0033FA                     __end_of_SPI_write:
  5705                           	callstack 0
  5706                           
  5707                           	psect	rparam
  5708   000000                     
  5709                           	psect	config
  5710                           
  5711                           ; Padding undefined space
  5712   300000                     	org	3145728
  5713   300000  FF                 	db	255
  5714                           
  5715                           ;Config register CONFIG1H @ 0x300001
  5716                           ;	Oscillator Selection bits
  5717                           ;	FOSC = HSMP, HS oscillator (medium power 4-16 MHz)
  5718                           ;	4X PLL Enable
  5719                           ;	PLLCFG = ON, Oscillator multiplied by 4
  5720                           ;	Primary clock enable bit
  5721                           ;	PRICLKEN = 0x1, unprogrammed default
  5722                           ;	Fail-Safe Clock Monitor Enable bit
  5723                           ;	FCMEN = 0x0, unprogrammed default
  5724                           ;	Internal/External Oscillator Switchover bit
  5725                           ;	IESO = 0x0, unprogrammed default
  5726   300001                     	org	3145729
  5727   300001  33                 	db	51
  5728                           
  5729                           ;Config register CONFIG2L @ 0x300002
  5730                           ;	unspecified, using default values
  5731                           ;	Power-up Timer Enable bit
  5732                           ;	PWRTEN = 0x1, unprogrammed default
  5733                           ;	Brown-out Reset Enable bits
  5734                           ;	BOREN = 0x3, unprogrammed default
  5735                           ;	Brown Out Reset Voltage bits
  5736                           ;	BORV = 0x3, unprogrammed default
  5737   300002                     	org	3145730
  5738   300002  1F                 	db	31
  5739                           
  5740                           ;Config register CONFIG2H @ 0x300003
  5741                           ;	Watchdog Timer Enable bits
  5742                           ;	WDTEN = OFF, Watch dog timer is always disabled. SWDTEN has no effect.
  5743                           ;	Watchdog Timer Postscale Select bits
  5744                           ;	WDTPS = 0xF, unprogrammed default
  5745   300003                     	org	3145731
  5746   300003  3C                 	db	60
  5747                           tosu	equ	0xFFF
  5748                           tosh	equ	0xFFE
  5749                           tosl	equ	0xFFD
  5750                           stkptr	equ	0xFFC
  5751                           pclatu	equ	0xFFB
  5752                           pclath	equ	0xFFA
  5753                           pcl	equ	0xFF9
  5754                           tblptru	equ	0xFF8
  5755                           tblptrh	equ	0xFF7
  5756                           tblptrl	equ	0xFF6
  5757                           tablat	equ	0xFF5
  5758                           prodh	equ	0xFF4
  5759                           prodl	equ	0xFF3
  5760                           indf0	equ	0xFEF
  5761                           postinc0	equ	0xFEE
  5762                           postdec0	equ	0xFED
  5763                           preinc0	equ	0xFEC
  5764                           plusw0	equ	0xFEB
  5765                           fsr0h	equ	0xFEA
  5766                           fsr0l	equ	0xFE9
  5767                           wreg	equ	0xFE8
  5768                           indf1	equ	0xFE7
  5769                           postinc1	equ	0xFE6
  5770                           postdec1	equ	0xFE5
  5771                           preinc1	equ	0xFE4
  5772                           plusw1	equ	0xFE3
  5773                           fsr1h	equ	0xFE2
  5774                           fsr1l	equ	0xFE1
  5775                           bsr	equ	0xFE0
  5776                           indf2	equ	0xFDF
  5777                           postinc2	equ	0xFDE
  5778                           postdec2	equ	0xFDD
  5779                           preinc2	equ	0xFDC
  5780                           plusw2	equ	0xFDB
  5781                           fsr2h	equ	0xFDA
  5782                           fsr2l	equ	0xFD9
  5783                           status	equ	0xFD8

Data Sizes:
    Strings     5
    Constant    64
    Data        0
    BSS         45
    Persistent  0
    Stack       0

Auto Spaces:
    Space          Size  Autos    Used
    COMRAM           95     93      94
    BANK0           160     94     138
    BANK1           256      0       0
    BANK2           256      0       0
    BANK3           256      0       0
    BANK4           256      0       0
    BANK5           256      0       0
    BANK6           256      0       0
    BANK7           256      0       0
    BANK8           256      0       0
    BANK9           256      0       0
    BANK10          256      0       0
    BANK11          256      0       0
    BANK12          256      0       0
    BANK13          256      0       0
    BANK14          256      0       0
    BANK15           56      0       0

Pointer List with Targets:

    fputc@fp	PTR struct _IO_FILE size(2) Largest target is 0
		 -> NULL(NULL[0]), 

    fputc@fp$.$buffer	PTR unsigned char  size(2) Largest target is 0

    fputc@fp$.$source	PTR const unsigned char  size(2) Largest target is 0

    printf@ap	PTR void [1] size(1) Largest target is 2
		 -> ?_printf(COMRAM[2]), 

    printf@fmt	PTR const unsigned char  size(1) Largest target is 5
		 -> STR_1(CODE[5]), 

    __rem_pio2f@y	PTR  size(1) Largest target is 4
		 -> sinf@y(BANK0[4]), 

    S1503$buffer	PTR unsigned char  size(2) Largest target is 0

    S1503$source	PTR const unsigned char  size(2) Largest target is 0

    vfpfcnvrt@ap	PTR PTR void  size(1) Largest target is 1
		 -> printf@ap(COMRAM[1]), 

    vfpfcnvrt@cp	PTR unsigned char  size(1) Largest target is 5
		 -> STR_1(CODE[5]), 

    vfpfcnvrt@fmt	PTR PTR unsigned char  size(1) Largest target is 1
		 -> vfprintf@cfmt(COMRAM[1]), 

    vfpfcnvrt@fp	PTR struct _IO_FILE size(2) Largest target is 0
		 -> NULL(NULL[0]), 

    vfprintf@ap	PTR PTR void  size(1) Largest target is 1
		 -> printf@ap(COMRAM[1]), 

    vfprintf@cfmt	PTR unsigned char  size(1) Largest target is 5
		 -> STR_1(CODE[5]), 

    vfprintf@fmt	PTR const unsigned char  size(1) Largest target is 5
		 -> STR_1(CODE[5]), 

    vfprintf@fp	PTR struct _IO_FILE size(2) Largest target is 0
		 -> NULL(NULL[0]), 


Critical Paths under _main in COMRAM

    _sinf->___rem_pio2f
    ___sindf->___fladd
    ___rem_pio2f->___fltol
    ___fltol->___fladd
    ___flsub->___fladd
    ___flneg->___cosdf
    ___cosdf->___fladd
    ___flmul->___xxtofl
    ___fladd->___fldiv
    _printf->_vfprintf
    _vfprintf->_vfpfcnvrt
    _vfpfcnvrt->_abs
    _vfpfcnvrt->_fputc
    _fputc->_putch
    _abs->___awmod
    ___fldiv->___flmul

Critical Paths under _main in BANK0

    _main->_sinf
    _sinf->___rem_pio2f
    ___rem_pio2f->___flneg
    ___flneg->___cosdf

Critical Paths under _main in BANK1

    None.

Critical Paths under _main in BANK2

    None.

Critical Paths under _main in BANK3

    None.

Critical Paths under _main in BANK4

    None.

Critical Paths under _main in BANK5

    None.

Critical Paths under _main in BANK6

    None.

Critical Paths under _main in BANK7

    None.

Critical Paths under _main in BANK8

    None.

Critical Paths under _main in BANK9

    None.

Critical Paths under _main in BANK10

    None.

Critical Paths under _main in BANK11

    None.

Critical Paths under _main in BANK12

    None.

Critical Paths under _main in BANK13

    None.

Critical Paths under _main in BANK14

    None.

Critical Paths under _main in BANK15

    None.

Call Graph Tables:

 ---------------------------------------------------------------------------------
 (Depth) Function   	        Calls       Base Space   Used Autos Params    Refs
 ---------------------------------------------------------------------------------
 (0) _main                                                11    11      0   65307
                                             92 COMRAM     1     1      0
                                             84 BANK0     10    10      0
                          _SPI_write
                            ___fladd
                            ___fldiv
                            ___flmul
                            ___fltol
                           ___xxtofl
                             _printf
                               _sinf
 ---------------------------------------------------------------------------------
 (1) _sinf                                                26    22      4   48671
                                             58 BANK0     26    22      4
                            ___cosdf
                            ___fladd
                            ___fldiv (ARG)
                            ___flneg
                        ___rem_pio2f
                            ___sindf
 ---------------------------------------------------------------------------------
 (2) ___sindf                                             32    28      4   11205
                                             80 COMRAM     4     0      4
                                              0 BANK0     28    28      0
                            ___fladd
                            ___flmul
 ---------------------------------------------------------------------------------
 (2) ___rem_pio2f                                         32    27      5   19459
                                             90 COMRAM     2     2      0
                                             28 BANK0     30    25      5
                            ___fladd
                            ___flmul
                            ___flneg
                            ___flsub
                            ___fltol
                           ___xxtofl
                              _fabsf
 ---------------------------------------------------------------------------------
 (3) _fabsf                                                8     4      4     199
                                              0 COMRAM     8     4      4
 ---------------------------------------------------------------------------------
 (3) ___xxtofl                                            14    10      4     702
                                              0 COMRAM    14    10      4
 ---------------------------------------------------------------------------------
 (3) ___fltol                                             10     6      4     609
                                             80 COMRAM    10     6      4
                            ___fladd (ARG)
                            ___fldiv (ARG)
                            ___flmul (ARG)
                           ___xxtofl (ARG)
 ---------------------------------------------------------------------------------
 (3) ___flsub                                              8     0      8    5929
                                             80 COMRAM     8     0      8
                            ___fladd
                            ___flmul (ARG)
 ---------------------------------------------------------------------------------
 (3) ___flneg                                              4     0      4     653
                                             24 BANK0      4     0      4
                            ___cosdf (ARG)
                            ___fladd (ARG)
 ---------------------------------------------------------------------------------
 (2) ___cosdf                                             28    24      4   11290
                                             80 COMRAM     4     0      4
                                              0 BANK0     24    24      0
                            ___fladd
                            ___flmul
 ---------------------------------------------------------------------------------
 (3) ___flmul                                             25    17      8    5392
                                             14 COMRAM    25    17      8
                           ___xxtofl (ARG)
 ---------------------------------------------------------------------------------
 (3) ___fladd                                             16     8      8    5150
                                             64 COMRAM    16     8      8
                            ___fldiv (ARG)
                            ___flmul (ARG)
                           ___xxtofl (ARG)
 ---------------------------------------------------------------------------------
 (1) _printf                                               6     3      3    3088
                                             27 COMRAM     4     1      3
                           _vfprintf
 ---------------------------------------------------------------------------------
 (2) _vfprintf                                             5     1      4    2958
                                             22 COMRAM     5     1      4
                          _vfpfcnvrt
 ---------------------------------------------------------------------------------
 (3) _vfpfcnvrt                                           12     8      4    2608
                                             10 COMRAM    12     8      4
                            ___awdiv
                            ___awmod
                                _abs
                              _fputc
 ---------------------------------------------------------------------------------
 (4) _fputc                                                9     5      4     804
                                              1 COMRAM     9     5      4
                              _putch
 ---------------------------------------------------------------------------------
 (5) _putch                                                1     1      0      22
                                              0 COMRAM     1     1      0
 ---------------------------------------------------------------------------------
 (4) _abs                                                  4     2      2     142
                                              6 COMRAM     4     2      2
                            ___awmod (ARG)
 ---------------------------------------------------------------------------------
 (4) ___awmod                                              6     2      4     448
                                              0 COMRAM     6     2      4
 ---------------------------------------------------------------------------------
 (4) ___awdiv                                              8     4      4     452
                                              0 COMRAM     8     4      4
 ---------------------------------------------------------------------------------
 (1) ___fldiv                                             25    17      8    1399
                                             39 COMRAM    25    17      8
                            ___flmul (ARG)
                           ___xxtofl (ARG)
 ---------------------------------------------------------------------------------
 (1) _SPI_write                                            3     3      0      90
                                              0 COMRAM     3     3      0
 ---------------------------------------------------------------------------------
 Estimated maximum stack depth 5
 ---------------------------------------------------------------------------------

 Call Graph Graphs:

 _main (ROOT)
   _SPI_write
   ___fladd
     ___fldiv (ARG)
       ___flmul (ARG)
         ___xxtofl (ARG)
       ___xxtofl (ARG)
     ___flmul (ARG)
     ___xxtofl (ARG)
   ___fldiv
   ___flmul
   ___fltol
     ___fladd (ARG)
     ___fldiv (ARG)
     ___flmul (ARG)
     ___xxtofl (ARG)
   ___xxtofl
   _printf
     _vfprintf
       _vfpfcnvrt
         ___awdiv
         ___awmod
         _abs
           ___awmod (ARG)
         _fputc
           _putch
   _sinf
     ___cosdf
       ___fladd
       ___flmul
     ___fladd
     ___fldiv (ARG)
     ___flneg (ARG)
       ___cosdf (ARG)
       ___fladd (ARG)
     ___rem_pio2f (ARG)
       ___fladd
       ___flmul
       ___flneg
       ___flsub
         ___fladd
         ___flmul (ARG)
       ___fltol
       ___xxtofl
       _fabsf
     ___sindf (ARG)
       ___fladd
       ___flmul

 Address spaces:
Name               Size   Autos  Total    Cost      Usage
BIGRAM             F37      0       0      50        0.0%
EEDATA             400      0       0       0        0.0%
BITBANK14          100      0       0      32        0.0%
BANK14             100      0       0      33        0.0%
BITBANK13          100      0       0      30        0.0%
BANK13             100      0       0      31        0.0%
BITBANK12          100      0       0      28        0.0%
BANK12             100      0       0      29        0.0%
BITBANK11          100      0       0      26        0.0%
BANK11             100      0       0      27        0.0%
BITBANK10          100      0       0      24        0.0%
BANK10             100      0       0      25        0.0%
BITBANK9           100      0       0      22        0.0%
BANK9              100      0       0      23        0.0%
BITBANK8           100      0       0      20        0.0%
BANK8              100      0       0      21        0.0%
BITBANK7           100      0       0      18        0.0%
BANK7              100      0       0      19        0.0%
BITBANK6           100      0       0      16        0.0%
BANK6              100      0       0      17        0.0%
BITBANK5           100      0       0      14        0.0%
BANK5              100      0       0      15        0.0%
BITBANK4           100      0       0      12        0.0%
BANK4              100      0       0      13        0.0%
BITBANK3           100      0       0      10        0.0%
BANK3              100      0       0      11        0.0%
BITBANK2           100      0       0       8        0.0%
BANK2              100      0       0       9        0.0%
BITBANK1           100      0       0       6        0.0%
BANK1              100      0       0       7        0.0%
BITBANK0            A0      0       0       4        0.0%
BANK0               A0     5E      8A       5       86.2%
BITCOMRAM           5F      0       0       0        0.0%
COMRAM              5F     5D      5E       1       98.9%
BITBIGSFRlllll      46      0       0      48        0.0%
BITBANK15           38      0       0      34        0.0%
BANK15              38      0       0      35        0.0%
BITBIGSFRhhh        36      0       0      36        0.0%
BITBIGSFRhllh       10      0       0      41        0.0%
BITBIGSFRhllllh      C      0       0      43        0.0%
BITBIGSFRhlllll      9      0       0      44        0.0%
BITBIGSFRlllh        7      0       0      46        0.0%
BITBIGSFRllh         7      0       0      45        0.0%
BITBIGSFRllllh       1      0       0      47        0.0%
BITBIGSFRhlhhh       1      0       0      38        0.0%
BITBIGSFRhlllh       1      0       0      42        0.0%
BITBIGSFRhlhhl       1      0       0      39        0.0%
BITBIGSFRhlhl        1      0       0      40        0.0%
BITBIGSFRhhl         1      0       0      37        0.0%
BIGSFR               0      0       0     200        0.0%
BITSFR_1             0      0       0     200        0.0%
SFR_1                0      0       0     200        0.0%
BITSFR               0      0       0     200        0.0%
SFR                  0      0       0     200        0.0%
STACK                0      0       0       2        0.0%
NULL                 0      0       0       0        0.0%
ABS                  0      0      E8      49        0.0%
DATA                 0      0      E8       3        0.0%
CODE                 0      0       0       0        0.0%


Microchip Technology PIC18 Macro Assembler V2.46 build 20240104201356 
Symbol Table                                                                                   Sat Apr 27 20:58:39 2024

           ___fldiv@aexp 0040             ___fldiv@bexp 003F             ___fldiv@sign 0038  
                     _C0 102D                       _C1 1029                       _C2 1025  
                     _C3 1021                       l62 27D4                       l55 25E8  
                     l80 33E6                       l65 27D6                       l82 33F4  
                     l83 33F8                       _S1 100D                       _S2 1009  
                     l77 33D2                       _S3 1005                       l86 34D0  
                     _S4 1001                       l79 33E0                       l89 34E2  
           ___awdiv@sign 0006                      l323 3282                      l336 3332  
                    l620 1740                      l621 172E                      l622 16F4  
                    l710 1E3A                      l366 3432                      l713 1CCC  
                    l706 1AD6                      l723 1DFC                      l715 1D44  
                    l716 1D32                      l821 349A                      l637 185A  
                    l629 1A10                      l389 30F4                      l814 33BA  
                    l646 192A                      l662 3378                      l750 2FEE  
                    l910 205E                      l647 1918                      l911 21FC  
                    l808 2E3A                      l833 31BE                      l761 2F86  
                    l674 2596                      l818 3482                      l770 34B4  
                    l754 2F2A                      l747 2E92                      l923 2A7A  
                    l676 23F6                      l860 1550                      l685 243C  
                    l687 24B4                      l679 23BA                      l688 24A2  
                    l928 3466                      l894 2C78                      _abs 3468  
           ___awmod@sign 0006                      wreg 0FE8               _TXSTA1bits 0FAC  
           ___flmul@aexp 0020             ___flmul@bexp 0021             ___flmul@sign 001B  
           ___flmul@temp 0026             ___flmul@prod 0022             ___fltol@exp1 005A  
                   l2000 1702                     l2010 172C                     l2002 170E  
                   ?_abs 0007                     l2100 19E2                     l2020 1782  
                   l2012 174E                     l2004 1712                     l2110 1A00  
                   l2102 19E8                     l2030 17BC                     l2022 1790  
                   l2014 175E                     l2006 1720                     l2120 31DA  
                   l2200 3124                     l2104 19EA                     l2040 1828  
                   l2032 17BE                     l2024 179E                     l2008 1722  
                   l2130 3200                     l2122 31DE                     l2114 31C0  
                   l2210 3476                     l2202 3142                     l2106 19F0  
                   l2050 1880                     l2042 182A                     l2034 17C8  
                   l2026 17AA                     l2018 1772                     l2140 3236  
                   l2132 3212                     l2124 31EC                     l2116 31C4  
                   l2204 3178                     l2108 19FE                     l2060 18AE  
                   l2044 183A                     l2028 17AE                     l2036 17CE  
                   l2300 1CDC                     l2220 1A3E                     l2212 1A12  
                   l2142 324C                     l2134 321A                     l2150 3262  
                   l2126 31F4                     l2118 31D2                     l2062 18BC  
                   l2054 1894                     l2070 18DA                     l2038 17F4  
                   l2046 184A                     l2302 1CEA                     l2230 1A7A  
                   l2222 1A4E                     l2214 1A1E                     l2152 3272  
                   l2144 3254                     l2136 3222                     l2128 31F8  
                   l2160 3288                     l2208 3468                     l2064 18C4  
                   l2056 189E                     l2048 1870                     l2072 18E8  
                   l2312 1D54                     l2320 1D9C                     l2304 1CEE  
                   l2240 1AB0                     l2232 1A80                     l2224 1A5E  
                   l2216 1A2C                     l2400 2E3E                     l2154 327A  
                   l2146 3256                     l2138 3230                     l2170 32B8  
                   l2162 3296                     l2082 193A                     l2090 1990  
                   l2074 18EC                     l2066 18C8                     l2058 18AC  
                   l2330 1E10                     l2322 1DB6                     l2314 1D60  
                   l2306 1CFC                     l2242 1AC0                     l2234 1A8E  
                   l2226 1A64                     l2218 1A2E                     l2402 2E4E  
                   l2148 325C                     l2180 32FE                     l2172 32CA  
                   l2164 329E                     l2092 19A0                     l2084 1946  
                   l2076 18FA                     l2068 18D8                     l2332 1E1E  
                   l2324 1DCA                     l2316 1D6E                     l2308 1D2A  
                   l2260 1B42                     l2252 1B0A                     l2244 1AC6  
                   l2236 1A90                     l2228 1A74                     l2420 2F14  
                   l2412 2ECC                     l2404 2E5C                     l2500 3456  
                   l2190 332A                     l2182 3306                     l2174 32D2  
                   l2166 32A2                     l2158 3284                     l2510 33B2  
                   l2094 19B0                     l2086 1954                     l2078 1910  
                   l2334 1E20                     l2326 1DE4                     l2318 1D98  
                   l2270 1B8C                     l2262 1B5A                     l2254 1B16  
                   l2246 1AE6                     l2238 1AA0                     l2350 3412  
                   l2342 3334                     l2430 2F94                     l2422 2F20  
                   l2414 2ED4                     l2406 2EA2                     l2184 330C  
                   l2176 32DA                     l2168 32B0                     l2504 337A  
                   l2096 19D0                     l2088 198E                     l2328 1E00  
                   l2336 1E26                     l2280 1BE2                     l2272 1B9C  
                   l2264 1B66                     l2256 1B20                     l2248 1AF6  
                   l2352 3422                     l2344 3344                     l2440 2FDC  
                   l2432 2F96                     l2424 2F5C                     l2416 2EE0  
                   l2408 2EB8                     l2178 32E8                     l2186 3312  
                   l2194 30F6                     l2450 2CA4                     l2506 3382  
                   l2098 19D4                     l2338 1E2A                     l2290 1C86  
                   l2282 1BFE                     l2274 1BA8                     l2266 1B72  
                   l2258 1B36                     l2370 305A                     l2362 301A  
                   l2442 2FDE                     l2434 2F9A                     l2426 2F68  
                   l2418 2F12                     l2530 1E92                     l2522 1E3C  
                   l2514 284A                     l2610 11F8                     l2700 2254  
                   l2188 3322                     l2196 3108                     l2460 2CF8  
                   l2452 2CB2                     l2508 3396                     l2292 1C94  
                   l2284 1C0A                     l2276 1BB8                     l2268 1B80  
                   l2348 33FA                     l2380 308A                     l2372 3068  
                   l2364 3044                     l2356 2FF0                     l2436 2FBE  
                   l2428 2F76                     l2540 2000                     l2532 1EB6  
                   l2524 1E5C                     l2612 1208                     l2604 119C  
                   l2620 12C4                     l2710 2280                     l2702 2264  
                   l1910 34DE                     l2198 311A                     l2470 2D7E  
                   l2462 2D10                     l2454 2CB6                     l2446 2C7A  
                   l2294 1CB2                     l2286 1C26                     l2278 1BD2  
                   l2518 2A7C                     l2390 30B4                     l2382 3094  
                   l2366 3046                     l2358 3006                     l2438 2FCE  
                   l2550 208E                     l2542 2010                     l2534 1F22  
                   l2526 1E72                     l2622 12E2                     l2614 1254  
                   l2606 11D0                     l2800 2526                     l2712 2290  
                   l2720 22BA                     l2704 226A                     l2480 2DD2  
                   l2472 2D90                     l2464 2D1A                     l2456 2CC0  
                   l2448 2C9C                     l1920 157E                     l1912 1552  
                   l2296 1CBC                     l2288 1C50                     l2392 30C4  
                   l2368 3056                     l2560 21E8                     l2552 20FA  
                   l2544 2042                     l2536 1F48                     l2528 1E74  
                   l2624 1300                     l2640 1380                     l2616 129C  
                   l2570 33CC                     l2810 2584                     l2802 253C  
                   l2730 22FC                     l2722 22CA                     l2714 22A0  
                   l2706 2270                     l2482 2DF0                     l2474 2DA0  
                   l2466 2D32                     l2458 2CDC                     l2490 2E14  
                   l1930 15B8                     l1922 158E                     l1914 155E  
                   l2298 1CCA                     l2394 30D4                     l2378 3080  
                   l2554 2120                     l2538 1FA0                     l2642 1390  
                   l2626 1310                     l2634 1348                     l2650 1424  
                   l2572 33CE                     l2812 258A                     l2804 2556  
                   l2724 22E0                     l2716 22B0                     l2708 227E  
                   l1908 34D0                     l2476 2DB0                     l2484 2DF2  
                   l2468 2D62                     l1940 15E6                     l1932 15BE  
                   l1924 159E                     l1916 156C                     l2396 30E4  
                   l2388 30A8                     l2556 2178                     l2548 206A  
                   l2660 1482                     l2652 143A                     l2644 13C8  
                   l2580 1070                     l2814 258C                     l2806 2572  
                   l2750 237E                     l2742 2334                     l2726 22F0  
                   l2734 2310                     l2718 22B2                     l2478 2DC0  
                   l2486 2E08                     l1950 161A                     l1942 15E8  
                   l1934 15D0                     l1926 15A0                     l1918 156E  
                   l2558 21D0                     l2670 14F6                     l2662 14A6  
                   l2654 144A                     l2646 13FC                     l2582 108E  
                   l2590 10E0                     l2574 1048                     l2830 25B4  
                   l2822 2598                     l2568 33BE                     l2808 2576  
                   l2760 23C4                     l2752 2386                     l2744 234E  
                   l2736 2320                     l2728 22F8                     l2680 34A0  
                   l1960 1656                     l1944 15F8                     l1952 1622  
                   l1936 15D2                     l1928 15A8                     l2496 3434  
                   l2592 10FE                     l2584 10A4                     l2576 1058  
                   l2840 25D2                     l2832 25B6                     l2824 25A8  
                   l2770 241C                     l2762 23E2                     l2754 2396  
                   l2746 235E                     l2738 2320                     l2690 221A  
                   l1970 166A                     l1962 165A                     l1954 1632  
                   l1946 1608                     l1938 15D8                     l2498 3454  
                   l2666 14CE                     l2658 145E                     l2594 111C  
                   l2586 10B8                     l2578 106E                     l2850 2600  
                   l2842 25D4                     l2834 25B8                     l2826 25B0  
                   l2780 245A                     l2772 2422                     l2764 23E4  
                   l2756 23AA                     l2748 236E                     l2692 222A  
                   l2684 21FE                     l1980 167E                     l1972 166E  
                   l1964 165E                     l1956 1644                     l1948 1618  
                   l2676 1532                     l2596 112C                     l2860 2744  
                   l2852 264E                     l2844 25D6                     l2836 25CA  
                   l2828 25B2                     l2790 24C4                     l2782 245E  
                   l2774 242C                     l2766 23F4                     l2758 23B8  
                   l2694 223A                     l2686 220A                     l2678 349C  
                   l1982 1682                     l1974 1672                     l1966 1662  
                   l1958 1652                     l1990 1692                     l2598 1160  
                   l2870 27F2                     l2862 27AA                     l2854 2660  
                   l2846 25D8                     l2838 25D0                     l2792 24D0  
                   l2784 246C                     l2776 243A                     l2768 2406  
                   l2696 224A                     l2688 2218                     l1992 1696  
                   l1984 1686                     l1976 1676                     l1968 1666  
                   l2880 2828                     l2872 2800                     l2856 26B8  
                   l2848 25F0                     l2794 24DE                     l2786 249A  
                   l2778 244C                     l2698 224C                     l1994 16C0  
                   l1986 168A                     l1978 167A                     l2882 282E  
                   l2874 2806                     l2858 2720                     l2866 27B6  
                   l2796 2508                     l1996 16DC                     l1988 168E  
                   l2884 283E                     l2876 2814                     l2868 27E4  
                   l2798 250C                     l1998 16EC                     l2878 281A  
                   STR_1 1041                     u2000 3272                     u2001 326E  
                   u2010 3296                     u2011 3292                     u2020 32B0  
                   u2100 3178                     u2021 32AC                     u2101 3174  
                   u2030 32CA                     u2110 3476                     u2031 32C6  
                   u2111 3472                     u3000 2526                     u2040 32E8  
                   u2200 1C70                     u2120 1A2C                     u3001 2522  
                   u2041 32E4                     u2121 1A28                     u3010 2556  
                   u2050 32FE                     u2210 1CCA                     u2130 1A3E  
                   u3011 2552                     u2051 32FA                     u2211 1CC6  
                   u2131 1A3A                     u3020 2584                     u2060 3322  
                   u2300 1E1E                     u2220 1CEA                     u2140 1A4E  
                   u3021 2580                     u2061 331E                     u2301 1E1A  
                   u2221 1CE6                     u2205 1C66                     u2141 1A4A  
                   u2070 3108                     u2230 1CFC                     u2150 1A8E  
                   u2310 3412                     u3030 2600                     u2071 3104  
                   u2231 1CF8                     u2151 1A8A                     u2311 340E  
                   u3031 25FC                     u2080 311A                     u1600 15E6  
                   u2240 1D2A                     u2160 1AA0                     u2320 3006  
                   u2400 2E5C                     u3040 2660                     u2081 3116  
                   u1601 15E2                     u2241 1D26                     u2161 1A9C  
                   u2321 3002                     u2401 2E58                     u3041 265C  
                   u2090 3142                     u1610 15F8                     u2250 1D40  
                   u2170 1AB0                     u2330 303A                     u2410 2EB8  
                   u3050 27E4                     u2091 313E                     u1611 15F4  
                   u2251 1D3C                     u2171 1AAC                     u2411 2EB4  
                   u3051 27E0                     u2500 2CDC                     u1700 1740  
                   u1620 1608                     u2260 1D54                     u2180 1AE6  
                   u2340 3068                     u2420 2F0E                     u3060 2800  
                   u2501 2CD8                     u1701 173C                     u1621 1604  
                   u2261 1D50                     u2181 1AE2                     u2341 3064  
                   u2421 2F0A                     u3061 27FC                     u1550 34DE  
                   u2510 2CF8                     u1710 174E                     u1630 1644  
                   u2270 1D6E                     u2190 1AF6                     u2350 307C  
                   u2430 2F58                     u3070 2814                     u1551 34DA  
                   u2511 2CF4                     u1711 174A                     u1631 1640  
                   u2271 1D6A                     u2191 1AF2                     u2351 3078  
                   u2335 3030                     u2431 2F54                     u3071 2810  
                   u2520 2D2E                     u1800 18AC                     u1720 175E  
                   u1640 1652                     u1560 156C                     u2280 1DB6  
                   u2360 30A4                     u2440 2F76                     u2600 1E6E  
                   u3080 2828                     u2521 2D28                     u1801 18A8  
                   u1721 175A                     u1641 164E                     u1561 1568  
                   u2281 1DB2                     u2361 30A0                     u2441 2F72  
                   u2601 1E68                     u3081 2824                     u2530 2D30  
                   u1810 18BC                     u1730 1790                     u1650 16C0  
                   u1570 157E                     u2290 1DE4                     u2370 30C4  
                   u2450 2F86                     u2610 1E70                     u1811 18B8  
                   u1731 178C                     u1651 16BC                     u1571 157A  
                   u2291 1DE0                     u2371 30C0                     u2451 2F82  
                   u2540 2D90                     u1900 19A0                     u1820 18D8  
                   u1740 179E                     u1660 16D8                     u1580 158E  
                   u2380 30D4                     u2460 2F94                     u2620 1E92  
                   u2700 10A4                     u2541 2D8C                     u1901 199C  
                   u1821 18D4                     u1741 179A                     u1661 16D2  
                   u1581 158A                     u2381 30D0                     u2461 2F90  
                   u2621 1E8E                     u2701 10A0                     u2550 2DA0  
                   u1910 19B0                     u1830 18E8                     u1750 17BC  
                   u1670 16DA                     u1590 15D0                     u2470 2FCE  
                   u2390 2E4E                     u2630 2010                     u2710 10FE  
                   u2551 2D9C                     u1911 19AC                     u1831 18E4  
                   u1751 17B8                     u1591 15CC                     u2471 2FCA  
                   u2391 2E4A                     u2631 200C                     u2711 10FA  
                   u2800 2218                     u2560 2DB0                     u1920 19D0  
                   u1840 18FA                     u1760 17F4                     u1680 1702  
                   u2480 2FDC                     u2640 21F8                     u2720 111C  
                   u2801 2214                     u2561 2DAC                     u1921 19CC  
                   u1841 18F6                     u1761 17F0                     u1681 16FE  
                   u2481 2FD8                     u2641 21F4                     u2721 1118  
                   u3097 2834                     u2650 33E0                     u2810 222A  
                   u2570 2DC0                     u2490 2C9C                     u1930 19E2  
                   u1850 1910                     u1770 183A                     u1690 1720  
                   u2730 112C                     u2651 33DC                     u2811 2226  
                   u2571 2DBC                     u2491 2C98                     u1931 19DE  
                   u1851 190C                     u1771 1836                     u1691 171C  
                   u2731 1128                     u2660 33F4                     u2900 23E2  
                   u2820 223A                     u2580 2E04                     u1940 19FE  
                   u1860 1926                     u1780 1870                     u2740 1208  
                   u2661 33F0                     u2901 23DE                     u2821 2236  
                   u2581 2E00                     u1941 19FA                     u1861 1922  
                   u1781 186C                     u2741 1204                     u2910 2406  
                   u2830 227E                     u1950 31D2                     u2590 33B2  
                   u1870 193A                     u1790 1880                     u2750 12E2  
                   u2670 106A                     u2911 2402                     u2831 227A  
                   u1951 31CE                     u2591 33AE                     u1871 1936  
                   u1791 187C                     u2751 12DE                     u2671 1064  
                   u2920 241C                     u2840 2290                     u1960 31EC  
                   u1880 1954                     u2760 1300                     u2680 106C  
                   u2921 2418                     u2841 228C                     u1961 31E8  
                   u1881 1950                     u2761 12FC                     u2930 243A  
                   u2850 22A0                     u1970 3212                     u1890 198E  
                   u2770 1310                     u2690 108E                     u2931 2436  
                   u2851 229C                     u1971 320E                     u1891 198A  
                   u2771 130C                     u2691 108A                     u2940 245A  
                   u2860 22E0                     u1980 3230                     u2780 1390  
                   u2941 2456                     u2861 22DC                     u1981 322C  
                   u2781 138C                     u2950 246C                     u2870 2320  
                   u1990 324C                     u2790 143A                     u2951 2468  
                   u2871 231C                     u1991 3248                     u2791 1436  
                   u2960 249A                     u2880 2396                     u2961 2496  
                   u2881 2392                     u2970 24B0                     u2890 23B8  
                   u2971 24AC                     u2891 23B4                     u2980 24C4  
                   u2981 24C0                     u2990 24DE                     u2991 24DA  
                   abs@a 0007                     _dbuf 00BE                     _half 101D  
                   _main 2598                     _prec 00E8                     _sinf 1048  
                   fsr1h 0FE2                     fsr2h 0FDA                     indf2 0FDF  
                   fsr1l 0FE1                     fsr2l 0FD9                     prodh 0FF4  
                   prodl 0FF3                     start 0000          ___fldiv@new_exp 0039  
           ___param_bank 0000                    ??_abs 0009            ___fltol@sign1 0059  
        __end_of___fladd 1A12                    ?_main 0001          __end_of___fldiv 2598  
        __end_of___awdiv 3284          __end_of___cosdf 2C7A          __end_of___flneg 3434  
        __end_of___awmod 3334                    ?_sinf 009A          __end_of___flmul 1E3C  
        __end_of___flsub 337A          __end_of___fltol 30F6          ___awdiv@divisor 0003  
        __end_of___sindf 2A7C             ___sindf$1890 0070          ___awdiv@counter 0005  
           ___sindf$1888 0068             ___sindf$1889 006C             vfpfcnvrt@fmt 000D  
                  _TX1IF 7CF4          __end_of_pio2_1t 1015                    _fabsf 3434  
                  _flags 005E                    _fputc 30F6                    _width 00E6  
        __end_of_invpio2 101D                    _putch 34CE                    main@i 00BD  
                  tablat 0FF5                    sinf@n 00A6                    sinf@x 009A  
                  sinf@y 00AC                    status 0FD8          __initialization 34B6  
           __end_of_half 1021             __end_of_main 284A             __end_of_sinf 1552  
                 ??_main 005D                   ??_sinf 005D            __activetblptr 0002  
                 ?_fabsf 0001                   ?_fputc 0002                   _ADRESH 0FC4  
       ___awdiv@dividend 0001                   ?_putch 0001                   _GODONE 7E11  
          ___rem_pio2f@n 0096            ___rem_pio2f@t 0092            ___rem_pio2f@x 007C  
          ___rem_pio2f@y 0080            vfpfcnvrt@done 0010                   _SPBRG1 0FAF  
                 _SSP1IF 7CF3                   _TXREG1 0FAD         __end_of___xxtofl 2FF0  
           vfprintf@cfmt 001B                   _s1pio2 103D                   _s2pio2 1039  
                 _s3pio2 1035                   _s4pio2 1031                ??___fladd 0049  
              ??___fldiv 0030                ??___awdiv 0005                ??___cosdf 0055  
              ??___flneg 0055                ??___awmod 0005                ??___flmul 0017  
              ??___flsub 0059                ??___fltol 0055                ??___sindf 0055  
                 _pio2_1 1015                   fabsf@u 0005                   fabsf@x 0001  
                 clear_0 34BC         ___awdiv@quotient 0007          ___awmod@divisor 0003  
                 isa$std 0001          ___awmod@counter 0005                   _printf 349C  
                 fputc@c 0002             __mediumconst 0000                   sinf@ux 00B0  
                 tblptrh 0FF7                   tblptrl 0FF6                   tblptru 0FF8  
      __end_of_SPI_write 33FA         __end_of_vfprintf 33BC             ___xxtofl@arg 000B  
           ___xxtofl@exp 000A             ___xxtofl@val 0001               __accesstop 0060  
__end_of__initialization 34C4               ___flneg@f1 0078            ___rparam_used 0001  
             ___fltol@f1 0051           __pcstackCOMRAM 0001            __end_of_fabsf 3468  
          __end_of_fputc 31C0            __end_of_putch 34E4               __end_of_C0 1031  
             __end_of_C1 102D               __end_of_C2 1029               __end_of_C3 1025  
             __end_of_S1 1011               __end_of_S2 100D               __end_of_S3 1009  
             __end_of_S4 1005                  ??_fabsf 0005                  ??_fputc 0006  
                ??_putch 0001               __pbssBANK0 00BE             SPI_write@LSB 0002  
           SPI_write@MSB 0001            ??___rem_pio2f 005B                  ?_printf 001C  
              ?___xxtofl 0001           ___rem_pio2f@fn 008E           ___rem_pio2f@ty 0081  
         ___rem_pio2f@ux 008A                  _SSP1BUF 0FC9                  __Hparam 0000  
                __Lparam 0000                  ___fladd 1552                  ___fldiv 21FE  
                ___awdiv 31C0                  ___cosdf 2A7C                  ___flneg 33FA  
                ___awmod 3284                  ___flmul 1A12                  ___flsub 3334  
                ___fltol 2FF0                  ___sindf 284A                ?_vfprintf 0017  
           __psmallconst 1000                  __pcinit 34B6                  __ramtop 1000  
         main@selectMode 00BC                  __ptext0 2598                  __ptext1 1048  
                __ptext2 284A                  __ptext3 1E3C                  __ptext4 3434  
                __ptext5 2E3C                  __ptext6 2FF0                  __ptext7 3334  
                __ptext8 33FA                  __ptext9 2A7C                  _pio2_1t 1011  
             ??___xxtofl 0005      __end_of___rem_pio2f 21FE         ___awmod@dividend 0001  
                _invpio2 1019         ___rem_pio2f$1887 0085     end_of_initialization 34C4  
                fputc@fp 0004         ___rem_pio2f@F526 00E2            __Lmediumconst 0000  
       ___rem_pio2f@sign 0089        __end_of_vfpfcnvrt 2E3C                  postdec2 0FDD  
                postinc0 0FEE                  postinc1 0FE6                  postinc2 0FDE  
       vfpfcnvrt@convarg 0012               ??_vfprintf 001B                _PORTAbits 0F80  
              _PORTCbits 0F82              ___fladd@grs 0050            ___xxtofl@sign 0009  
              _TRISAbits 0F92                _TRISBbits 0F93                _TRISCbits 0F94  
            ___fldiv@grs 003B              ___fldiv@rem 0034                _SPI_write 33BC  
            ___flmul@grs 001C           __end_of_s1pio2 1041           __end_of_s2pio2 103D  
         __end_of_s3pio2 1039           __end_of_s4pio2 1035              vfpfcnvrt@ap 000E  
            vfpfcnvrt@cp 0011              ___rem_pio2f 1E3C              vfpfcnvrt@fp 000B  
         __end_of_pio2_1 1019           __end_of_printf 34B6      start_initialization 34B6  
            __end_of_abs 349C               ?_SPI_write 0001              vfprintf@fmt 0019  
               ??_printf 001F                ___fladd@a 0045                ___fladd@b 0041  
              ___fldiv@a 002C                ___fldiv@b 0028                ___cosdf@r 0060  
              ___cosdf@w 0070                ___cosdf@x 0051                ___cosdf@z 0074  
              ___flmul@a 0013                ___flmul@b 000F              __pbssCOMRAM 005E  
              ___flsub@a 0055                ___flsub@b 0051            __pcstackBANK0 0060  
              ___sindf@r 0060                ___sindf@s 0074                ___sindf@w 0064  
              ___sindf@x 0051                ___sindf@z 0078                _main$1881 00B4  
              _main$1882 00B8            SPI_write@data 0003                 ?___fladd 0041  
               ?___fldiv 0028                 ?___awdiv 0001                 ?___cosdf 0051  
               ?___flneg 0078                 ?___awmod 0001                 ?___flmul 000F  
               ?___flsub 0051                 ?___fltol 0051                 ?___sindf 0051  
              fabsf@F465 00DE              __smallconst 1000                _sinf$1647 009E  
              _sinf$1648 00A2                _sinf$1883 00A8              ??_SPI_write 0001  
               _LATBbits 0F8A                _vfpfcnvrt 2C7A               _ADCON0bits 0FC2  
             _ADCON2bits 0FC0               vfpfcnvrt@c 0016                 __Hrparam 0000  
             vfprintf@ap 001A                 __Lrparam 0000               vfprintf@fp 0017  
           ?___rem_pio2f 007C               ?_vfpfcnvrt 000B               _ANSELAbits 0F38  
             _ANSELBbits 0F39                 ___xxtofl 2E3C                 __ptext10 1A12  
               __ptext11 1552                 __ptext20 21FE                 __ptext12 349C  
               __ptext21 33BC                 __ptext13 337A                 __ptext14 2C7A  
               __ptext15 30F6                 __ptext16 34CE                 __ptext17 3468  
               __ptext18 3284                 __ptext19 31C0             _SSP1CON1bits 0FC6  
               isa$xinst 0000                 _vfprintf 337A                printf@fmt 001C  
           _SSP1STATbits 0FC7                putch@data 0001               _RCSTA1bits 0FAB  
               sinf@sign 00A7                 printf@ap 001F              ??_vfpfcnvrt 000F  
          ___fladd@signs 004D             ___fladd@aexp 004E             ___fladd@bexp 004F  
           ___cosdf$1884 0064             ___cosdf$1885 0068             ___cosdf$1886 006C  
